ARM GAS  C:\Users\armst\AppData\Local\Temp\ccFg2asa.s 			page 1


   1              		.syntax unified
   2              		.cpu cortex-m0plus
   3              		.fpu softvfp
   4              		.eabi_attribute 20, 1
   5              		.eabi_attribute 21, 1
   6              		.eabi_attribute 23, 3
   7              		.eabi_attribute 24, 1
   8              		.eabi_attribute 25, 1
   9              		.eabi_attribute 26, 1
  10              		.eabi_attribute 30, 1
  11              		.eabi_attribute 34, 0
  12              		.eabi_attribute 18, 4
  13              		.thumb
  14              		.syntax unified
  15              		.file	"minmea.c"
  16              		.text
  17              	.Ltext0:
  18              		.cfi_sections	.debug_frame
  19              		.section	.text.hex2int,"ax",%progbits
  20              		.align	2
  21              		.code	16
  22              		.thumb_func
  23              		.type	hex2int, %function
  24              	hex2int:
  25              	.LFB4:
  26              		.file 1 "minmea.c"
   1:minmea.c      **** /*
   2:minmea.c      ****  * Copyright © 2014 Kosma Moczek <kosma@cloudyourcar.com>
   3:minmea.c      ****  * This program is free software. It comes without any warranty, to the extent
   4:minmea.c      ****  * permitted by applicable law. You can redistribute it and/or modify it under
   5:minmea.c      ****  * the terms of the Do What The Fuck You Want To Public License, Version 2, as
   6:minmea.c      ****  * published by Sam Hocevar. See the COPYING file for more details.
   7:minmea.c      ****  * Source: https://github.com/kosma/minmea/tree/master
   8:minmea.c      ****  */
   9:minmea.c      **** 
  10:minmea.c      **** #include "minmea.h"
  11:minmea.c      **** 
  12:minmea.c      **** #include <stdlib.h>
  13:minmea.c      **** #include <string.h>
  14:minmea.c      **** #include <stdarg.h>
  15:minmea.c      **** 
  16:minmea.c      **** #define boolstr(s) ((s) ? "true" : "false")
  17:minmea.c      **** 
  18:minmea.c      **** static int hex2int(char c)
  19:minmea.c      **** {
  27              		.loc 1 19 0
  28              		.cfi_startproc
  29              		@ args = 0, pretend = 0, frame = 0
  30              		@ frame_needed = 0, uses_anonymous_args = 0
  31              		@ link register save eliminated.
  32              	.LVL0:
  20:minmea.c      ****     if (c >= '0' && c <= '9')
  33              		.loc 1 20 0
  34 0000 0300     		movs	r3, r0
  35 0002 303B     		subs	r3, r3, #48
  36 0004 DBB2     		uxtb	r3, r3
  37 0006 092B     		cmp	r3, #9
ARM GAS  C:\Users\armst\AppData\Local\Temp\ccFg2asa.s 			page 2


  38 0008 01D8     		bhi	.L2
  21:minmea.c      ****         return c - '0';
  39              		.loc 1 21 0
  40 000a 3038     		subs	r0, r0, #48
  41              	.LVL1:
  42 000c 0FE0     		b	.L3
  43              	.LVL2:
  44              	.L2:
  22:minmea.c      ****     if (c >= 'A' && c <= 'F')
  45              		.loc 1 22 0
  46 000e 0300     		movs	r3, r0
  47 0010 413B     		subs	r3, r3, #65
  48 0012 DBB2     		uxtb	r3, r3
  49 0014 052B     		cmp	r3, #5
  50 0016 01D8     		bhi	.L4
  23:minmea.c      ****         return c - 'A' + 10;
  51              		.loc 1 23 0
  52 0018 3738     		subs	r0, r0, #55
  53              	.LVL3:
  54 001a 08E0     		b	.L3
  55              	.LVL4:
  56              	.L4:
  24:minmea.c      ****     if (c >= 'a' && c <= 'f')
  57              		.loc 1 24 0
  58 001c 0300     		movs	r3, r0
  59 001e 613B     		subs	r3, r3, #97
  60 0020 DBB2     		uxtb	r3, r3
  61 0022 052B     		cmp	r3, #5
  62 0024 01D8     		bhi	.L5
  25:minmea.c      ****         return c - 'a' + 10;
  63              		.loc 1 25 0
  64 0026 5738     		subs	r0, r0, #87
  65              	.LVL5:
  66 0028 01E0     		b	.L3
  67              	.LVL6:
  68              	.L5:
  26:minmea.c      ****     return -1;
  69              		.loc 1 26 0
  70 002a 0120     		movs	r0, #1
  71              	.LVL7:
  72 002c 4042     		rsbs	r0, r0, #0
  73              	.L3:
  27:minmea.c      **** }
  74              		.loc 1 27 0
  75              		@ sp needed
  76 002e 7047     		bx	lr
  77              		.cfi_endproc
  78              	.LFE4:
  79              		.size	hex2int, .-hex2int
  80              		.section	.text.minmea_checksum,"ax",%progbits
  81              		.align	2
  82              		.global	minmea_checksum
  83              		.code	16
  84              		.thumb_func
  85              		.type	minmea_checksum, %function
  86              	minmea_checksum:
  87              	.LFB5:
ARM GAS  C:\Users\armst\AppData\Local\Temp\ccFg2asa.s 			page 3


  28:minmea.c      **** 
  29:minmea.c      **** uint8_t minmea_checksum(const char *sentence)
  30:minmea.c      **** {
  88              		.loc 1 30 0
  89              		.cfi_startproc
  90              		@ args = 0, pretend = 0, frame = 0
  91              		@ frame_needed = 0, uses_anonymous_args = 0
  92              		@ link register save eliminated.
  93              	.LVL8:
  94 0000 0200     		movs	r2, r0
  31:minmea.c      ****     // Support senteces with or without the starting dollar sign.
  32:minmea.c      ****     if (*sentence == '$')
  95              		.loc 1 32 0
  96 0002 0378     		ldrb	r3, [r0]
  97 0004 242B     		cmp	r3, #36
  98 0006 00D1     		bne	.L7
  33:minmea.c      ****         sentence++;
  99              		.loc 1 33 0
 100 0008 0132     		adds	r2, r2, #1
 101              	.LVL9:
 102              	.L7:
  30:minmea.c      ****     // Support senteces with or without the starting dollar sign.
 103              		.loc 1 30 0
 104 000a 0020     		movs	r0, #0
 105 000c 01E0     		b	.L8
 106              	.LVL10:
 107              	.L10:
  34:minmea.c      **** 
  35:minmea.c      ****     uint8_t checksum = 0x00;
  36:minmea.c      **** 
  37:minmea.c      ****     // The optional checksum is an XOR of all bytes between "$" and "*".
  38:minmea.c      ****     while (*sentence && *sentence != '*')
  39:minmea.c      ****         checksum ^= *sentence++;
 108              		.loc 1 39 0
 109 000e 0132     		adds	r2, r2, #1
 110              	.LVL11:
 111 0010 5840     		eors	r0, r3
 112              	.LVL12:
 113              	.L8:
  38:minmea.c      ****         checksum ^= *sentence++;
 114              		.loc 1 38 0
 115 0012 1378     		ldrb	r3, [r2]
 116 0014 002B     		cmp	r3, #0
 117 0016 01D0     		beq	.L9
  38:minmea.c      ****         checksum ^= *sentence++;
 118              		.loc 1 38 0 is_stmt 0 discriminator 1
 119 0018 2A2B     		cmp	r3, #42
 120 001a F8D1     		bne	.L10
 121              	.L9:
  40:minmea.c      **** 
  41:minmea.c      ****     return checksum;
  42:minmea.c      **** }
 122              		.loc 1 42 0 is_stmt 1
 123              		@ sp needed
 124 001c 7047     		bx	lr
 125              		.cfi_endproc
 126              	.LFE5:
ARM GAS  C:\Users\armst\AppData\Local\Temp\ccFg2asa.s 			page 4


 127              		.size	minmea_checksum, .-minmea_checksum
 128 001e C046     		.section	.text.minmea_check,"ax",%progbits
 129              		.align	2
 130              		.global	minmea_check
 131              		.code	16
 132              		.thumb_func
 133              		.type	minmea_check, %function
 134              	minmea_check:
 135              	.LFB6:
  43:minmea.c      **** 
  44:minmea.c      **** bool minmea_check(const char *sentence, bool strict)
  45:minmea.c      **** {
 136              		.loc 1 45 0
 137              		.cfi_startproc
 138              		@ args = 0, pretend = 0, frame = 0
 139              		@ frame_needed = 0, uses_anonymous_args = 0
 140              	.LVL13:
 141 0000 F8B5     		push	{r3, r4, r5, r6, r7, lr}
 142              		.cfi_def_cfa_offset 24
 143              		.cfi_offset 3, -24
 144              		.cfi_offset 4, -20
 145              		.cfi_offset 5, -16
 146              		.cfi_offset 6, -12
 147              		.cfi_offset 7, -8
 148              		.cfi_offset 14, -4
 149              	.LVL14:
  46:minmea.c      ****     uint8_t checksum = 0x00;
  47:minmea.c      **** 
  48:minmea.c      ****     // A valid sentence starts with "$".
  49:minmea.c      ****     if (*sentence++ != '$')
 150              		.loc 1 49 0
 151 0002 441C     		adds	r4, r0, #1
 152              	.LVL15:
 153 0004 0378     		ldrb	r3, [r0]
 154 0006 242B     		cmp	r3, #36
 155 0008 30D1     		bne	.L20
 156 000a 0025     		movs	r5, #0
 157 000c 01E0     		b	.L13
 158              	.LVL16:
 159              	.L15:
  50:minmea.c      ****         return false;
  51:minmea.c      **** 
  52:minmea.c      ****     // The optional checksum is an XOR of all bytes between "$" and "*".
  53:minmea.c      ****     while (*sentence && *sentence != '*' && isprint((unsigned char) *sentence))
  54:minmea.c      ****         checksum ^= *sentence++;
 160              		.loc 1 54 0
 161 000e 0134     		adds	r4, r4, #1
 162              	.LVL17:
 163 0010 5D40     		eors	r5, r3
 164              	.LVL18:
 165              	.L13:
  53:minmea.c      ****         checksum ^= *sentence++;
 166              		.loc 1 53 0
 167 0012 2378     		ldrb	r3, [r4]
 168 0014 002B     		cmp	r3, #0
 169 0016 08D0     		beq	.L14
  53:minmea.c      ****         checksum ^= *sentence++;
ARM GAS  C:\Users\armst\AppData\Local\Temp\ccFg2asa.s 			page 5


 170              		.loc 1 53 0 is_stmt 0 discriminator 1
 171 0018 2A2B     		cmp	r3, #42
 172 001a 06D0     		beq	.L14
  53:minmea.c      ****         checksum ^= *sentence++;
 173              		.loc 1 53 0 discriminator 2
 174 001c 194A     		ldr	r2, .L26
 175 001e 1268     		ldr	r2, [r2]
 176 0020 D218     		adds	r2, r2, r3
 177 0022 5278     		ldrb	r2, [r2, #1]
 178 0024 6820     		movs	r0, #104
 179 0026 8243     		bics	r2, r0
 180 0028 F1D1     		bne	.L15
 181              	.L14:
  55:minmea.c      **** 
  56:minmea.c      ****     // If checksum is present...
  57:minmea.c      ****     if (*sentence == '*') {
 182              		.loc 1 57 0 is_stmt 1
 183 002a 2A2B     		cmp	r3, #42
 184 002c 11D1     		bne	.L16
 185              	.LVL19:
 186              	.LBB37:
  58:minmea.c      ****         // Extract checksum.
  59:minmea.c      ****         sentence++;
  60:minmea.c      ****         int upper = hex2int(*sentence++);
 187              		.loc 1 60 0
 188 002e 6078     		ldrb	r0, [r4, #1]
 189 0030 FFF7FEFF 		bl	hex2int
 190              	.LVL20:
 191 0034 0600     		movs	r6, r0
 192              	.LVL21:
  61:minmea.c      ****         if (upper == -1)
 193              		.loc 1 61 0
 194 0036 431C     		adds	r3, r0, #1
 195 0038 1AD0     		beq	.L21
  62:minmea.c      ****             return false;
  63:minmea.c      ****         int lower = hex2int(*sentence++);
 196              		.loc 1 63 0
 197 003a E71C     		adds	r7, r4, #3
 198              	.LVL22:
 199 003c A078     		ldrb	r0, [r4, #2]
 200              	.LVL23:
 201 003e FFF7FEFF 		bl	hex2int
 202              	.LVL24:
  64:minmea.c      ****         if (lower == -1)
 203              		.loc 1 64 0
 204 0042 431C     		adds	r3, r0, #1
 205 0044 16D0     		beq	.L22
  65:minmea.c      ****             return false;
  66:minmea.c      ****         int expected = upper << 4 | lower;
 206              		.loc 1 66 0
 207 0046 3601     		lsls	r6, r6, #4
 208              	.LVL25:
 209 0048 3043     		orrs	r0, r6
 210              	.LVL26:
  67:minmea.c      **** 
  68:minmea.c      ****         // Check for checksum mismatch.
  69:minmea.c      ****         if (checksum != expected)
ARM GAS  C:\Users\armst\AppData\Local\Temp\ccFg2asa.s 			page 6


 211              		.loc 1 69 0
 212 004a A842     		cmp	r0, r5
 213 004c 14D1     		bne	.L23
  63:minmea.c      ****         if (lower == -1)
 214              		.loc 1 63 0
 215 004e 3C00     		movs	r4, r7
 216 0050 03E0     		b	.L18
 217              	.LVL27:
 218              	.L16:
 219              	.LBE37:
  70:minmea.c      ****             return false;
  71:minmea.c      ****     } else if (strict) {
 220              		.loc 1 71 0
 221 0052 0029     		cmp	r1, #0
 222 0054 01D0     		beq	.L18
 223 0056 11E0     		b	.L24
 224              	.LVL28:
 225              	.L19:
  72:minmea.c      ****         // Discard non-checksummed frames in strict mode.
  73:minmea.c      ****         return false;
  74:minmea.c      ****     }
  75:minmea.c      **** 
  76:minmea.c      ****     // The only stuff allowed at this point is a newline.
  77:minmea.c      ****     while (*sentence == '\r' || *sentence == '\n') {
  78:minmea.c      ****         sentence++;
 226              		.loc 1 78 0
 227 0058 0134     		adds	r4, r4, #1
 228              	.LVL29:
 229              	.L18:
  77:minmea.c      ****         sentence++;
 230              		.loc 1 77 0
 231 005a 2378     		ldrb	r3, [r4]
 232 005c 0D2B     		cmp	r3, #13
 233 005e FBD0     		beq	.L19
  77:minmea.c      ****         sentence++;
 234              		.loc 1 77 0 is_stmt 0 discriminator 1
 235 0060 0A2B     		cmp	r3, #10
 236 0062 F9D0     		beq	.L19
  79:minmea.c      ****     }
  80:minmea.c      ****     
  81:minmea.c      ****     if (*sentence) {
 237              		.loc 1 81 0 is_stmt 1
 238 0064 002B     		cmp	r3, #0
 239 0066 0BD0     		beq	.L25
  82:minmea.c      ****         return false;
 240              		.loc 1 82 0
 241 0068 0020     		movs	r0, #0
 242 006a 0AE0     		b	.L12
 243              	.LVL30:
 244              	.L20:
  50:minmea.c      **** 
 245              		.loc 1 50 0
 246 006c 0020     		movs	r0, #0
 247 006e 08E0     		b	.L12
 248              	.LVL31:
 249              	.L21:
 250              	.LBB38:
ARM GAS  C:\Users\armst\AppData\Local\Temp\ccFg2asa.s 			page 7


  62:minmea.c      ****         int lower = hex2int(*sentence++);
 251              		.loc 1 62 0
 252 0070 0020     		movs	r0, #0
 253              	.LVL32:
 254 0072 06E0     		b	.L12
 255              	.LVL33:
 256              	.L22:
  65:minmea.c      ****         int expected = upper << 4 | lower;
 257              		.loc 1 65 0
 258 0074 0020     		movs	r0, #0
 259              	.LVL34:
 260 0076 04E0     		b	.L12
 261              	.LVL35:
 262              	.L23:
  70:minmea.c      ****     } else if (strict) {
 263              		.loc 1 70 0
 264 0078 0020     		movs	r0, #0
 265              	.LVL36:
 266 007a 02E0     		b	.L12
 267              	.LVL37:
 268              	.L24:
 269              	.LBE38:
  73:minmea.c      ****     }
 270              		.loc 1 73 0
 271 007c 0020     		movs	r0, #0
 272 007e 00E0     		b	.L12
 273              	.LVL38:
 274              	.L25:
  83:minmea.c      ****     }
  84:minmea.c      **** 
  85:minmea.c      ****     return true;
 275              		.loc 1 85 0
 276 0080 0120     		movs	r0, #1
 277              	.LVL39:
 278              	.L12:
  86:minmea.c      **** }
 279              		.loc 1 86 0
 280              		@ sp needed
 281 0082 F8BD     		pop	{r3, r4, r5, r6, r7, pc}
 282              	.L27:
 283              		.align	2
 284              	.L26:
 285 0084 00000000 		.word	__ctype_ptr__
 286              		.cfi_endproc
 287              	.LFE6:
 288              		.size	minmea_check, .-minmea_check
 289              		.global	__aeabi_idiv
 290              		.global	__aeabi_uidiv
 291              		.section	.text.minmea_scan,"ax",%progbits
 292              		.align	2
 293              		.global	minmea_scan
 294              		.code	16
 295              		.thumb_func
 296              		.type	minmea_scan, %function
 297              	minmea_scan:
 298              	.LFB7:
  87:minmea.c      **** 
ARM GAS  C:\Users\armst\AppData\Local\Temp\ccFg2asa.s 			page 8


  88:minmea.c      **** bool minmea_scan(const char *sentence, const char *format, ...)
  89:minmea.c      **** {
 299              		.loc 1 89 0
 300              		.cfi_startproc
 301              		@ args = 4, pretend = 12, frame = 24
 302              		@ frame_needed = 0, uses_anonymous_args = 1
 303              	.LVL40:
 304 0000 0EB4     		push	{r1, r2, r3}
 305              		.cfi_def_cfa_offset 12
 306 0002 F0B5     		push	{r4, r5, r6, r7, lr}
 307              		.cfi_def_cfa_offset 32
 308              		.cfi_offset 4, -32
 309              		.cfi_offset 5, -28
 310              		.cfi_offset 6, -24
 311              		.cfi_offset 7, -20
 312              		.cfi_offset 14, -16
 313 0004 5F46     		mov	r7, fp
 314 0006 5646     		mov	r6, r10
 315 0008 4D46     		mov	r5, r9
 316 000a 4446     		mov	r4, r8
 317 000c F0B4     		push	{r4, r5, r6, r7}
 318              		.cfi_def_cfa_offset 48
 319              		.cfi_offset 8, -48
 320              		.cfi_offset 9, -44
 321              		.cfi_offset 10, -40
 322              		.cfi_offset 11, -36
 323 000e 86B0     		sub	sp, sp, #24
 324              		.cfi_def_cfa_offset 72
 325 0010 041E     		subs	r4, r0, #0
 326 0012 0F9E     		ldr	r6, [sp, #60]
 327              	.LVL41:
  90:minmea.c      ****     bool result = false;
  91:minmea.c      ****     bool optional = false;
  92:minmea.c      **** 
  93:minmea.c      ****     if (sentence == NULL)
 328              		.loc 1 93 0
 329 0014 00D1     		bne	.LCB325
 330 0016 8CE2     		b	.L93	@long jump
 331              	.LCB325:
  94:minmea.c      ****         return false;
  95:minmea.c      **** 
  96:minmea.c      ****     va_list ap;
  97:minmea.c      ****     va_start(ap, format);
 332              		.loc 1 97 0
 333 0018 10AB     		add	r3, sp, #64
 334 001a 0593     		str	r3, [sp, #20]
 335              	.LVL42:
  98:minmea.c      **** 
  99:minmea.c      ****     const char *field = sentence;
 336              		.loc 1 99 0
 337 001c 0500     		movs	r5, r0
  91:minmea.c      **** 
 338              		.loc 1 91 0
 339 001e 0023     		movs	r3, #0
 340 0020 9846     		mov	r8, r3
 100:minmea.c      **** #define next_field() \
 101:minmea.c      ****     do { \
ARM GAS  C:\Users\armst\AppData\Local\Temp\ccFg2asa.s 			page 9


 102:minmea.c      ****         /* Progress to the next field. */ \
 103:minmea.c      ****         while (minmea_isfield(*sentence)) \
 104:minmea.c      ****             sentence++; \
 105:minmea.c      ****         /* Make sure there is a field there. */ \
 106:minmea.c      ****         if (*sentence == ',') { \
 107:minmea.c      ****             sentence++; \
 108:minmea.c      ****             field = sentence; \
 109:minmea.c      ****         } else { \
 110:minmea.c      ****             field = NULL; \
 111:minmea.c      ****         } \
 112:minmea.c      ****     } while (0)
 113:minmea.c      **** 
 114:minmea.c      ****     while (*format) {
 341              		.loc 1 114 0
 342 0022 6AE2     		b	.L30
 343              	.LVL43:
 344              	.L92:
 345              	.LBB39:
 115:minmea.c      ****         char type = *format++;
 346              		.loc 1 115 0
 347 0024 0136     		adds	r6, r6, #1
 348              	.LVL44:
 116:minmea.c      **** 
 117:minmea.c      ****         if (type == ';') {
 349              		.loc 1 117 0
 350 0026 3B2B     		cmp	r3, #59
 351 0028 00D1     		bne	.LCB346
 352 002a 62E2     		b	.L94	@long jump
 353              	.LCB346:
 118:minmea.c      ****             // All further fields are optional.
 119:minmea.c      ****             optional = true;
 120:minmea.c      ****             continue;
 121:minmea.c      ****         }
 122:minmea.c      **** 
 123:minmea.c      ****         if (!field && !optional) {
 354              		.loc 1 123 0
 355 002c 002D     		cmp	r5, #0
 356 002e 03D1     		bne	.L32
 357              		.loc 1 123 0 is_stmt 0 discriminator 1
 358 0030 4246     		mov	r2, r8
 359 0032 002A     		cmp	r2, #0
 360 0034 00D1     		bne	.LCB351
 361 0036 66E2     		b	.L95	@long jump
 362              	.LCB351:
 363              	.L32:
 124:minmea.c      ****             // Field requested but we ran out if input. Bail out.
 125:minmea.c      ****             goto parse_error;
 126:minmea.c      ****         }
 127:minmea.c      **** 
 128:minmea.c      ****         switch (type) {
 364              		.loc 1 128 0 is_stmt 1
 365 0038 443B     		subs	r3, r3, #68
 366              	.LVL45:
 367 003a DAB2     		uxtb	r2, r3
 368 003c 302A     		cmp	r2, #48
 369 003e 00D9     		bls	.LCB357
 370 0040 63E2     		b	.L96	@long jump
ARM GAS  C:\Users\armst\AppData\Local\Temp\ccFg2asa.s 			page 10


 371              	.LCB357:
 372 0042 9300     		lsls	r3, r2, #2
 373 0044 A54A     		ldr	r2, .L151
 374 0046 D358     		ldr	r3, [r2, r3]
 375 0048 9F46     		mov	pc, r3
 376              		.section	.rodata
 377              		.align	2
 378              	.L35:
 379 0000 0C030000 		.word	.L34
 380 0004 0A050000 		.word	.L96
 381 0008 0A050000 		.word	.L96
 382 000c 0A050000 		.word	.L96
 383 0010 0A050000 		.word	.L96
 384 0014 0A050000 		.word	.L96
 385 0018 0A050000 		.word	.L96
 386 001c 0A050000 		.word	.L96
 387 0020 0A050000 		.word	.L96
 388 0024 0A050000 		.word	.L96
 389 0028 0A050000 		.word	.L96
 390 002c 0A050000 		.word	.L96
 391 0030 0A050000 		.word	.L96
 392 0034 0A050000 		.word	.L96
 393 0038 0A050000 		.word	.L96
 394 003c 0A050000 		.word	.L96
 395 0040 BE030000 		.word	.L36
 396 0044 0A050000 		.word	.L96
 397 0048 0A050000 		.word	.L96
 398 004c 0A050000 		.word	.L96
 399 0050 0A050000 		.word	.L96
 400 0054 0A050000 		.word	.L96
 401 0058 0A050000 		.word	.L96
 402 005c 0A050000 		.word	.L96
 403 0060 0A050000 		.word	.L96
 404 0064 0A050000 		.word	.L96
 405 0068 0A050000 		.word	.L96
 406 006c BE040000 		.word	.L65
 407 0070 0A050000 		.word	.L96
 408 0074 0A050000 		.word	.L96
 409 0078 0A050000 		.word	.L96
 410 007c 4A000000 		.word	.L38
 411 0080 8A000000 		.word	.L39
 412 0084 0A050000 		.word	.L96
 413 0088 EA000000 		.word	.L40
 414 008c 0A050000 		.word	.L96
 415 0090 0A050000 		.word	.L96
 416 0094 12020000 		.word	.L41
 417 0098 0A050000 		.word	.L96
 418 009c 0A050000 		.word	.L96
 419 00a0 0A050000 		.word	.L96
 420 00a4 0A050000 		.word	.L96
 421 00a8 0A050000 		.word	.L96
 422 00ac 0A050000 		.word	.L96
 423 00b0 0A050000 		.word	.L96
 424 00b4 0A050000 		.word	.L96
 425 00b8 0A050000 		.word	.L96
 426 00bc 5E020000 		.word	.L42
 427 00c0 A2020000 		.word	.L43
ARM GAS  C:\Users\armst\AppData\Local\Temp\ccFg2asa.s 			page 11


 428              		.section	.text.minmea_scan
 429              	.L38:
 430              	.LVL46:
 431              	.LBB40:
 129:minmea.c      ****             case 'c': { // Single character field (char).
 130:minmea.c      ****                 char value = '\0';
 131:minmea.c      **** 
 132:minmea.c      ****                 if (field && minmea_isfield(*field))
 432              		.loc 1 132 0
 433 004a 002D     		cmp	r5, #0
 434 004c 16D0     		beq	.L97
 435              		.loc 1 132 0 is_stmt 0 discriminator 1
 436 004e 2B78     		ldrb	r3, [r5]
 437              	.LVL47:
 438              	.LBB41:
 439              	.LBB42:
 440              		.file 2 "minmea.h"
   1:minmea.h      **** /*
   2:minmea.h      ****  * Copyright © 2014 Kosma Moczek <kosma@cloudyourcar.com>
   3:minmea.h      ****  * This program is free software. It comes without any warranty, to the extent
   4:minmea.h      ****  * permitted by applicable law. You can redistribute it and/or modify it under
   5:minmea.h      ****  * the terms of the Do What The Fuck You Want To Public License, Version 2, as
   6:minmea.h      ****  * published by Sam Hocevar. See the COPYING file for more details.
   7:minmea.h      ****  * Source: https://github.com/kosma/minmea/tree/master
   8:minmea.h      ****  */
   9:minmea.h      **** 
  10:minmea.h      **** #ifndef MINMEA_H
  11:minmea.h      **** #define MINMEA_H
  12:minmea.h      **** 
  13:minmea.h      **** #ifdef __cplusplus
  14:minmea.h      **** extern "C" {
  15:minmea.h      **** #endif
  16:minmea.h      **** 
  17:minmea.h      **** #include <ctype.h>
  18:minmea.h      **** #include <stdint.h>
  19:minmea.h      **** #include <stdbool.h>
  20:minmea.h      **** #include <time.h>
  21:minmea.h      **** #include <math.h>
  22:minmea.h      **** #ifdef MINMEA_INCLUDE_COMPAT
  23:minmea.h      **** #include <minmea_compat.h>
  24:minmea.h      **** #endif
  25:minmea.h      **** 
  26:minmea.h      **** #ifndef MINMEA_MAX_SENTENCE_LENGTH
  27:minmea.h      **** #define MINMEA_MAX_SENTENCE_LENGTH 80
  28:minmea.h      **** #endif
  29:minmea.h      **** 
  30:minmea.h      **** enum minmea_sentence_id {
  31:minmea.h      ****     MINMEA_INVALID = -1,
  32:minmea.h      ****     MINMEA_UNKNOWN = 0,
  33:minmea.h      ****     MINMEA_SENTENCE_GBS,
  34:minmea.h      ****     MINMEA_SENTENCE_GGA,
  35:minmea.h      ****     MINMEA_SENTENCE_GLL,
  36:minmea.h      ****     MINMEA_SENTENCE_GSA,
  37:minmea.h      ****     MINMEA_SENTENCE_GST,
  38:minmea.h      ****     MINMEA_SENTENCE_GSV,
  39:minmea.h      ****     MINMEA_SENTENCE_RMC,
  40:minmea.h      ****     MINMEA_SENTENCE_VTG,
ARM GAS  C:\Users\armst\AppData\Local\Temp\ccFg2asa.s 			page 12


  41:minmea.h      ****     MINMEA_SENTENCE_ZDA,
  42:minmea.h      **** };
  43:minmea.h      **** 
  44:minmea.h      **** struct minmea_float {
  45:minmea.h      ****     int_least32_t value;
  46:minmea.h      ****     int_least32_t scale;
  47:minmea.h      **** };
  48:minmea.h      **** 
  49:minmea.h      **** struct minmea_date {
  50:minmea.h      ****     int day;
  51:minmea.h      ****     int month;
  52:minmea.h      ****     int year;
  53:minmea.h      **** };
  54:minmea.h      **** 
  55:minmea.h      **** struct minmea_time {
  56:minmea.h      ****     int hours;
  57:minmea.h      ****     int minutes;
  58:minmea.h      ****     int seconds;
  59:minmea.h      ****     int microseconds;
  60:minmea.h      **** };
  61:minmea.h      **** 
  62:minmea.h      **** struct minmea_sentence_gbs {
  63:minmea.h      ****     struct minmea_time time;
  64:minmea.h      ****     struct minmea_float err_latitude;
  65:minmea.h      ****     struct minmea_float err_longitude;
  66:minmea.h      ****     struct minmea_float err_altitude;
  67:minmea.h      ****     int svid;
  68:minmea.h      ****     struct minmea_float prob;
  69:minmea.h      ****     struct minmea_float bias;
  70:minmea.h      ****     struct minmea_float stddev;
  71:minmea.h      **** };
  72:minmea.h      **** 
  73:minmea.h      **** struct minmea_sentence_rmc {
  74:minmea.h      ****     struct minmea_time time;
  75:minmea.h      ****     bool valid;
  76:minmea.h      ****     struct minmea_float latitude;
  77:minmea.h      ****     struct minmea_float longitude;
  78:minmea.h      ****     struct minmea_float speed;
  79:minmea.h      ****     struct minmea_float course;
  80:minmea.h      ****     struct minmea_date date;
  81:minmea.h      ****     struct minmea_float variation;
  82:minmea.h      **** };
  83:minmea.h      **** 
  84:minmea.h      **** struct minmea_sentence_gga {
  85:minmea.h      ****     struct minmea_time time;
  86:minmea.h      ****     struct minmea_float latitude;
  87:minmea.h      ****     struct minmea_float longitude;
  88:minmea.h      ****     int fix_quality;
  89:minmea.h      ****     int satellites_tracked;
  90:minmea.h      ****     struct minmea_float hdop;
  91:minmea.h      ****     struct minmea_float altitude; char altitude_units;
  92:minmea.h      ****     struct minmea_float height; char height_units;
  93:minmea.h      ****     struct minmea_float dgps_age;
  94:minmea.h      **** };
  95:minmea.h      **** 
  96:minmea.h      **** enum minmea_gll_status {
  97:minmea.h      ****     MINMEA_GLL_STATUS_DATA_VALID = 'A',
ARM GAS  C:\Users\armst\AppData\Local\Temp\ccFg2asa.s 			page 13


  98:minmea.h      ****     MINMEA_GLL_STATUS_DATA_NOT_VALID = 'V',
  99:minmea.h      **** };
 100:minmea.h      **** 
 101:minmea.h      **** // FAA mode added to some fields in NMEA 2.3.
 102:minmea.h      **** enum minmea_faa_mode {
 103:minmea.h      ****     MINMEA_FAA_MODE_AUTONOMOUS = 'A',
 104:minmea.h      ****     MINMEA_FAA_MODE_DIFFERENTIAL = 'D',
 105:minmea.h      ****     MINMEA_FAA_MODE_ESTIMATED = 'E',
 106:minmea.h      ****     MINMEA_FAA_MODE_MANUAL = 'M',
 107:minmea.h      ****     MINMEA_FAA_MODE_SIMULATED = 'S',
 108:minmea.h      ****     MINMEA_FAA_MODE_NOT_VALID = 'N',
 109:minmea.h      ****     MINMEA_FAA_MODE_PRECISE = 'P',
 110:minmea.h      **** };
 111:minmea.h      **** 
 112:minmea.h      **** struct minmea_sentence_gll {
 113:minmea.h      ****     struct minmea_float latitude;
 114:minmea.h      ****     struct minmea_float longitude;
 115:minmea.h      ****     struct minmea_time time;
 116:minmea.h      ****     char status;
 117:minmea.h      ****     char mode;
 118:minmea.h      **** };
 119:minmea.h      **** 
 120:minmea.h      **** struct minmea_sentence_gst {
 121:minmea.h      ****     struct minmea_time time;
 122:minmea.h      ****     struct minmea_float rms_deviation;
 123:minmea.h      ****     struct minmea_float semi_major_deviation;
 124:minmea.h      ****     struct minmea_float semi_minor_deviation;
 125:minmea.h      ****     struct minmea_float semi_major_orientation;
 126:minmea.h      ****     struct minmea_float latitude_error_deviation;
 127:minmea.h      ****     struct minmea_float longitude_error_deviation;
 128:minmea.h      ****     struct minmea_float altitude_error_deviation;
 129:minmea.h      **** };
 130:minmea.h      **** 
 131:minmea.h      **** enum minmea_gsa_mode {
 132:minmea.h      ****     MINMEA_GPGSA_MODE_AUTO = 'A',
 133:minmea.h      ****     MINMEA_GPGSA_MODE_FORCED = 'M',
 134:minmea.h      **** };
 135:minmea.h      **** 
 136:minmea.h      **** enum minmea_gsa_fix_type {
 137:minmea.h      ****     MINMEA_GPGSA_FIX_NONE = 1,
 138:minmea.h      ****     MINMEA_GPGSA_FIX_2D = 2,
 139:minmea.h      ****     MINMEA_GPGSA_FIX_3D = 3,
 140:minmea.h      **** };
 141:minmea.h      **** 
 142:minmea.h      **** struct minmea_sentence_gsa {
 143:minmea.h      ****     char mode;
 144:minmea.h      ****     int fix_type;
 145:minmea.h      ****     int sats[12];
 146:minmea.h      ****     struct minmea_float pdop;
 147:minmea.h      ****     struct minmea_float hdop;
 148:minmea.h      ****     struct minmea_float vdop;
 149:minmea.h      **** };
 150:minmea.h      **** 
 151:minmea.h      **** struct minmea_sat_info {
 152:minmea.h      ****     int nr;
 153:minmea.h      ****     int elevation;
 154:minmea.h      ****     int azimuth;
ARM GAS  C:\Users\armst\AppData\Local\Temp\ccFg2asa.s 			page 14


 155:minmea.h      ****     int snr;
 156:minmea.h      **** };
 157:minmea.h      **** 
 158:minmea.h      **** struct minmea_sentence_gsv {
 159:minmea.h      ****     int total_msgs;
 160:minmea.h      ****     int msg_nr;
 161:minmea.h      ****     int total_sats;
 162:minmea.h      ****     struct minmea_sat_info sats[4];
 163:minmea.h      **** };
 164:minmea.h      **** 
 165:minmea.h      **** struct minmea_sentence_vtg {
 166:minmea.h      ****     struct minmea_float true_track_degrees;
 167:minmea.h      ****     struct minmea_float magnetic_track_degrees;
 168:minmea.h      ****     struct minmea_float speed_knots;
 169:minmea.h      ****     struct minmea_float speed_kph;
 170:minmea.h      ****     enum minmea_faa_mode faa_mode;
 171:minmea.h      **** };
 172:minmea.h      **** 
 173:minmea.h      **** struct minmea_sentence_zda {
 174:minmea.h      ****     struct minmea_time time;
 175:minmea.h      ****     struct minmea_date date;
 176:minmea.h      ****     int hour_offset;
 177:minmea.h      ****     int minute_offset;
 178:minmea.h      **** };
 179:minmea.h      **** 
 180:minmea.h      **** /**
 181:minmea.h      ****  * Calculate raw sentence checksum. Does not check sentence integrity.
 182:minmea.h      ****  */
 183:minmea.h      **** uint8_t minmea_checksum(const char *sentence);
 184:minmea.h      **** 
 185:minmea.h      **** /**
 186:minmea.h      ****  * Check sentence validity and checksum. Returns true for valid sentences.
 187:minmea.h      ****  */
 188:minmea.h      **** bool minmea_check(const char *sentence, bool strict);
 189:minmea.h      **** 
 190:minmea.h      **** /**
 191:minmea.h      ****  * Determine talker identifier.
 192:minmea.h      ****  */
 193:minmea.h      **** bool minmea_talker_id(char talker[3], const char *sentence);
 194:minmea.h      **** 
 195:minmea.h      **** /**
 196:minmea.h      ****  * Determine sentence identifier.
 197:minmea.h      ****  */
 198:minmea.h      **** enum minmea_sentence_id minmea_sentence_id(const char *sentence, bool strict);
 199:minmea.h      **** 
 200:minmea.h      **** /**
 201:minmea.h      ****  * Scanf-like processor for NMEA sentences. Supports the following formats:
 202:minmea.h      ****  * c - single character (char *)
 203:minmea.h      ****  * d - direction, returned as 1/-1, default 0 (int *)
 204:minmea.h      ****  * f - fractional, returned as value + scale (struct minmea_float *)
 205:minmea.h      ****  * i - decimal, default zero (int *)
 206:minmea.h      ****  * s - string (char *)
 207:minmea.h      ****  * t - talker identifier and type (char *)
 208:minmea.h      ****  * D - date (struct minmea_date *)
 209:minmea.h      ****  * T - time stamp (struct minmea_time *)
 210:minmea.h      ****  * _ - ignore this field
 211:minmea.h      ****  * ; - following fields are optional
ARM GAS  C:\Users\armst\AppData\Local\Temp\ccFg2asa.s 			page 15


 212:minmea.h      ****  * Returns true on success. See library source code for details.
 213:minmea.h      ****  */
 214:minmea.h      **** bool minmea_scan(const char *sentence, const char *format, ...);
 215:minmea.h      **** 
 216:minmea.h      **** /*
 217:minmea.h      ****  * Parse a specific type of sentence. Return true on success.
 218:minmea.h      ****  */
 219:minmea.h      **** bool minmea_parse_gbs(struct minmea_sentence_gbs *frame, const char *sentence);
 220:minmea.h      **** bool minmea_parse_rmc(struct minmea_sentence_rmc *frame, const char *sentence);
 221:minmea.h      **** bool minmea_parse_gga(struct minmea_sentence_gga *frame, const char *sentence);
 222:minmea.h      **** bool minmea_parse_gsa(struct minmea_sentence_gsa *frame, const char *sentence);
 223:minmea.h      **** bool minmea_parse_gll(struct minmea_sentence_gll *frame, const char *sentence);
 224:minmea.h      **** bool minmea_parse_gst(struct minmea_sentence_gst *frame, const char *sentence);
 225:minmea.h      **** bool minmea_parse_gsv(struct minmea_sentence_gsv *frame, const char *sentence);
 226:minmea.h      **** bool minmea_parse_vtg(struct minmea_sentence_vtg *frame, const char *sentence);
 227:minmea.h      **** bool minmea_parse_zda(struct minmea_sentence_zda *frame, const char *sentence);
 228:minmea.h      **** 
 229:minmea.h      **** /**
 230:minmea.h      ****  * Convert GPS UTC date/time representation to a UNIX calendar time.
 231:minmea.h      ****  */
 232:minmea.h      **** int minmea_getdatetime(struct tm *tm, const struct minmea_date *date, const struct minmea_time *tim
 233:minmea.h      **** 
 234:minmea.h      **** /**
 235:minmea.h      ****  * Convert GPS UTC date/time representation to a UNIX timestamp.
 236:minmea.h      ****  */
 237:minmea.h      **** // int minmea_gettime(struct timespec *ts, const struct minmea_date *date, const struct minmea_time
 238:minmea.h      **** 
 239:minmea.h      **** /**
 240:minmea.h      ****  * Rescale a fixed-point value to a different scale. Rounds towards zero.
 241:minmea.h      ****  */
 242:minmea.h      **** static inline int_least32_t minmea_rescale(const struct minmea_float *f, int_least32_t new_scale)
 243:minmea.h      **** {
 244:minmea.h      ****     if (f->scale == 0)
 245:minmea.h      ****         return 0;
 246:minmea.h      ****     if (f->scale == new_scale)
 247:minmea.h      ****         return f->value;
 248:minmea.h      ****     if (f->scale > new_scale)
 249:minmea.h      ****         return (f->value + ((f->value > 0) - (f->value < 0)) * f->scale/new_scale/2) / (f->scale/ne
 250:minmea.h      ****     else
 251:minmea.h      ****         return f->value * (new_scale/f->scale);
 252:minmea.h      **** }
 253:minmea.h      **** 
 254:minmea.h      **** /**
 255:minmea.h      ****  * Convert a fixed-point value to a floating-point value.
 256:minmea.h      ****  * Returns NaN for "unknown" values.
 257:minmea.h      ****  */
 258:minmea.h      **** static inline float minmea_tofloat(const struct minmea_float *f)
 259:minmea.h      **** {
 260:minmea.h      ****     if (f->scale == 0)
 261:minmea.h      ****         return NAN;
 262:minmea.h      ****     return (float) f->value / (float) f->scale;
 263:minmea.h      **** }
 264:minmea.h      **** 
 265:minmea.h      **** /**
 266:minmea.h      ****  * Convert a raw coordinate to a floating point DD.DDD... value.
 267:minmea.h      ****  * Returns NaN for "unknown" values.
 268:minmea.h      ****  */
ARM GAS  C:\Users\armst\AppData\Local\Temp\ccFg2asa.s 			page 16


 269:minmea.h      **** static inline float minmea_tocoord(const struct minmea_float *f)
 270:minmea.h      **** {
 271:minmea.h      ****     if (f->scale == 0)
 272:minmea.h      ****         return NAN;
 273:minmea.h      ****     if (f->scale  > (INT_LEAST32_MAX / 100))
 274:minmea.h      ****         return NAN;
 275:minmea.h      ****     if (f->scale < (INT_LEAST32_MIN / 100))
 276:minmea.h      ****         return NAN;
 277:minmea.h      ****     int_least32_t degrees = f->value / (f->scale * 100);
 278:minmea.h      ****     int_least32_t minutes = f->value % (f->scale * 100);
 279:minmea.h      ****     return (float) degrees + (float) minutes / (60 * f->scale);
 280:minmea.h      **** }
 281:minmea.h      **** 
 282:minmea.h      **** /**
 283:minmea.h      ****  * Check whether a character belongs to the set of characters allowed in a
 284:minmea.h      ****  * sentence data field.
 285:minmea.h      ****  */
 286:minmea.h      **** static inline bool minmea_isfield(char c) {
 287:minmea.h      ****     return isprint((unsigned char) c) && c != ',' && c != '*';
 441              		.loc 2 287 0 is_stmt 1 discriminator 1
 442 0050 A34A     		ldr	r2, .L151+4
 443 0052 1268     		ldr	r2, [r2]
 444 0054 D218     		adds	r2, r2, r3
 445 0056 5278     		ldrb	r2, [r2, #1]
 446 0058 6821     		movs	r1, #104
 447 005a 8A43     		bics	r2, r1
 448 005c 05D0     		beq	.L98
 449              		.loc 2 287 0 is_stmt 0
 450 005e 2C2B     		cmp	r3, #44
 451 0060 05D0     		beq	.L99
 452 0062 2A2B     		cmp	r3, #42
 453 0064 05D1     		bne	.L100
 454 0066 0022     		movs	r2, #0
 455 0068 04E0     		b	.L45
 456              	.L98:
 457 006a 0022     		movs	r2, #0
 458 006c 02E0     		b	.L45
 459              	.L99:
 460 006e 0022     		movs	r2, #0
 461 0070 00E0     		b	.L45
 462              	.L100:
 463 0072 0122     		movs	r2, #1
 464              	.L45:
 465              	.LVL48:
 466              	.LBE42:
 467              	.LBE41:
 468              		.loc 1 132 0 is_stmt 1
 469 0074 002A     		cmp	r2, #0
 470 0076 02D1     		bne	.L44
 130:minmea.c      **** 
 471              		.loc 1 130 0
 472 0078 0023     		movs	r3, #0
 473 007a 00E0     		b	.L44
 474              	.L97:
 475 007c 0023     		movs	r3, #0
 476              	.L44:
 477              	.LVL49:
ARM GAS  C:\Users\armst\AppData\Local\Temp\ccFg2asa.s 			page 17


 133:minmea.c      ****                     value = *field;
 134:minmea.c      **** 
 135:minmea.c      ****                 *va_arg(ap, char *) = value;
 478              		.loc 1 135 0
 479 007e 059A     		ldr	r2, [sp, #20]
 480 0080 111D     		adds	r1, r2, #4
 481 0082 0591     		str	r1, [sp, #20]
 482 0084 1268     		ldr	r2, [r2]
 483 0086 1370     		strb	r3, [r2]
 484              	.LBE40:
 136:minmea.c      ****             } break;
 485              		.loc 1 136 0
 486 0088 19E2     		b	.L65
 487              	.LVL50:
 488              	.L39:
 489              	.LBB43:
 137:minmea.c      **** 
 138:minmea.c      ****             case 'd': { // Single character direction field (int).
 139:minmea.c      ****                 int value = 0;
 140:minmea.c      **** 
 141:minmea.c      ****                 if (field && minmea_isfield(*field)) {
 490              		.loc 1 141 0
 491 008a 002D     		cmp	r5, #0
 492 008c 21D0     		beq	.L101
 493              		.loc 1 141 0 is_stmt 0 discriminator 1
 494 008e 2B78     		ldrb	r3, [r5]
 495              	.LVL51:
 496              	.LBB44:
 497              	.LBB45:
 498              		.loc 2 287 0 is_stmt 1 discriminator 1
 499 0090 934A     		ldr	r2, .L151+4
 500 0092 1268     		ldr	r2, [r2]
 501 0094 D218     		adds	r2, r2, r3
 502 0096 5278     		ldrb	r2, [r2, #1]
 503 0098 6821     		movs	r1, #104
 504 009a 8A43     		bics	r2, r1
 505 009c 05D0     		beq	.L102
 506              		.loc 2 287 0 is_stmt 0
 507 009e 2C2B     		cmp	r3, #44
 508 00a0 05D0     		beq	.L103
 509 00a2 2A2B     		cmp	r3, #42
 510 00a4 05D1     		bne	.L104
 511 00a6 0022     		movs	r2, #0
 512 00a8 04E0     		b	.L47
 513              	.L102:
 514 00aa 0022     		movs	r2, #0
 515 00ac 02E0     		b	.L47
 516              	.L103:
 517 00ae 0022     		movs	r2, #0
 518 00b0 00E0     		b	.L47
 519              	.L104:
 520 00b2 0122     		movs	r2, #1
 521              	.L47:
 522              	.LVL52:
 523              	.LBE45:
 524              	.LBE44:
 525              		.loc 1 141 0 is_stmt 1
ARM GAS  C:\Users\armst\AppData\Local\Temp\ccFg2asa.s 			page 18


 526 00b4 002A     		cmp	r2, #0
 527 00b6 0ED0     		beq	.L105
 142:minmea.c      ****                     switch (*field) {
 528              		.loc 1 142 0
 529 00b8 4E2B     		cmp	r3, #78
 530 00ba 08D0     		beq	.L48
 531 00bc 02D8     		bhi	.L49
 532 00be 452B     		cmp	r3, #69
 533 00c0 05D0     		beq	.L48
 534 00c2 24E2     		b	.L106
 535              	.L49:
 536 00c4 532B     		cmp	r3, #83
 537 00c6 08D0     		beq	.L107
 538 00c8 572B     		cmp	r3, #87
 539 00ca 06D0     		beq	.L107
 540 00cc 1FE2     		b	.L106
 541              	.L48:
 143:minmea.c      ****                         case 'N':
 144:minmea.c      ****                         case 'E':
 145:minmea.c      ****                             value = 1;
 542              		.loc 1 145 0
 543 00ce 0121     		movs	r1, #1
 544 00d0 05E0     		b	.L46
 545              	.L101:
 139:minmea.c      **** 
 546              		.loc 1 139 0
 547 00d2 0021     		movs	r1, #0
 548 00d4 03E0     		b	.L46
 549              	.L105:
 550 00d6 0021     		movs	r1, #0
 551 00d8 01E0     		b	.L46
 552              	.L107:
 146:minmea.c      ****                             break;
 147:minmea.c      ****                         case 'S':
 148:minmea.c      ****                         case 'W':
 149:minmea.c      ****                             value = -1;
 553              		.loc 1 149 0
 554 00da 0121     		movs	r1, #1
 555 00dc 4942     		rsbs	r1, r1, #0
 556              	.L46:
 557              	.LVL53:
 150:minmea.c      ****                             break;
 151:minmea.c      ****                         default:
 152:minmea.c      ****                             goto parse_error;
 153:minmea.c      ****                     }
 154:minmea.c      ****                 }
 155:minmea.c      **** 
 156:minmea.c      ****                 *va_arg(ap, int *) = value;
 558              		.loc 1 156 0
 559 00de 059B     		ldr	r3, [sp, #20]
 560 00e0 1A1D     		adds	r2, r3, #4
 561 00e2 0592     		str	r2, [sp, #20]
 562 00e4 1B68     		ldr	r3, [r3]
 563 00e6 1960     		str	r1, [r3]
 564              	.LBE43:
 157:minmea.c      ****             } break;
 565              		.loc 1 157 0
ARM GAS  C:\Users\armst\AppData\Local\Temp\ccFg2asa.s 			page 19


 566 00e8 E9E1     		b	.L65
 567              	.LVL54:
 568              	.L40:
 569              	.LBB46:
 158:minmea.c      **** 
 159:minmea.c      ****             case 'f': { // Fractional value with scale (struct minmea_float).
 160:minmea.c      ****                 int sign = 0;
 161:minmea.c      ****                 int_least32_t value = -1;
 162:minmea.c      ****                 int_least32_t scale = 0;
 163:minmea.c      **** 
 164:minmea.c      ****                 if (field) {
 570              		.loc 1 164 0
 571 00ea 002D     		cmp	r5, #0
 572 00ec 54D1     		bne	.L108
 162:minmea.c      **** 
 573              		.loc 1 162 0
 574 00ee 0023     		movs	r3, #0
 575 00f0 9946     		mov	r9, r3
 161:minmea.c      ****                 int_least32_t scale = 0;
 576              		.loc 1 161 0
 577 00f2 0127     		movs	r7, #1
 578 00f4 7F42     		rsbs	r7, r7, #0
 160:minmea.c      ****                 int_least32_t value = -1;
 579              		.loc 1 160 0
 580 00f6 9A46     		mov	r10, r3
 581 00f8 69E0     		b	.L51
 582              	.LVL55:
 583              	.L60:
 165:minmea.c      ****                     while (minmea_isfield(*field)) {
 166:minmea.c      ****                         if (*field == '+' && !sign && value == -1) {
 584              		.loc 1 166 0
 585 00fa 2B2B     		cmp	r3, #43
 586 00fc 04D1     		bne	.L52
 587              		.loc 1 166 0 is_stmt 0 discriminator 1
 588 00fe 5146     		mov	r1, r10
 589 0100 0029     		cmp	r1, #0
 590 0102 01D1     		bne	.L52
 591              	.LVL56:
 592              		.loc 1 166 0 discriminator 2
 593 0104 791C     		adds	r1, r7, #1
 594 0106 3CD0     		beq	.L109
 595              	.LVL57:
 596              	.L52:
 167:minmea.c      ****                             sign = 1;
 168:minmea.c      ****                         } else if (*field == '-' && !sign && value == -1) {
 597              		.loc 1 168 0 is_stmt 1
 598 0108 2D2B     		cmp	r3, #45
 599 010a 04D1     		bne	.L54
 600              		.loc 1 168 0 is_stmt 0 discriminator 1
 601 010c 5146     		mov	r1, r10
 602 010e 0029     		cmp	r1, #0
 603 0110 01D1     		bne	.L54
 604              	.LVL58:
 605              		.loc 1 168 0 discriminator 2
 606 0112 791C     		adds	r1, r7, #1
 607 0114 38D0     		beq	.L110
 608              	.LVL59:
ARM GAS  C:\Users\armst\AppData\Local\Temp\ccFg2asa.s 			page 20


 609              	.L54:
 169:minmea.c      ****                             sign = -1;
 170:minmea.c      ****                         } else if (isdigit((unsigned char) *field)) {
 610              		.loc 1 170 0 is_stmt 1
 611 0116 5207     		lsls	r2, r2, #29
 612 0118 20D5     		bpl	.L55
 613              	.LBB47:
 171:minmea.c      ****                             int digit = *field - '0';
 614              		.loc 1 171 0
 615 011a 3022     		movs	r2, #48
 616 011c 5242     		rsbs	r2, r2, #0
 617 011e 9346     		mov	fp, r2
 618 0120 9B44     		add	fp, fp, r3
 619              	.LVL60:
 172:minmea.c      ****                             if (value == -1)
 620              		.loc 1 172 0
 621 0122 7B1C     		adds	r3, r7, #1
 622 0124 00D1     		bne	.L56
 173:minmea.c      ****                                 value = 0;
 623              		.loc 1 173 0
 624 0126 0027     		movs	r7, #0
 625              	.LVL61:
 626              	.L56:
 174:minmea.c      ****                             if (value > (INT_LEAST32_MAX-digit) / 10) {
 627              		.loc 1 174 0
 628 0128 6E48     		ldr	r0, .L151+8
 629 012a 5B46     		mov	r3, fp
 630 012c C01A     		subs	r0, r0, r3
 631 012e 0A21     		movs	r1, #10
 632 0130 FFF7FEFF 		bl	__aeabi_idiv
 633              	.LVL62:
 634 0134 8742     		cmp	r7, r0
 635 0136 04DD     		ble	.L57
 175:minmea.c      ****                                 /* we ran out of bits, what do we do? */
 176:minmea.c      ****                                 if (scale) {
 636              		.loc 1 176 0
 637 0138 4B46     		mov	r3, r9
 638 013a 002B     		cmp	r3, #0
 639 013c 47D1     		bne	.L51
 640              	.LVL63:
 641              	.LBE47:
 642              	.LBE46:
 643              	.LBE39:
  90:minmea.c      ****     bool optional = false;
 644              		.loc 1 90 0
 645 013e 0020     		movs	r0, #0
 646 0140 F8E1     		b	.L29
 647              	.LVL64:
 648              	.L57:
 649              	.LBB85:
 650              	.LBB51:
 651              	.LBB48:
 177:minmea.c      ****                                     /* truncate extra precision */
 178:minmea.c      ****                                     break;
 179:minmea.c      ****                                 } else {
 180:minmea.c      ****                                     /* integer overflow. bail out. */
 181:minmea.c      ****                                     goto parse_error;
ARM GAS  C:\Users\armst\AppData\Local\Temp\ccFg2asa.s 			page 21


 182:minmea.c      ****                                 }
 183:minmea.c      ****                             }
 184:minmea.c      ****                             value = (10 * value) + digit;
 652              		.loc 1 184 0
 653 0142 BB00     		lsls	r3, r7, #2
 654 0144 DF19     		adds	r7, r3, r7
 655              	.LVL65:
 656 0146 7B00     		lsls	r3, r7, #1
 657 0148 5B44     		add	r3, r3, fp
 658 014a 1F00     		movs	r7, r3
 659              	.LVL66:
 185:minmea.c      ****                             if (scale)
 660              		.loc 1 185 0
 661 014c 4B46     		mov	r3, r9
 662              	.LVL67:
 663 014e 002B     		cmp	r3, #0
 664 0150 20D0     		beq	.L53
 665              	.LVL68:
 186:minmea.c      ****                                 scale *= 10;
 666              		.loc 1 186 0
 667 0152 9B00     		lsls	r3, r3, #2
 668              	.LVL69:
 669 0154 4B44     		add	r3, r3, r9
 670 0156 5A00     		lsls	r2, r3, #1
 671 0158 9146     		mov	r9, r2
 672              	.LVL70:
 673 015a 1BE0     		b	.L53
 674              	.LVL71:
 675              	.L55:
 676              	.LBE48:
 187:minmea.c      ****                         } else if (*field == '.' && scale == 0) {
 677              		.loc 1 187 0
 678 015c 2E2B     		cmp	r3, #46
 679 015e 02D1     		bne	.L58
 680              		.loc 1 187 0 is_stmt 0 discriminator 1
 681 0160 4A46     		mov	r2, r9
 682 0162 002A     		cmp	r2, #0
 683 0164 14D0     		beq	.L112
 684              	.L58:
 188:minmea.c      ****                             scale = 1;
 189:minmea.c      ****                         } else if (*field == ' ') {
 685              		.loc 1 189 0 is_stmt 1
 686 0166 202B     		cmp	r3, #32
 687 0168 00D0     		beq	.LCB659
 688 016a D2E1     		b	.L113	@long jump
 689              	.LCB659:
 190:minmea.c      ****                             /* Allow spaces at the start of the field. Not NMEA
 191:minmea.c      ****                              * conformant, but some modules do this. */
 192:minmea.c      ****                             if (sign != 0 || value != -1 || scale != 0)
 690              		.loc 1 192 0
 691 016c 5346     		mov	r3, r10
 692 016e 002B     		cmp	r3, #0
 693 0170 00D0     		beq	.LCB662
 694 0172 D0E1     		b	.L114	@long jump
 695              	.LCB662:
 696              	.LVL72:
 697              		.loc 1 192 0 is_stmt 0 discriminator 1
ARM GAS  C:\Users\armst\AppData\Local\Temp\ccFg2asa.s 			page 22


 698 0174 7B1C     		adds	r3, r7, #1
 699 0176 00D0     		beq	.LCB665
 700 0178 CFE1     		b	.L115	@long jump
 701              	.LCB665:
 702              	.LVL73:
 703              		.loc 1 192 0 discriminator 2
 704 017a 4B46     		mov	r3, r9
 705 017c 002B     		cmp	r3, #0
 706 017e 09D0     		beq	.L53
 707              	.LVL74:
 708              	.LBE51:
 709              	.LBE85:
 710 0180 CDE1     		b	.L116
 711              	.LVL75:
 712              	.L109:
 713              	.LBB86:
 714              	.LBB52:
 167:minmea.c      ****                         } else if (*field == '-' && !sign && value == -1) {
 715              		.loc 1 167 0 is_stmt 1
 716 0182 0123     		movs	r3, #1
 717 0184 9A46     		mov	r10, r3
 718              	.LVL76:
 719 0186 05E0     		b	.L53
 720              	.LVL77:
 721              	.L110:
 169:minmea.c      ****                         } else if (isdigit((unsigned char) *field)) {
 722              		.loc 1 169 0
 723 0188 0123     		movs	r3, #1
 724 018a 5B42     		rsbs	r3, r3, #0
 725 018c 9A46     		mov	r10, r3
 726              	.LVL78:
 727 018e 01E0     		b	.L53
 728              	.LVL79:
 729              	.L112:
 188:minmea.c      ****                         } else if (*field == ' ') {
 730              		.loc 1 188 0
 731 0190 0123     		movs	r3, #1
 732 0192 9946     		mov	r9, r3
 733              	.LVL80:
 734              	.L53:
 193:minmea.c      ****                                 goto parse_error;
 194:minmea.c      ****                         } else {
 195:minmea.c      ****                             goto parse_error;
 196:minmea.c      ****                         }
 197:minmea.c      ****                         field++;
 735              		.loc 1 197 0
 736 0194 0135     		adds	r5, r5, #1
 737              	.LVL81:
 738 0196 04E0     		b	.L50
 739              	.LVL82:
 740              	.L108:
 741 0198 0023     		movs	r3, #0
 742 019a 9946     		mov	r9, r3
 743 019c 0127     		movs	r7, #1
 744 019e 7F42     		rsbs	r7, r7, #0
 745 01a0 9A46     		mov	r10, r3
 746              	.LVL83:
ARM GAS  C:\Users\armst\AppData\Local\Temp\ccFg2asa.s 			page 23


 747              	.L50:
 165:minmea.c      ****                         if (*field == '+' && !sign && value == -1) {
 748              		.loc 1 165 0
 749 01a2 2B78     		ldrb	r3, [r5]
 750              	.LVL84:
 751              	.LBB49:
 752              	.LBB50:
 753              		.loc 2 287 0
 754 01a4 4E4A     		ldr	r2, .L151+4
 755 01a6 1268     		ldr	r2, [r2]
 756 01a8 D218     		adds	r2, r2, r3
 757 01aa 5278     		ldrb	r2, [r2, #1]
 758 01ac 6821     		movs	r1, #104
 759 01ae 1000     		movs	r0, r2
 760 01b0 8843     		bics	r0, r1
 761 01b2 05D0     		beq	.L117
 762 01b4 2C2B     		cmp	r3, #44
 763 01b6 05D0     		beq	.L118
 764 01b8 2A2B     		cmp	r3, #42
 765 01ba 05D1     		bne	.L119
 766 01bc 0021     		movs	r1, #0
 767 01be 04E0     		b	.L59
 768              	.L117:
 769 01c0 0021     		movs	r1, #0
 770 01c2 02E0     		b	.L59
 771              	.L118:
 772 01c4 0021     		movs	r1, #0
 773 01c6 00E0     		b	.L59
 774              	.L119:
 775 01c8 0121     		movs	r1, #1
 776              	.L59:
 777              	.LVL85:
 778              	.LBE50:
 779              	.LBE49:
 165:minmea.c      ****                         if (*field == '+' && !sign && value == -1) {
 780              		.loc 1 165 0
 781 01ca 0029     		cmp	r1, #0
 782 01cc 95D1     		bne	.L60
 783              	.LVL86:
 784              	.L51:
 198:minmea.c      ****                     }
 199:minmea.c      ****                 }
 200:minmea.c      **** 
 201:minmea.c      ****                 if ((sign || scale) && value == -1)
 785              		.loc 1 201 0
 786 01ce 5346     		mov	r3, r10
 787 01d0 002B     		cmp	r3, #0
 788 01d2 02D1     		bne	.L61
 789              		.loc 1 201 0 is_stmt 0 discriminator 2
 790 01d4 4B46     		mov	r3, r9
 791 01d6 002B     		cmp	r3, #0
 792 01d8 02D0     		beq	.L62
 793              	.L61:
 794              		.loc 1 201 0 discriminator 3
 795 01da 7B1C     		adds	r3, r7, #1
 796 01dc 00D1     		bne	.LCB799
 797 01de A0E1     		b	.L120	@long jump
ARM GAS  C:\Users\armst\AppData\Local\Temp\ccFg2asa.s 			page 24


 798              	.LCB799:
 799              	.L62:
 202:minmea.c      ****                     goto parse_error;
 203:minmea.c      **** 
 204:minmea.c      ****                 if (value == -1) {
 800              		.loc 1 204 0 is_stmt 1
 801 01e0 7B1C     		adds	r3, r7, #1
 802 01e2 03D0     		beq	.L121
 205:minmea.c      ****                     /* No digits were scanned. */
 206:minmea.c      ****                     value = 0;
 207:minmea.c      ****                     scale = 0;
 208:minmea.c      ****                 } else if (scale == 0) {
 803              		.loc 1 208 0
 804 01e4 4B46     		mov	r3, r9
 805 01e6 002B     		cmp	r3, #0
 806 01e8 04D0     		beq	.L122
 807              	.LVL87:
 808 01ea 05E0     		b	.L63
 809              	.LVL88:
 810              	.L121:
 207:minmea.c      ****                 } else if (scale == 0) {
 811              		.loc 1 207 0
 812 01ec 0023     		movs	r3, #0
 813 01ee 9946     		mov	r9, r3
 814              	.LVL89:
 206:minmea.c      ****                     scale = 0;
 815              		.loc 1 206 0
 816 01f0 0027     		movs	r7, #0
 817              	.LVL90:
 818 01f2 01E0     		b	.L63
 819              	.LVL91:
 820              	.L122:
 209:minmea.c      ****                     /* No decimal point. */
 210:minmea.c      ****                     scale = 1;
 821              		.loc 1 210 0
 822 01f4 0123     		movs	r3, #1
 823              	.LVL92:
 824 01f6 9946     		mov	r9, r3
 825              	.LVL93:
 826              	.L63:
 211:minmea.c      ****                 }
 212:minmea.c      ****                 if (sign)
 827              		.loc 1 212 0
 828 01f8 5346     		mov	r3, r10
 829 01fa 002B     		cmp	r3, #0
 830 01fc 01D0     		beq	.L64
 831              	.LVL94:
 213:minmea.c      ****                     value *= sign;
 832              		.loc 1 213 0
 833 01fe 7B43     		muls	r3, r7
 834              	.LVL95:
 835 0200 1F00     		movs	r7, r3
 836              	.LVL96:
 837              	.L64:
 214:minmea.c      **** 
 215:minmea.c      ****                 *va_arg(ap, struct minmea_float *) = (struct minmea_float) {value, scale};
 838              		.loc 1 215 0
ARM GAS  C:\Users\armst\AppData\Local\Temp\ccFg2asa.s 			page 25


 839 0202 059B     		ldr	r3, [sp, #20]
 840 0204 1A1D     		adds	r2, r3, #4
 841 0206 0592     		str	r2, [sp, #20]
 842 0208 1B68     		ldr	r3, [r3]
 843 020a 1F60     		str	r7, [r3]
 844 020c 4A46     		mov	r2, r9
 845 020e 5A60     		str	r2, [r3, #4]
 846              	.LBE52:
 216:minmea.c      ****             } break;
 847              		.loc 1 216 0
 848 0210 55E1     		b	.L65
 849              	.LVL97:
 850              	.L41:
 851              	.LBB53:
 217:minmea.c      **** 
 218:minmea.c      ****             case 'i': { // Integer value, default 0 (int).
 219:minmea.c      ****                 int value = 0;
 220:minmea.c      **** 
 221:minmea.c      ****                 if (field) {
 852              		.loc 1 221 0
 853 0212 002D     		cmp	r5, #0
 854 0214 1CD0     		beq	.L123
 855              	.LBB54:
 222:minmea.c      ****                     char *endptr;
 223:minmea.c      ****                     value = strtol(field, &endptr, 10);
 856              		.loc 1 223 0
 857 0216 0A22     		movs	r2, #10
 858 0218 04A9     		add	r1, sp, #16
 859 021a 2800     		movs	r0, r5
 860 021c FFF7FEFF 		bl	strtol
 861              	.LVL98:
 224:minmea.c      ****                     if (minmea_isfield(*endptr))
 862              		.loc 1 224 0
 863 0220 049B     		ldr	r3, [sp, #16]
 864 0222 1A78     		ldrb	r2, [r3]
 865              	.LVL99:
 866              	.LBB55:
 867              	.LBB56:
 868              		.loc 2 287 0
 869 0224 2E4B     		ldr	r3, .L151+4
 870 0226 1B68     		ldr	r3, [r3]
 871 0228 9B18     		adds	r3, r3, r2
 872 022a 5B78     		ldrb	r3, [r3, #1]
 873 022c 6821     		movs	r1, #104
 874 022e 8B43     		bics	r3, r1
 875 0230 05D0     		beq	.L124
 876 0232 2C2A     		cmp	r2, #44
 877 0234 05D0     		beq	.L125
 878 0236 2A2A     		cmp	r2, #42
 879 0238 05D1     		bne	.L126
 880 023a 0023     		movs	r3, #0
 881 023c 04E0     		b	.L67
 882              	.L124:
 883 023e 0023     		movs	r3, #0
 884 0240 02E0     		b	.L67
 885              	.L125:
 886 0242 0023     		movs	r3, #0
ARM GAS  C:\Users\armst\AppData\Local\Temp\ccFg2asa.s 			page 26


 887 0244 00E0     		b	.L67
 888              	.L126:
 889 0246 0123     		movs	r3, #1
 890              	.L67:
 891              	.LVL100:
 892              	.LBE56:
 893              	.LBE55:
 894              		.loc 1 224 0
 895 0248 002B     		cmp	r3, #0
 896 024a 02D0     		beq	.L66
 897              	.LBE54:
 898              	.LBE53:
 899              	.LBE86:
  90:minmea.c      ****     bool optional = false;
 900              		.loc 1 90 0
 901 024c 0020     		movs	r0, #0
 902              	.LVL101:
 903 024e 71E1     		b	.L29
 904              	.LVL102:
 905              	.L123:
 906              	.LBB87:
 907              	.LBB57:
 219:minmea.c      **** 
 908              		.loc 1 219 0
 909 0250 0020     		movs	r0, #0
 910              	.LVL103:
 911              	.L66:
 225:minmea.c      ****                         goto parse_error;
 226:minmea.c      ****                 }
 227:minmea.c      **** 
 228:minmea.c      ****                 *va_arg(ap, int *) = value;
 912              		.loc 1 228 0
 913 0252 059B     		ldr	r3, [sp, #20]
 914 0254 1A1D     		adds	r2, r3, #4
 915 0256 0592     		str	r2, [sp, #20]
 916 0258 1B68     		ldr	r3, [r3]
 917 025a 1860     		str	r0, [r3]
 918              	.LBE57:
 229:minmea.c      ****             } break;
 919              		.loc 1 229 0
 920 025c 2FE1     		b	.L65
 921              	.LVL104:
 922              	.L42:
 923              	.LBB58:
 230:minmea.c      **** 
 231:minmea.c      ****             case 's': { // String value (char *).
 232:minmea.c      ****                 char *buf = va_arg(ap, char *);
 924              		.loc 1 232 0
 925 025e 059B     		ldr	r3, [sp, #20]
 926 0260 1A1D     		adds	r2, r3, #4
 927 0262 0592     		str	r2, [sp, #20]
 928 0264 1968     		ldr	r1, [r3]
 929              	.LVL105:
 233:minmea.c      **** 
 234:minmea.c      ****                 if (field) {
 930              		.loc 1 234 0
 931 0266 002D     		cmp	r5, #0
ARM GAS  C:\Users\armst\AppData\Local\Temp\ccFg2asa.s 			page 27


 932 0268 03D1     		bne	.L69
 933 026a 17E0     		b	.L70
 934              	.L72:
 935              	.LVL106:
 235:minmea.c      ****                     while (minmea_isfield(*field))
 236:minmea.c      ****                         *buf++ = *field++;
 936              		.loc 1 236 0
 937 026c 0135     		adds	r5, r5, #1
 938              	.LVL107:
 939 026e 0A70     		strb	r2, [r1]
 940 0270 0131     		adds	r1, r1, #1
 941              	.LVL108:
 942              	.L69:
 235:minmea.c      ****                     while (minmea_isfield(*field))
 943              		.loc 1 235 0
 944 0272 2A78     		ldrb	r2, [r5]
 945              	.LVL109:
 946              	.LBB59:
 947              	.LBB60:
 948              		.loc 2 287 0
 949 0274 1A4B     		ldr	r3, .L151+4
 950 0276 1B68     		ldr	r3, [r3]
 951 0278 9B18     		adds	r3, r3, r2
 952 027a 5B78     		ldrb	r3, [r3, #1]
 953 027c 6820     		movs	r0, #104
 954 027e 8343     		bics	r3, r0
 955 0280 05D0     		beq	.L127
 956 0282 2C2A     		cmp	r2, #44
 957 0284 05D0     		beq	.L128
 958 0286 2A2A     		cmp	r2, #42
 959 0288 05D1     		bne	.L129
 960 028a 0023     		movs	r3, #0
 961 028c 04E0     		b	.L71
 962              	.L127:
 963 028e 0023     		movs	r3, #0
 964 0290 02E0     		b	.L71
 965              	.L128:
 966 0292 0023     		movs	r3, #0
 967 0294 00E0     		b	.L71
 968              	.L129:
 969 0296 0123     		movs	r3, #1
 970              	.L71:
 971              	.LVL110:
 972              	.LBE60:
 973              	.LBE59:
 235:minmea.c      ****                     while (minmea_isfield(*field))
 974              		.loc 1 235 0
 975 0298 002B     		cmp	r3, #0
 976 029a E7D1     		bne	.L72
 977              	.L70:
 237:minmea.c      ****                 }
 238:minmea.c      **** 
 239:minmea.c      ****                 *buf = '\0';
 978              		.loc 1 239 0
 979 029c 0023     		movs	r3, #0
 980 029e 0B70     		strb	r3, [r1]
 981              	.LBE58:
ARM GAS  C:\Users\armst\AppData\Local\Temp\ccFg2asa.s 			page 28


 240:minmea.c      ****             } break;
 982              		.loc 1 240 0
 983 02a0 0DE1     		b	.L65
 984              	.LVL111:
 985              	.L43:
 986              	.LBB61:
 241:minmea.c      **** 
 242:minmea.c      ****             case 't': { // NMEA talker+sentence identifier (char *).
 243:minmea.c      ****                 // This field is always mandatory.
 244:minmea.c      ****                 if (!field)
 987              		.loc 1 244 0
 988 02a2 002D     		cmp	r5, #0
 989 02a4 00D1     		bne	.LCB1040
 990 02a6 3EE1     		b	.L130	@long jump
 991              	.LCB1040:
 245:minmea.c      ****                     goto parse_error;
 246:minmea.c      **** 
 247:minmea.c      ****                 if (field[0] != '$')
 992              		.loc 1 247 0
 993 02a8 2B78     		ldrb	r3, [r5]
 994 02aa 242B     		cmp	r3, #36
 995 02ac 00D0     		beq	.LCB1043
 996 02ae 3CE1     		b	.L131	@long jump
 997              	.LCB1043:
 998 02b0 0023     		movs	r3, #0
 999 02b2 1DE0     		b	.L73
 1000              	.LVL112:
 1001              	.L75:
 1002              	.LBB62:
 248:minmea.c      ****                     goto parse_error;
 249:minmea.c      ****                 for (int f=0; f<5; f++)
 250:minmea.c      ****                     if (!minmea_isfield(field[1+f]))
 1003              		.loc 1 250 0
 1004 02b4 0133     		adds	r3, r3, #1
 1005              	.LVL113:
 1006 02b6 E95C     		ldrb	r1, [r5, r3]
 1007              	.LVL114:
 1008              	.LBB63:
 1009              	.LBB64:
 1010              		.loc 2 287 0
 1011 02b8 094A     		ldr	r2, .L151+4
 1012 02ba 1268     		ldr	r2, [r2]
 1013 02bc 5218     		adds	r2, r2, r1
 1014 02be 5278     		ldrb	r2, [r2, #1]
 1015 02c0 6820     		movs	r0, #104
 1016 02c2 8243     		bics	r2, r0
 1017 02c4 05D0     		beq	.L132
 1018 02c6 2C29     		cmp	r1, #44
 1019 02c8 05D0     		beq	.L133
 1020 02ca 2A29     		cmp	r1, #42
 1021 02cc 0CD1     		bne	.L134
 1022 02ce 0022     		movs	r2, #0
 1023 02d0 0BE0     		b	.L74
 1024              	.L132:
 1025 02d2 0022     		movs	r2, #0
 1026 02d4 09E0     		b	.L74
 1027              	.L133:
ARM GAS  C:\Users\armst\AppData\Local\Temp\ccFg2asa.s 			page 29


 1028 02d6 0022     		movs	r2, #0
 1029 02d8 07E0     		b	.L74
 1030              	.L152:
 1031 02da C046     		.align	2
 1032              	.L151:
 1033 02dc 00000000 		.word	.L35
 1034 02e0 00000000 		.word	__ctype_ptr__
 1035 02e4 FFFFFF7F 		.word	2147483647
 1036              	.L134:
 1037 02e8 0122     		movs	r2, #1
 1038              	.L74:
 1039              	.LVL115:
 1040              	.LBE64:
 1041              	.LBE63:
 1042              		.loc 1 250 0
 1043 02ea 002A     		cmp	r2, #0
 1044 02ec 00D1     		bne	.LCB1108
 1045 02ee 1EE1     		b	.L135	@long jump
 1046              	.LCB1108:
 1047              	.LVL116:
 1048              	.L73:
 249:minmea.c      ****                     if (!minmea_isfield(field[1+f]))
 1049              		.loc 1 249 0 discriminator 1
 1050 02f0 042B     		cmp	r3, #4
 1051 02f2 DFDD     		ble	.L75
 1052              	.LBE62:
 251:minmea.c      ****                         goto parse_error;
 252:minmea.c      **** 
 253:minmea.c      ****                 char *buf = va_arg(ap, char *);
 1053              		.loc 1 253 0
 1054 02f4 059B     		ldr	r3, [sp, #20]
 1055              	.LVL117:
 1056 02f6 1A1D     		adds	r2, r3, #4
 1057 02f8 0592     		str	r2, [sp, #20]
 1058 02fa 1F68     		ldr	r7, [r3]
 1059              	.LVL118:
 254:minmea.c      ****                 memcpy(buf, field+1, 5);
 1060              		.loc 1 254 0
 1061 02fc 691C     		adds	r1, r5, #1
 1062 02fe 0522     		movs	r2, #5
 1063 0300 3800     		movs	r0, r7
 1064 0302 FFF7FEFF 		bl	memcpy
 1065              	.LVL119:
 255:minmea.c      ****                 buf[5] = '\0';
 1066              		.loc 1 255 0
 1067 0306 0023     		movs	r3, #0
 1068 0308 7B71     		strb	r3, [r7, #5]
 1069              	.LBE61:
 256:minmea.c      ****             } break;
 1070              		.loc 1 256 0
 1071 030a D8E0     		b	.L65
 1072              	.LVL120:
 1073              	.L34:
 1074              	.LBB65:
 257:minmea.c      **** 
 258:minmea.c      ****             case 'D': { // Date (int, int, int), -1 if empty.
 259:minmea.c      ****                 struct minmea_date *date = va_arg(ap, struct minmea_date *);
ARM GAS  C:\Users\armst\AppData\Local\Temp\ccFg2asa.s 			page 30


 1075              		.loc 1 259 0
 1076 030c 059B     		ldr	r3, [sp, #20]
 1077 030e 1A1D     		adds	r2, r3, #4
 1078 0310 0592     		str	r2, [sp, #20]
 1079 0312 1F68     		ldr	r7, [r3]
 1080              	.LVL121:
 260:minmea.c      **** 
 261:minmea.c      ****                 int d = -1, m = -1, y = -1;
 262:minmea.c      **** 
 263:minmea.c      ****                 if (field && minmea_isfield(*field)) {
 1081              		.loc 1 263 0
 1082 0314 002D     		cmp	r5, #0
 1083 0316 49D0     		beq	.L136
 1084              		.loc 1 263 0 is_stmt 0 discriminator 1
 1085 0318 2878     		ldrb	r0, [r5]
 1086              	.LVL122:
 1087              	.LBB66:
 1088              	.LBB67:
 1089              		.loc 2 287 0 is_stmt 1 discriminator 1
 1090 031a 8B4B     		ldr	r3, .L153
 1091 031c 1968     		ldr	r1, [r3]
 1092 031e 0B18     		adds	r3, r1, r0
 1093 0320 5B78     		ldrb	r3, [r3, #1]
 1094 0322 6822     		movs	r2, #104
 1095 0324 9343     		bics	r3, r2
 1096 0326 05D0     		beq	.L137
 1097              		.loc 2 287 0 is_stmt 0
 1098 0328 2C28     		cmp	r0, #44
 1099 032a 05D0     		beq	.L138
 1100 032c 2A28     		cmp	r0, #42
 1101 032e 05D1     		bne	.L139
 1102 0330 0023     		movs	r3, #0
 1103 0332 04E0     		b	.L77
 1104              	.L137:
 1105 0334 0023     		movs	r3, #0
 1106 0336 02E0     		b	.L77
 1107              	.L138:
 1108 0338 0023     		movs	r3, #0
 1109 033a 00E0     		b	.L77
 1110              	.L139:
 1111 033c 0123     		movs	r3, #1
 1112              	.L77:
 1113              	.LVL123:
 1114              	.LBE67:
 1115              	.LBE66:
 1116              		.loc 1 263 0 is_stmt 1
 1117 033e 002B     		cmp	r3, #0
 1118 0340 0BD1     		bne	.L140
 261:minmea.c      **** 
 1119              		.loc 1 261 0
 1120 0342 0120     		movs	r0, #1
 1121 0344 4042     		rsbs	r0, r0, #0
 1122 0346 8246     		mov	r10, r0
 1123 0348 0500     		movs	r5, r0
 1124              	.LVL124:
 1125 034a 33E0     		b	.L76
 1126              	.LVL125:
ARM GAS  C:\Users\armst\AppData\Local\Temp\ccFg2asa.s 			page 31


 1127              	.L80:
 1128              	.LBB68:
 1129              	.LBB69:
 264:minmea.c      ****                     // Always six digits.
 265:minmea.c      ****                     for (int f=0; f<6; f++)
 266:minmea.c      ****                         if (!isdigit((unsigned char) field[f]))
 1130              		.loc 1 266 0
 1131 034c EA5C     		ldrb	r2, [r5, r3]
 1132 034e 8A18     		adds	r2, r1, r2
 1133 0350 5278     		ldrb	r2, [r2, #1]
 1134 0352 5207     		lsls	r2, r2, #29
 1135 0354 28D5     		bpl	.L79
 265:minmea.c      ****                         if (!isdigit((unsigned char) field[f]))
 1136              		.loc 1 265 0 discriminator 2
 1137 0356 0133     		adds	r3, r3, #1
 1138              	.LVL126:
 1139 0358 00E0     		b	.L78
 1140              	.LVL127:
 1141              	.L140:
 1142              	.LBE69:
 1143              	.LBE68:
 1144 035a 0023     		movs	r3, #0
 1145              	.L78:
 1146              	.LVL128:
 1147              	.LBB71:
 1148              	.LBB70:
 265:minmea.c      ****                         if (!isdigit((unsigned char) field[f]))
 1149              		.loc 1 265 0 is_stmt 0 discriminator 1
 1150 035c 052B     		cmp	r3, #5
 1151 035e F5DD     		ble	.L80
 1152              	.LBE70:
 267:minmea.c      ****                             goto parse_error;
 268:minmea.c      **** 
 269:minmea.c      ****                     char dArr[] = {field[0], field[1], '\0'};
 1153              		.loc 1 269 0 is_stmt 1
 1154 0360 02AB     		add	r3, sp, #8
 1155              	.LVL129:
 1156 0362 1870     		strb	r0, [r3]
 1157 0364 6B78     		ldrb	r3, [r5, #1]
 1158 0366 02AA     		add	r2, sp, #8
 1159 0368 5370     		strb	r3, [r2, #1]
 1160 036a 0023     		movs	r3, #0
 1161 036c 9370     		strb	r3, [r2, #2]
 270:minmea.c      ****                     char mArr[] = {field[2], field[3], '\0'};
 1162              		.loc 1 270 0
 1163 036e AA78     		ldrb	r2, [r5, #2]
 1164 0370 02A9     		add	r1, sp, #8
 1165 0372 0A71     		strb	r2, [r1, #4]
 1166 0374 EA78     		ldrb	r2, [r5, #3]
 1167 0376 4A71     		strb	r2, [r1, #5]
 1168 0378 8B71     		strb	r3, [r1, #6]
 271:minmea.c      ****                     char yArr[] = {field[4], field[5], '\0'};
 1169              		.loc 1 271 0
 1170 037a 2A79     		ldrb	r2, [r5, #4]
 1171 037c 0A72     		strb	r2, [r1, #8]
 1172 037e 6A79     		ldrb	r2, [r5, #5]
 1173 0380 4A72     		strb	r2, [r1, #9]
ARM GAS  C:\Users\armst\AppData\Local\Temp\ccFg2asa.s 			page 32


 1174 0382 8B72     		strb	r3, [r1, #10]
 272:minmea.c      ****                     d = strtol(dArr, NULL, 10);
 1175              		.loc 1 272 0
 1176 0384 0A22     		movs	r2, #10
 1177 0386 0021     		movs	r1, #0
 1178 0388 02A8     		add	r0, sp, #8
 1179 038a FFF7FEFF 		bl	strtol
 1180              	.LVL130:
 1181 038e 0500     		movs	r5, r0
 1182              	.LVL131:
 273:minmea.c      ****                     m = strtol(mArr, NULL, 10);
 1183              		.loc 1 273 0
 1184 0390 0A22     		movs	r2, #10
 1185 0392 0021     		movs	r1, #0
 1186 0394 03A8     		add	r0, sp, #12
 1187              	.LVL132:
 1188 0396 FFF7FEFF 		bl	strtol
 1189              	.LVL133:
 1190 039a 8246     		mov	r10, r0
 1191              	.LVL134:
 274:minmea.c      ****                     y = strtol(yArr, NULL, 10);
 1192              		.loc 1 274 0
 1193 039c 0A22     		movs	r2, #10
 1194 039e 0021     		movs	r1, #0
 1195 03a0 04A8     		add	r0, sp, #16
 1196              	.LVL135:
 1197 03a2 FFF7FEFF 		bl	strtol
 1198              	.LVL136:
 1199 03a6 05E0     		b	.L76
 1200              	.LVL137:
 1201              	.L79:
 1202              	.LBE71:
 1203              	.LBE65:
 1204              	.LBE87:
  90:minmea.c      ****     bool optional = false;
 1205              		.loc 1 90 0
 1206 03a8 0020     		movs	r0, #0
 1207 03aa C3E0     		b	.L29
 1208              	.LVL138:
 1209              	.L136:
 1210              	.LBB88:
 1211              	.LBB72:
 261:minmea.c      **** 
 1212              		.loc 1 261 0
 1213 03ac 0120     		movs	r0, #1
 1214 03ae 4042     		rsbs	r0, r0, #0
 1215 03b0 8246     		mov	r10, r0
 1216 03b2 0500     		movs	r5, r0
 1217              	.LVL139:
 1218              	.L76:
 275:minmea.c      ****                 }
 276:minmea.c      **** 
 277:minmea.c      ****                 date->day = d;
 1219              		.loc 1 277 0
 1220 03b4 3D60     		str	r5, [r7]
 278:minmea.c      ****                 date->month = m;
 1221              		.loc 1 278 0
ARM GAS  C:\Users\armst\AppData\Local\Temp\ccFg2asa.s 			page 33


 1222 03b6 5346     		mov	r3, r10
 1223 03b8 7B60     		str	r3, [r7, #4]
 279:minmea.c      ****                 date->year = y;
 1224              		.loc 1 279 0
 1225 03ba B860     		str	r0, [r7, #8]
 1226              	.LBE72:
 280:minmea.c      ****             } break;
 1227              		.loc 1 280 0
 1228 03bc 7FE0     		b	.L65
 1229              	.LVL140:
 1230              	.L36:
 1231              	.LBB73:
 281:minmea.c      **** 
 282:minmea.c      ****             case 'T': { // Time (int, int, int, int), -1 if empty.
 283:minmea.c      ****                 struct minmea_time *time_ = va_arg(ap, struct minmea_time *);
 1232              		.loc 1 283 0
 1233 03be 059B     		ldr	r3, [sp, #20]
 1234 03c0 1A1D     		adds	r2, r3, #4
 1235 03c2 0592     		str	r2, [sp, #20]
 1236 03c4 1B68     		ldr	r3, [r3]
 1237 03c6 9946     		mov	r9, r3
 1238              	.LVL141:
 284:minmea.c      **** 
 285:minmea.c      ****                 int h = -1, i = -1, s = -1, u = -1;
 286:minmea.c      **** 
 287:minmea.c      ****                 if (field && minmea_isfield(*field)) {
 1239              		.loc 1 287 0
 1240 03c8 002D     		cmp	r5, #0
 1241 03ca 69D0     		beq	.L141
 1242              		.loc 1 287 0 is_stmt 0 discriminator 1
 1243 03cc 2878     		ldrb	r0, [r5]
 1244              	.LVL142:
 1245              	.LBB74:
 1246              	.LBB75:
 1247              		.loc 2 287 0 is_stmt 1 discriminator 1
 1248 03ce 5E4B     		ldr	r3, .L153
 1249              	.LVL143:
 1250 03d0 1968     		ldr	r1, [r3]
 1251 03d2 0B18     		adds	r3, r1, r0
 1252 03d4 5B78     		ldrb	r3, [r3, #1]
 1253 03d6 6822     		movs	r2, #104
 1254 03d8 9343     		bics	r3, r2
 1255 03da 05D0     		beq	.L142
 1256              		.loc 2 287 0 is_stmt 0
 1257 03dc 2C28     		cmp	r0, #44
 1258 03de 05D0     		beq	.L143
 1259 03e0 2A28     		cmp	r0, #42
 1260 03e2 05D1     		bne	.L144
 1261 03e4 0023     		movs	r3, #0
 1262 03e6 04E0     		b	.L82
 1263              	.L142:
 1264 03e8 0023     		movs	r3, #0
 1265 03ea 02E0     		b	.L82
 1266              	.L143:
 1267 03ec 0023     		movs	r3, #0
 1268 03ee 00E0     		b	.L82
 1269              	.L144:
ARM GAS  C:\Users\armst\AppData\Local\Temp\ccFg2asa.s 			page 34


 1270 03f0 0123     		movs	r3, #1
 1271              	.L82:
 1272              	.LVL144:
 1273              	.LBE75:
 1274              	.LBE74:
 1275              		.loc 1 287 0 is_stmt 1
 1276 03f2 002B     		cmp	r3, #0
 1277 03f4 0CD1     		bne	.L145
 285:minmea.c      **** 
 1278              		.loc 1 285 0
 1279 03f6 0120     		movs	r0, #1
 1280 03f8 4042     		rsbs	r0, r0, #0
 1281 03fa 0190     		str	r0, [sp, #4]
 1282 03fc 8246     		mov	r10, r0
 1283 03fe 8346     		mov	fp, r0
 1284 0400 53E0     		b	.L81
 1285              	.LVL145:
 1286              	.L85:
 1287              	.LBB76:
 1288              	.LBB77:
 288:minmea.c      ****                     // Minimum required: integer time.
 289:minmea.c      ****                     for (int f=0; f<6; f++)
 290:minmea.c      ****                         if (!isdigit((unsigned char) field[f]))
 1289              		.loc 1 290 0
 1290 0402 EA5C     		ldrb	r2, [r5, r3]
 1291 0404 8A18     		adds	r2, r1, r2
 1292 0406 5278     		ldrb	r2, [r2, #1]
 1293 0408 5207     		lsls	r2, r2, #29
 1294 040a 47D5     		bpl	.L84
 289:minmea.c      ****                         if (!isdigit((unsigned char) field[f]))
 1295              		.loc 1 289 0 discriminator 2
 1296 040c 0133     		adds	r3, r3, #1
 1297              	.LVL146:
 1298 040e 00E0     		b	.L83
 1299              	.LVL147:
 1300              	.L145:
 1301              	.LBE77:
 1302              	.LBE76:
 1303 0410 0023     		movs	r3, #0
 1304              	.L83:
 1305              	.LVL148:
 1306              	.LBB81:
 1307              	.LBB78:
 289:minmea.c      ****                         if (!isdigit((unsigned char) field[f]))
 1308              		.loc 1 289 0 is_stmt 0 discriminator 1
 1309 0412 052B     		cmp	r3, #5
 1310 0414 F5DD     		ble	.L85
 1311              	.LBE78:
 291:minmea.c      ****                             goto parse_error;
 292:minmea.c      **** 
 293:minmea.c      ****                     char hArr[] = {field[0], field[1], '\0'};
 1312              		.loc 1 293 0 is_stmt 1
 1313 0416 02AB     		add	r3, sp, #8
 1314              	.LVL149:
 1315 0418 1870     		strb	r0, [r3]
 1316 041a 6B78     		ldrb	r3, [r5, #1]
 1317 041c 02AA     		add	r2, sp, #8
ARM GAS  C:\Users\armst\AppData\Local\Temp\ccFg2asa.s 			page 35


 1318 041e 5370     		strb	r3, [r2, #1]
 1319 0420 0023     		movs	r3, #0
 1320 0422 9370     		strb	r3, [r2, #2]
 294:minmea.c      ****                     char iArr[] = {field[2], field[3], '\0'};
 1321              		.loc 1 294 0
 1322 0424 AA78     		ldrb	r2, [r5, #2]
 1323 0426 02A9     		add	r1, sp, #8
 1324 0428 0A71     		strb	r2, [r1, #4]
 1325 042a EA78     		ldrb	r2, [r5, #3]
 1326 042c 4A71     		strb	r2, [r1, #5]
 1327 042e 8B71     		strb	r3, [r1, #6]
 295:minmea.c      ****                     char sArr[] = {field[4], field[5], '\0'};
 1328              		.loc 1 295 0
 1329 0430 04AF     		add	r7, sp, #16
 1330 0432 2A79     		ldrb	r2, [r5, #4]
 1331 0434 3A70     		strb	r2, [r7]
 1332 0436 6A79     		ldrb	r2, [r5, #5]
 1333 0438 7A70     		strb	r2, [r7, #1]
 1334 043a BB70     		strb	r3, [r7, #2]
 296:minmea.c      ****                     h = strtol(hArr, NULL, 10);
 1335              		.loc 1 296 0
 1336 043c 0A22     		movs	r2, #10
 1337 043e 0021     		movs	r1, #0
 1338 0440 02A8     		add	r0, sp, #8
 1339 0442 FFF7FEFF 		bl	strtol
 1340              	.LVL150:
 1341 0446 8346     		mov	fp, r0
 1342              	.LVL151:
 297:minmea.c      ****                     i = strtol(iArr, NULL, 10);
 1343              		.loc 1 297 0
 1344 0448 0A22     		movs	r2, #10
 1345 044a 0021     		movs	r1, #0
 1346 044c 03A8     		add	r0, sp, #12
 1347              	.LVL152:
 1348 044e FFF7FEFF 		bl	strtol
 1349              	.LVL153:
 1350 0452 8246     		mov	r10, r0
 1351              	.LVL154:
 298:minmea.c      ****                     s = strtol(sArr, NULL, 10);
 1352              		.loc 1 298 0
 1353 0454 0A22     		movs	r2, #10
 1354 0456 0021     		movs	r1, #0
 1355 0458 3800     		movs	r0, r7
 1356              	.LVL155:
 1357 045a FFF7FEFF 		bl	strtol
 1358              	.LVL156:
 1359 045e 0190     		str	r0, [sp, #4]
 1360              	.LVL157:
 299:minmea.c      ****                     field += 6;
 300:minmea.c      **** 
 301:minmea.c      ****                     // Extra: fractional time. Saved as microseconds.
 302:minmea.c      ****                     if (*field++ == '.') {
 1361              		.loc 1 302 0
 1362 0460 EF1D     		adds	r7, r5, #7
 1363              	.LVL158:
 1364 0462 AB79     		ldrb	r3, [r5, #6]
 1365 0464 2E2B     		cmp	r3, #46
ARM GAS  C:\Users\armst\AppData\Local\Temp\ccFg2asa.s 			page 36


 1366 0466 0CD0     		beq	.L146
 303:minmea.c      ****                         uint32_t value = 0;
 304:minmea.c      ****                         uint32_t scale = 1000000LU;
 305:minmea.c      ****                         while (isdigit((unsigned char) *field) && scale > 1) {
 306:minmea.c      ****                             value = (value * 10) + (*field++ - '0');
 307:minmea.c      ****                             scale /= 10;
 308:minmea.c      ****                         }
 309:minmea.c      ****                         u = value * scale;
 310:minmea.c      ****                     } else {
 311:minmea.c      ****                         u = 0;
 1367              		.loc 1 311 0
 1368 0468 0020     		movs	r0, #0
 1369              	.LVL159:
 1370 046a 1EE0     		b	.L81
 1371              	.LVL160:
 1372              	.L89:
 1373              	.LBB79:
 306:minmea.c      ****                             scale /= 10;
 1374              		.loc 1 306 0
 1375 046c AA00     		lsls	r2, r5, #2
 1376 046e 5219     		adds	r2, r2, r5
 1377 0470 5300     		lsls	r3, r2, #1
 1378 0472 0137     		adds	r7, r7, #1
 1379              	.LVL161:
 1380 0474 CB18     		adds	r3, r1, r3
 1381 0476 303B     		subs	r3, r3, #48
 1382 0478 1D00     		movs	r5, r3
 1383              	.LVL162:
 307:minmea.c      ****                         }
 1384              		.loc 1 307 0
 1385 047a 0A21     		movs	r1, #10
 1386 047c FFF7FEFF 		bl	__aeabi_uidiv
 1387              	.LVL163:
 1388 0480 01E0     		b	.L86
 1389              	.LVL164:
 1390              	.L146:
 1391              	.LBE79:
 1392 0482 3248     		ldr	r0, .L153+4
 1393              	.LVL165:
 1394 0484 0025     		movs	r5, #0
 1395              	.L86:
 1396              	.LVL166:
 1397              	.LBB80:
 305:minmea.c      ****                             value = (value * 10) + (*field++ - '0');
 1398              		.loc 1 305 0
 1399 0486 3978     		ldrb	r1, [r7]
 1400 0488 2F4B     		ldr	r3, .L153
 1401 048a 1B68     		ldr	r3, [r3]
 1402 048c 5B18     		adds	r3, r3, r1
 1403 048e 5B78     		ldrb	r3, [r3, #1]
 1404 0490 5B07     		lsls	r3, r3, #29
 1405 0492 01D5     		bpl	.L88
 305:minmea.c      ****                             value = (value * 10) + (*field++ - '0');
 1406              		.loc 1 305 0 is_stmt 0 discriminator 1
 1407 0494 0128     		cmp	r0, #1
 1408 0496 E9D8     		bhi	.L89
 1409              	.L88:
ARM GAS  C:\Users\armst\AppData\Local\Temp\ccFg2asa.s 			page 37


 309:minmea.c      ****                     } else {
 1410              		.loc 1 309 0 is_stmt 1
 1411 0498 6843     		muls	r0, r5
 1412              	.LVL167:
 1413              	.LBE80:
 1414 049a 06E0     		b	.L81
 1415              	.LVL168:
 1416              	.L84:
 1417              	.LBE81:
 1418              	.LBE73:
 1419              	.LBE88:
  90:minmea.c      ****     bool optional = false;
 1420              		.loc 1 90 0
 1421 049c 0020     		movs	r0, #0
 1422 049e 49E0     		b	.L29
 1423              	.LVL169:
 1424              	.L141:
 1425              	.LBB89:
 1426              	.LBB82:
 285:minmea.c      **** 
 1427              		.loc 1 285 0
 1428 04a0 0120     		movs	r0, #1
 1429 04a2 4042     		rsbs	r0, r0, #0
 1430 04a4 0190     		str	r0, [sp, #4]
 1431 04a6 8246     		mov	r10, r0
 1432 04a8 8346     		mov	fp, r0
 1433              	.LVL170:
 1434              	.L81:
 312:minmea.c      ****                     }
 313:minmea.c      ****                 }
 314:minmea.c      **** 
 315:minmea.c      ****                 time_->hours = h;
 1435              		.loc 1 315 0
 1436 04aa 4B46     		mov	r3, r9
 1437 04ac 5A46     		mov	r2, fp
 1438 04ae 1A60     		str	r2, [r3]
 316:minmea.c      ****                 time_->minutes = i;
 1439              		.loc 1 316 0
 1440 04b0 5246     		mov	r2, r10
 1441 04b2 5A60     		str	r2, [r3, #4]
 317:minmea.c      ****                 time_->seconds = s;
 1442              		.loc 1 317 0
 1443 04b4 019A     		ldr	r2, [sp, #4]
 1444 04b6 9A60     		str	r2, [r3, #8]
 318:minmea.c      ****                 time_->microseconds = u;
 1445              		.loc 1 318 0
 1446 04b8 D860     		str	r0, [r3, #12]
 1447              	.LBE82:
 319:minmea.c      ****             } break;
 1448              		.loc 1 319 0
 1449 04ba 00E0     		b	.L65
 1450              	.LVL171:
 1451              	.L91:
 320:minmea.c      **** 
 321:minmea.c      ****             case '_': { // Ignore the field.
 322:minmea.c      ****             } break;
 323:minmea.c      **** 
ARM GAS  C:\Users\armst\AppData\Local\Temp\ccFg2asa.s 			page 38


 324:minmea.c      ****             default: { // Unknown.
 325:minmea.c      ****                 goto parse_error;
 326:minmea.c      ****             }
 327:minmea.c      ****         }
 328:minmea.c      **** 
 329:minmea.c      ****         next_field();
 1452              		.loc 1 329 0 discriminator 2
 1453 04bc 0134     		adds	r4, r4, #1
 1454              	.LVL172:
 1455              	.L65:
 1456              		.loc 1 329 0 is_stmt 0 discriminator 1
 1457 04be 2278     		ldrb	r2, [r4]
 1458              	.LVL173:
 1459              	.LBB83:
 1460              	.LBB84:
 1461              		.loc 2 287 0 is_stmt 1 discriminator 1
 1462 04c0 214B     		ldr	r3, .L153
 1463 04c2 1B68     		ldr	r3, [r3]
 1464 04c4 9B18     		adds	r3, r3, r2
 1465 04c6 5B78     		ldrb	r3, [r3, #1]
 1466 04c8 6821     		movs	r1, #104
 1467 04ca 8B43     		bics	r3, r1
 1468 04cc 05D0     		beq	.L147
 1469              		.loc 2 287 0 is_stmt 0
 1470 04ce 2C2A     		cmp	r2, #44
 1471 04d0 05D0     		beq	.L148
 1472 04d2 2A2A     		cmp	r2, #42
 1473 04d4 05D1     		bne	.L149
 1474 04d6 0023     		movs	r3, #0
 1475 04d8 04E0     		b	.L90
 1476              	.L147:
 1477 04da 0023     		movs	r3, #0
 1478 04dc 02E0     		b	.L90
 1479              	.L148:
 1480 04de 0023     		movs	r3, #0
 1481 04e0 00E0     		b	.L90
 1482              	.L149:
 1483 04e2 0123     		movs	r3, #1
 1484              	.L90:
 1485              	.LVL174:
 1486              	.LBE84:
 1487              	.LBE83:
 1488              		.loc 1 329 0 is_stmt 1
 1489 04e4 002B     		cmp	r3, #0
 1490 04e6 E9D1     		bne	.L91
 1491              		.loc 1 329 0 is_stmt 0 discriminator 3
 1492 04e8 2C2A     		cmp	r2, #44
 1493 04ea 05D1     		bne	.L150
 1494              		.loc 1 329 0 discriminator 4
 1495 04ec 0134     		adds	r4, r4, #1
 1496              	.LVL175:
 1497 04ee 2500     		movs	r5, r4
 1498 04f0 03E0     		b	.L30
 1499              	.LVL176:
 1500              	.L94:
 119:minmea.c      ****             continue;
 1501              		.loc 1 119 0 is_stmt 1
ARM GAS  C:\Users\armst\AppData\Local\Temp\ccFg2asa.s 			page 39


 1502 04f2 0123     		movs	r3, #1
 1503              	.LVL177:
 1504 04f4 9846     		mov	r8, r3
 1505              	.LVL178:
 1506 04f6 00E0     		b	.L30
 1507              	.LVL179:
 1508              	.L150:
 1509              		.loc 1 329 0
 1510 04f8 0025     		movs	r5, #0
 1511              	.LVL180:
 1512              	.L30:
 1513              	.LBE89:
 114:minmea.c      ****         char type = *format++;
 1514              		.loc 1 114 0
 1515 04fa 3378     		ldrb	r3, [r6]
 1516 04fc 002B     		cmp	r3, #0
 1517 04fe 00D0     		beq	.LCB1709
 1518 0500 90E5     		b	.L92	@long jump
 1519              	.LCB1709:
 330:minmea.c      ****     }
 331:minmea.c      **** 
 332:minmea.c      ****     result = true;
 1520              		.loc 1 332 0
 1521 0502 0120     		movs	r0, #1
 1522 0504 16E0     		b	.L29
 1523              	.LVL181:
 1524              	.L95:
  90:minmea.c      ****     bool optional = false;
 1525              		.loc 1 90 0
 1526 0506 0020     		movs	r0, #0
 1527 0508 14E0     		b	.L29
 1528              	.LVL182:
 1529              	.L96:
 1530 050a 0020     		movs	r0, #0
 1531 050c 12E0     		b	.L29
 1532              	.LVL183:
 1533              	.L106:
 1534 050e 0020     		movs	r0, #0
 1535 0510 10E0     		b	.L29
 1536              	.LVL184:
 1537              	.L113:
 1538 0512 0020     		movs	r0, #0
 1539 0514 0EE0     		b	.L29
 1540              	.LVL185:
 1541              	.L114:
 1542 0516 0020     		movs	r0, #0
 1543 0518 0CE0     		b	.L29
 1544              	.LVL186:
 1545              	.L115:
 1546 051a 0020     		movs	r0, #0
 1547 051c 0AE0     		b	.L29
 1548              	.LVL187:
 1549              	.L116:
 1550 051e 0020     		movs	r0, #0
 1551 0520 08E0     		b	.L29
 1552              	.LVL188:
 1553              	.L120:
ARM GAS  C:\Users\armst\AppData\Local\Temp\ccFg2asa.s 			page 40


 1554 0522 0020     		movs	r0, #0
 1555 0524 06E0     		b	.L29
 1556              	.LVL189:
 1557              	.L130:
 1558 0526 0020     		movs	r0, #0
 1559 0528 04E0     		b	.L29
 1560              	.L131:
 1561 052a 0020     		movs	r0, #0
 1562 052c 02E0     		b	.L29
 1563              	.LVL190:
 1564              	.L135:
 1565 052e 0020     		movs	r0, #0
 1566              	.L33:
 1567              	.LVL191:
 333:minmea.c      **** 
 334:minmea.c      **** parse_error:
 335:minmea.c      ****     va_end(ap);
 336:minmea.c      ****     return result;
 1568              		.loc 1 336 0
 1569 0530 00E0     		b	.L29
 1570              	.LVL192:
 1571              	.L93:
  94:minmea.c      **** 
 1572              		.loc 1 94 0
 1573 0532 0020     		movs	r0, #0
 1574              	.LVL193:
 1575              	.L29:
 337:minmea.c      **** }
 1576              		.loc 1 337 0
 1577 0534 06B0     		add	sp, sp, #24
 1578              		@ sp needed
 1579              	.LVL194:
 1580 0536 3CBC     		pop	{r2, r3, r4, r5}
 1581 0538 9046     		mov	r8, r2
 1582 053a 9946     		mov	r9, r3
 1583 053c A246     		mov	r10, r4
 1584 053e AB46     		mov	fp, r5
 1585 0540 F0BC     		pop	{r4, r5, r6, r7}
 1586 0542 08BC     		pop	{r3}
 1587 0544 03B0     		add	sp, sp, #12
 1588 0546 1847     		bx	r3
 1589              	.L154:
 1590              		.align	2
 1591              	.L153:
 1592 0548 00000000 		.word	__ctype_ptr__
 1593 054c 40420F00 		.word	1000000
 1594              		.cfi_endproc
 1595              	.LFE7:
 1596              		.size	minmea_scan, .-minmea_scan
 1597              		.section	.text.minmea_talker_id,"ax",%progbits
 1598              		.align	2
 1599              		.global	minmea_talker_id
 1600              		.code	16
 1601              		.thumb_func
 1602              		.type	minmea_talker_id, %function
 1603              	minmea_talker_id:
 1604              	.LFB8:
ARM GAS  C:\Users\armst\AppData\Local\Temp\ccFg2asa.s 			page 41


 338:minmea.c      **** 
 339:minmea.c      **** bool minmea_talker_id(char talker[3], const char *sentence)
 340:minmea.c      **** {
 1605              		.loc 1 340 0
 1606              		.cfi_startproc
 1607              		@ args = 0, pretend = 0, frame = 8
 1608              		@ frame_needed = 0, uses_anonymous_args = 0
 1609              	.LVL195:
 1610 0000 10B5     		push	{r4, lr}
 1611              		.cfi_def_cfa_offset 8
 1612              		.cfi_offset 4, -8
 1613              		.cfi_offset 14, -4
 1614 0002 82B0     		sub	sp, sp, #8
 1615              		.cfi_def_cfa_offset 16
 1616 0004 0400     		movs	r4, r0
 1617 0006 0800     		movs	r0, r1
 1618              	.LVL196:
 341:minmea.c      ****     char type[6];
 342:minmea.c      ****     if (!minmea_scan(sentence, "t", type))
 1619              		.loc 1 342 0
 1620 0008 6A46     		mov	r2, sp
 1621 000a 0749     		ldr	r1, .L157
 1622              	.LVL197:
 1623 000c FFF7FEFF 		bl	minmea_scan
 1624              	.LVL198:
 1625 0010 0028     		cmp	r0, #0
 1626 0012 07D0     		beq	.L156
 343:minmea.c      ****         return false;
 344:minmea.c      **** 
 345:minmea.c      ****     talker[0] = type[0];
 1627              		.loc 1 345 0
 1628 0014 6B46     		mov	r3, sp
 1629 0016 1B78     		ldrb	r3, [r3]
 1630 0018 2370     		strb	r3, [r4]
 346:minmea.c      ****     talker[1] = type[1];
 1631              		.loc 1 346 0
 1632 001a 6B46     		mov	r3, sp
 1633 001c 5B78     		ldrb	r3, [r3, #1]
 1634 001e 6370     		strb	r3, [r4, #1]
 347:minmea.c      ****     talker[2] = '\0';
 1635              		.loc 1 347 0
 1636 0020 0023     		movs	r3, #0
 1637 0022 A370     		strb	r3, [r4, #2]
 1638              	.L156:
 348:minmea.c      **** 
 349:minmea.c      ****     return true;
 350:minmea.c      **** }
 1639              		.loc 1 350 0
 1640 0024 02B0     		add	sp, sp, #8
 1641              		@ sp needed
 1642              	.LVL199:
 1643 0026 10BD     		pop	{r4, pc}
 1644              	.L158:
 1645              		.align	2
 1646              	.L157:
 1647 0028 00000000 		.word	.LC3
 1648              		.cfi_endproc
ARM GAS  C:\Users\armst\AppData\Local\Temp\ccFg2asa.s 			page 42


 1649              	.LFE8:
 1650              		.size	minmea_talker_id, .-minmea_talker_id
 1651              		.section	.text.minmea_sentence_id,"ax",%progbits
 1652              		.align	2
 1653              		.global	minmea_sentence_id
 1654              		.code	16
 1655              		.thumb_func
 1656              		.type	minmea_sentence_id, %function
 1657              	minmea_sentence_id:
 1658              	.LFB9:
 351:minmea.c      **** 
 352:minmea.c      **** enum minmea_sentence_id minmea_sentence_id(const char *sentence, bool strict)
 353:minmea.c      **** {
 1659              		.loc 1 353 0
 1660              		.cfi_startproc
 1661              		@ args = 0, pretend = 0, frame = 8
 1662              		@ frame_needed = 0, uses_anonymous_args = 0
 1663              	.LVL200:
 1664 0000 10B5     		push	{r4, lr}
 1665              		.cfi_def_cfa_offset 8
 1666              		.cfi_offset 4, -8
 1667              		.cfi_offset 14, -4
 1668 0002 82B0     		sub	sp, sp, #8
 1669              		.cfi_def_cfa_offset 16
 1670 0004 0400     		movs	r4, r0
 354:minmea.c      ****     if (!minmea_check(sentence, strict))
 1671              		.loc 1 354 0
 1672 0006 FFF7FEFF 		bl	minmea_check
 1673              	.LVL201:
 1674 000a 0028     		cmp	r0, #0
 1675 000c 47D0     		beq	.L161
 355:minmea.c      ****         return MINMEA_INVALID;
 356:minmea.c      **** 
 357:minmea.c      ****     char type[6];
 358:minmea.c      ****     if (!minmea_scan(sentence, "t", type))
 1676              		.loc 1 358 0
 1677 000e 6A46     		mov	r2, sp
 1678 0010 2F49     		ldr	r1, .L172
 1679 0012 2000     		movs	r0, r4
 1680 0014 FFF7FEFF 		bl	minmea_scan
 1681              	.LVL202:
 1682 0018 0028     		cmp	r0, #0
 1683 001a 43D0     		beq	.L162
 359:minmea.c      ****         return MINMEA_INVALID;
 360:minmea.c      **** 
 361:minmea.c      ****     if (!strcmp(type+2, "GBS"))
 1684              		.loc 1 361 0
 1685 001c 2D49     		ldr	r1, .L172+4
 1686 001e 6B46     		mov	r3, sp
 1687 0020 981C     		adds	r0, r3, #2
 1688 0022 FFF7FEFF 		bl	strcmp
 1689              	.LVL203:
 1690 0026 0028     		cmp	r0, #0
 1691 0028 3FD0     		beq	.L163
 362:minmea.c      ****         return MINMEA_SENTENCE_GBS;
 363:minmea.c      ****     if (!strcmp(type+2, "GGA"))
 1692              		.loc 1 363 0
ARM GAS  C:\Users\armst\AppData\Local\Temp\ccFg2asa.s 			page 43


 1693 002a 2B49     		ldr	r1, .L172+8
 1694 002c 6B46     		mov	r3, sp
 1695 002e 981C     		adds	r0, r3, #2
 1696 0030 FFF7FEFF 		bl	strcmp
 1697              	.LVL204:
 1698 0034 0028     		cmp	r0, #0
 1699 0036 3AD0     		beq	.L164
 364:minmea.c      ****         return MINMEA_SENTENCE_GGA;
 365:minmea.c      ****     if (!strcmp(type+2, "GLL"))
 1700              		.loc 1 365 0
 1701 0038 2849     		ldr	r1, .L172+12
 1702 003a 6B46     		mov	r3, sp
 1703 003c 981C     		adds	r0, r3, #2
 1704 003e FFF7FEFF 		bl	strcmp
 1705              	.LVL205:
 1706 0042 0028     		cmp	r0, #0
 1707 0044 35D0     		beq	.L165
 366:minmea.c      ****         return MINMEA_SENTENCE_GLL;
 367:minmea.c      ****     if (!strcmp(type+2, "GSA"))
 1708              		.loc 1 367 0
 1709 0046 2649     		ldr	r1, .L172+16
 1710 0048 6B46     		mov	r3, sp
 1711 004a 981C     		adds	r0, r3, #2
 1712 004c FFF7FEFF 		bl	strcmp
 1713              	.LVL206:
 1714 0050 0028     		cmp	r0, #0
 1715 0052 30D0     		beq	.L166
 368:minmea.c      ****         return MINMEA_SENTENCE_GSA;
 369:minmea.c      ****     if (!strcmp(type+2, "GST"))
 1716              		.loc 1 369 0
 1717 0054 2349     		ldr	r1, .L172+20
 1718 0056 6B46     		mov	r3, sp
 1719 0058 981C     		adds	r0, r3, #2
 1720 005a FFF7FEFF 		bl	strcmp
 1721              	.LVL207:
 1722 005e 0028     		cmp	r0, #0
 1723 0060 2BD0     		beq	.L167
 370:minmea.c      ****         return MINMEA_SENTENCE_GST;
 371:minmea.c      ****     if (!strcmp(type+2, "GSV"))
 1724              		.loc 1 371 0
 1725 0062 2149     		ldr	r1, .L172+24
 1726 0064 6B46     		mov	r3, sp
 1727 0066 981C     		adds	r0, r3, #2
 1728 0068 FFF7FEFF 		bl	strcmp
 1729              	.LVL208:
 1730 006c 0028     		cmp	r0, #0
 1731 006e 26D0     		beq	.L168
 372:minmea.c      ****         return MINMEA_SENTENCE_GSV;
 373:minmea.c      ****     if (!strcmp(type+2, "RMC"))
 1732              		.loc 1 373 0
 1733 0070 1E49     		ldr	r1, .L172+28
 1734 0072 6B46     		mov	r3, sp
 1735 0074 981C     		adds	r0, r3, #2
 1736 0076 FFF7FEFF 		bl	strcmp
 1737              	.LVL209:
 1738 007a 0028     		cmp	r0, #0
 1739 007c 21D0     		beq	.L169
ARM GAS  C:\Users\armst\AppData\Local\Temp\ccFg2asa.s 			page 44


 374:minmea.c      ****         return MINMEA_SENTENCE_RMC;
 375:minmea.c      ****     if (!strcmp(type+2, "VTG"))
 1740              		.loc 1 375 0
 1741 007e 1C49     		ldr	r1, .L172+32
 1742 0080 6B46     		mov	r3, sp
 1743 0082 981C     		adds	r0, r3, #2
 1744 0084 FFF7FEFF 		bl	strcmp
 1745              	.LVL210:
 1746 0088 0028     		cmp	r0, #0
 1747 008a 1CD0     		beq	.L170
 376:minmea.c      ****         return MINMEA_SENTENCE_VTG;
 377:minmea.c      ****     if (!strcmp(type+2, "ZDA"))
 1748              		.loc 1 377 0
 1749 008c 1949     		ldr	r1, .L172+36
 1750 008e 6B46     		mov	r3, sp
 1751 0090 981C     		adds	r0, r3, #2
 1752 0092 FFF7FEFF 		bl	strcmp
 1753              	.LVL211:
 1754 0096 0028     		cmp	r0, #0
 1755 0098 17D1     		bne	.L171
 378:minmea.c      ****         return MINMEA_SENTENCE_ZDA;
 1756              		.loc 1 378 0
 1757 009a 0930     		adds	r0, r0, #9
 1758 009c 16E0     		b	.L160
 1759              	.L161:
 355:minmea.c      **** 
 1760              		.loc 1 355 0
 1761 009e 0120     		movs	r0, #1
 1762 00a0 4042     		rsbs	r0, r0, #0
 1763 00a2 13E0     		b	.L160
 1764              	.L162:
 359:minmea.c      **** 
 1765              		.loc 1 359 0
 1766 00a4 0120     		movs	r0, #1
 1767 00a6 4042     		rsbs	r0, r0, #0
 1768 00a8 10E0     		b	.L160
 1769              	.L163:
 362:minmea.c      ****     if (!strcmp(type+2, "GGA"))
 1770              		.loc 1 362 0
 1771 00aa 0120     		movs	r0, #1
 1772 00ac 0EE0     		b	.L160
 1773              	.L164:
 364:minmea.c      ****     if (!strcmp(type+2, "GLL"))
 1774              		.loc 1 364 0
 1775 00ae 0220     		movs	r0, #2
 1776 00b0 0CE0     		b	.L160
 1777              	.L165:
 366:minmea.c      ****     if (!strcmp(type+2, "GSA"))
 1778              		.loc 1 366 0
 1779 00b2 0320     		movs	r0, #3
 1780 00b4 0AE0     		b	.L160
 1781              	.L166:
 368:minmea.c      ****     if (!strcmp(type+2, "GST"))
 1782              		.loc 1 368 0
 1783 00b6 0420     		movs	r0, #4
 1784 00b8 08E0     		b	.L160
 1785              	.L167:
ARM GAS  C:\Users\armst\AppData\Local\Temp\ccFg2asa.s 			page 45


 370:minmea.c      ****     if (!strcmp(type+2, "GSV"))
 1786              		.loc 1 370 0
 1787 00ba 0520     		movs	r0, #5
 1788 00bc 06E0     		b	.L160
 1789              	.L168:
 372:minmea.c      ****     if (!strcmp(type+2, "RMC"))
 1790              		.loc 1 372 0
 1791 00be 0620     		movs	r0, #6
 1792 00c0 04E0     		b	.L160
 1793              	.L169:
 374:minmea.c      ****     if (!strcmp(type+2, "VTG"))
 1794              		.loc 1 374 0
 1795 00c2 0720     		movs	r0, #7
 1796 00c4 02E0     		b	.L160
 1797              	.L170:
 376:minmea.c      ****     if (!strcmp(type+2, "ZDA"))
 1798              		.loc 1 376 0
 1799 00c6 0820     		movs	r0, #8
 1800 00c8 00E0     		b	.L160
 1801              	.L171:
 379:minmea.c      **** 
 380:minmea.c      ****     return MINMEA_UNKNOWN;
 1802              		.loc 1 380 0
 1803 00ca 0020     		movs	r0, #0
 1804              	.L160:
 381:minmea.c      **** }
 1805              		.loc 1 381 0
 1806 00cc 02B0     		add	sp, sp, #8
 1807              		@ sp needed
 1808              	.LVL212:
 1809 00ce 10BD     		pop	{r4, pc}
 1810              	.L173:
 1811              		.align	2
 1812              	.L172:
 1813 00d0 00000000 		.word	.LC3
 1814 00d4 04000000 		.word	.LC6
 1815 00d8 08000000 		.word	.LC8
 1816 00dc 0C000000 		.word	.LC10
 1817 00e0 10000000 		.word	.LC12
 1818 00e4 14000000 		.word	.LC14
 1819 00e8 18000000 		.word	.LC16
 1820 00ec 1C000000 		.word	.LC18
 1821 00f0 20000000 		.word	.LC20
 1822 00f4 24000000 		.word	.LC22
 1823              		.cfi_endproc
 1824              	.LFE9:
 1825              		.size	minmea_sentence_id, .-minmea_sentence_id
 1826              		.section	.text.minmea_parse_gbs,"ax",%progbits
 1827              		.align	2
 1828              		.global	minmea_parse_gbs
 1829              		.code	16
 1830              		.thumb_func
 1831              		.type	minmea_parse_gbs, %function
 1832              	minmea_parse_gbs:
 1833              	.LFB10:
 382:minmea.c      **** 
 383:minmea.c      **** bool minmea_parse_gbs(struct minmea_sentence_gbs *frame, const char *sentence)
ARM GAS  C:\Users\armst\AppData\Local\Temp\ccFg2asa.s 			page 46


 384:minmea.c      **** {
 1834              		.loc 1 384 0
 1835              		.cfi_startproc
 1836              		@ args = 0, pretend = 0, frame = 8
 1837              		@ frame_needed = 0, uses_anonymous_args = 0
 1838              	.LVL213:
 1839 0000 10B5     		push	{r4, lr}
 1840              		.cfi_def_cfa_offset 8
 1841              		.cfi_offset 4, -8
 1842              		.cfi_offset 14, -4
 1843 0002 8AB0     		sub	sp, sp, #40
 1844              		.cfi_def_cfa_offset 48
 1845 0004 0300     		movs	r3, r0
 1846 0006 0800     		movs	r0, r1
 1847              	.LVL214:
 385:minmea.c      ****     // $GNGBS,170556.00,3.0,2.9,8.3,,,,*5C
 386:minmea.c      ****     char type[6];
 387:minmea.c      ****     if (!minmea_scan(sentence, "tTfffifff",
 1848              		.loc 1 387 0
 1849 0008 1A00     		movs	r2, r3
 1850 000a 3C32     		adds	r2, r2, #60
 1851 000c 0692     		str	r2, [sp, #24]
 1852 000e 083A     		subs	r2, r2, #8
 1853 0010 0592     		str	r2, [sp, #20]
 1854 0012 083A     		subs	r2, r2, #8
 1855 0014 0492     		str	r2, [sp, #16]
 1856 0016 043A     		subs	r2, r2, #4
 1857 0018 0392     		str	r2, [sp, #12]
 1858 001a 083A     		subs	r2, r2, #8
 1859 001c 0292     		str	r2, [sp, #8]
 1860 001e 083A     		subs	r2, r2, #8
 1861 0020 0192     		str	r2, [sp, #4]
 1862 0022 083A     		subs	r2, r2, #8
 1863 0024 0092     		str	r2, [sp]
 1864 0026 08AA     		add	r2, sp, #32
 1865 0028 0749     		ldr	r1, .L176
 1866              	.LVL215:
 1867 002a FFF7FEFF 		bl	minmea_scan
 1868              	.LVL216:
 1869 002e 041E     		subs	r4, r0, #0
 1870 0030 07D0     		beq	.L175
 388:minmea.c      ****             type,
 389:minmea.c      ****             &frame->time,
 390:minmea.c      ****             &frame->err_latitude,
 391:minmea.c      ****             &frame->err_longitude,
 392:minmea.c      ****             &frame->err_altitude,
 393:minmea.c      ****             &frame->svid,
 394:minmea.c      ****             &frame->prob,
 395:minmea.c      ****             &frame->bias,
 396:minmea.c      ****             &frame->stddev
 397:minmea.c      ****             ))
 398:minmea.c      ****         return false;
 399:minmea.c      ****     if (strcmp(type+2, "GBS"))
 1871              		.loc 1 399 0
 1872 0032 0649     		ldr	r1, .L176+4
 1873 0034 2220     		movs	r0, #34
 1874 0036 6844     		add	r0, r0, sp
ARM GAS  C:\Users\armst\AppData\Local\Temp\ccFg2asa.s 			page 47


 1875 0038 FFF7FEFF 		bl	strcmp
 1876              	.LVL217:
 1877 003c 0028     		cmp	r0, #0
 1878 003e 00D0     		beq	.L175
 400:minmea.c      ****         return false;
 1879              		.loc 1 400 0
 1880 0040 0024     		movs	r4, #0
 1881              	.L175:
 401:minmea.c      **** 
 402:minmea.c      ****     return true;
 403:minmea.c      **** }
 1882              		.loc 1 403 0
 1883 0042 2000     		movs	r0, r4
 1884 0044 0AB0     		add	sp, sp, #40
 1885              		@ sp needed
 1886 0046 10BD     		pop	{r4, pc}
 1887              	.L177:
 1888              		.align	2
 1889              	.L176:
 1890 0048 28000000 		.word	.LC24
 1891 004c 04000000 		.word	.LC6
 1892              		.cfi_endproc
 1893              	.LFE10:
 1894              		.size	minmea_parse_gbs, .-minmea_parse_gbs
 1895              		.section	.text.minmea_parse_rmc,"ax",%progbits
 1896              		.align	2
 1897              		.global	minmea_parse_rmc
 1898              		.code	16
 1899              		.thumb_func
 1900              		.type	minmea_parse_rmc, %function
 1901              	minmea_parse_rmc:
 1902              	.LFB11:
 404:minmea.c      **** 
 405:minmea.c      **** bool minmea_parse_rmc(struct minmea_sentence_rmc *frame, const char *sentence)
 406:minmea.c      **** {
 1903              		.loc 1 406 0
 1904              		.cfi_startproc
 1905              		@ args = 0, pretend = 0, frame = 24
 1906              		@ frame_needed = 0, uses_anonymous_args = 0
 1907              	.LVL218:
 1908 0000 30B5     		push	{r4, r5, lr}
 1909              		.cfi_def_cfa_offset 12
 1910              		.cfi_offset 4, -12
 1911              		.cfi_offset 5, -8
 1912              		.cfi_offset 14, -4
 1913 0002 91B0     		sub	sp, sp, #68
 1914              		.cfi_def_cfa_offset 80
 1915 0004 0400     		movs	r4, r0
 1916 0006 0800     		movs	r0, r1
 1917              	.LVL219:
 407:minmea.c      ****     // $GPRMC,081836,A,3751.65,S,14507.36,E,000.0,360.0,130998,011.3,E*62
 408:minmea.c      ****     char type[6];
 409:minmea.c      ****     char validity;
 410:minmea.c      ****     int latitude_direction;
 411:minmea.c      ****     int longitude_direction;
 412:minmea.c      ****     int variation_direction;
 413:minmea.c      ****     if (!minmea_scan(sentence, "tTcfdfdffDfd",
ARM GAS  C:\Users\armst\AppData\Local\Temp\ccFg2asa.s 			page 48


 1918              		.loc 1 413 0
 1919 0008 0AAB     		add	r3, sp, #40
 1920 000a 0993     		str	r3, [sp, #36]
 1921 000c 2300     		movs	r3, r4
 1922 000e 4033     		adds	r3, r3, #64
 1923 0010 0893     		str	r3, [sp, #32]
 1924 0012 0C3B     		subs	r3, r3, #12
 1925 0014 0793     		str	r3, [sp, #28]
 1926 0016 083B     		subs	r3, r3, #8
 1927 0018 0693     		str	r3, [sp, #24]
 1928 001a 083B     		subs	r3, r3, #8
 1929 001c 0593     		str	r3, [sp, #20]
 1930 001e 0BAB     		add	r3, sp, #44
 1931 0020 0493     		str	r3, [sp, #16]
 1932 0022 2300     		movs	r3, r4
 1933 0024 1C33     		adds	r3, r3, #28
 1934 0026 0393     		str	r3, [sp, #12]
 1935 0028 0CAB     		add	r3, sp, #48
 1936 002a 0293     		str	r3, [sp, #8]
 1937 002c 2300     		movs	r3, r4
 1938 002e 1433     		adds	r3, r3, #20
 1939 0030 0193     		str	r3, [sp, #4]
 1940 0032 3723     		movs	r3, #55
 1941 0034 6B44     		add	r3, r3, sp
 1942 0036 0093     		str	r3, [sp]
 1943 0038 2300     		movs	r3, r4
 1944 003a 0EAA     		add	r2, sp, #56
 1945 003c 1149     		ldr	r1, .L181
 1946              	.LVL220:
 1947 003e FFF7FEFF 		bl	minmea_scan
 1948              	.LVL221:
 1949 0042 051E     		subs	r5, r0, #0
 1950 0044 1BD0     		beq	.L179
 414:minmea.c      ****             type,
 415:minmea.c      ****             &frame->time,
 416:minmea.c      ****             &validity,
 417:minmea.c      ****             &frame->latitude, &latitude_direction,
 418:minmea.c      ****             &frame->longitude, &longitude_direction,
 419:minmea.c      ****             &frame->speed,
 420:minmea.c      ****             &frame->course,
 421:minmea.c      ****             &frame->date,
 422:minmea.c      ****             &frame->variation, &variation_direction))
 423:minmea.c      ****         return false;
 424:minmea.c      ****     if (strcmp(type+2, "RMC"))
 1951              		.loc 1 424 0
 1952 0046 1049     		ldr	r1, .L181+4
 1953 0048 3A20     		movs	r0, #58
 1954 004a 6844     		add	r0, r0, sp
 1955 004c FFF7FEFF 		bl	strcmp
 1956              	.LVL222:
 1957 0050 0028     		cmp	r0, #0
 1958 0052 13D1     		bne	.L180
 425:minmea.c      ****         return false;
 426:minmea.c      **** 
 427:minmea.c      ****     frame->valid = (validity == 'A');
 1959              		.loc 1 427 0
 1960 0054 3723     		movs	r3, #55
ARM GAS  C:\Users\armst\AppData\Local\Temp\ccFg2asa.s 			page 49


 1961 0056 6B44     		add	r3, r3, sp
 1962 0058 1B78     		ldrb	r3, [r3]
 1963 005a 413B     		subs	r3, r3, #65
 1964 005c 5942     		rsbs	r1, r3, #0
 1965 005e 5941     		adcs	r1, r1, r3
 1966 0060 2174     		strb	r1, [r4, #16]
 428:minmea.c      ****     frame->latitude.value *= latitude_direction;
 1967              		.loc 1 428 0
 1968 0062 0C9B     		ldr	r3, [sp, #48]
 1969 0064 6269     		ldr	r2, [r4, #20]
 1970 0066 5343     		muls	r3, r2
 1971 0068 6361     		str	r3, [r4, #20]
 429:minmea.c      ****     frame->longitude.value *= longitude_direction;
 1972              		.loc 1 429 0
 1973 006a 0B9B     		ldr	r3, [sp, #44]
 1974 006c E269     		ldr	r2, [r4, #28]
 1975 006e 5343     		muls	r3, r2
 1976 0070 E361     		str	r3, [r4, #28]
 430:minmea.c      ****     frame->variation.value *= variation_direction;
 1977              		.loc 1 430 0
 1978 0072 0A9B     		ldr	r3, [sp, #40]
 1979 0074 226C     		ldr	r2, [r4, #64]
 1980 0076 5343     		muls	r3, r2
 1981 0078 2364     		str	r3, [r4, #64]
 431:minmea.c      **** 
 432:minmea.c      ****     return true;
 1982              		.loc 1 432 0
 1983 007a 00E0     		b	.L179
 1984              	.L180:
 425:minmea.c      **** 
 1985              		.loc 1 425 0
 1986 007c 0025     		movs	r5, #0
 1987              	.L179:
 433:minmea.c      **** }
 1988              		.loc 1 433 0
 1989 007e 2800     		movs	r0, r5
 1990 0080 11B0     		add	sp, sp, #68
 1991              		@ sp needed
 1992              	.LVL223:
 1993 0082 30BD     		pop	{r4, r5, pc}
 1994              	.L182:
 1995              		.align	2
 1996              	.L181:
 1997 0084 34000000 		.word	.LC27
 1998 0088 1C000000 		.word	.LC18
 1999              		.cfi_endproc
 2000              	.LFE11:
 2001              		.size	minmea_parse_rmc, .-minmea_parse_rmc
 2002              		.section	.text.minmea_parse_gga,"ax",%progbits
 2003              		.align	2
 2004              		.global	minmea_parse_gga
 2005              		.code	16
 2006              		.thumb_func
 2007              		.type	minmea_parse_gga, %function
 2008              	minmea_parse_gga:
 2009              	.LFB12:
 434:minmea.c      **** 
ARM GAS  C:\Users\armst\AppData\Local\Temp\ccFg2asa.s 			page 50


 435:minmea.c      **** bool minmea_parse_gga(struct minmea_sentence_gga *frame, const char *sentence)
 436:minmea.c      **** {
 2010              		.loc 1 436 0
 2011              		.cfi_startproc
 2012              		@ args = 0, pretend = 0, frame = 16
 2013              		@ frame_needed = 0, uses_anonymous_args = 0
 2014              	.LVL224:
 2015 0000 30B5     		push	{r4, r5, lr}
 2016              		.cfi_def_cfa_offset 12
 2017              		.cfi_offset 4, -12
 2018              		.cfi_offset 5, -8
 2019              		.cfi_offset 14, -4
 2020 0002 91B0     		sub	sp, sp, #68
 2021              		.cfi_def_cfa_offset 80
 2022 0004 0400     		movs	r4, r0
 2023 0006 0800     		movs	r0, r1
 2024              	.LVL225:
 437:minmea.c      ****     // $GPGGA,123519,4807.038,N,01131.000,E,1,08,0.9,545.4,M,46.9,M,,*47
 438:minmea.c      ****     char type[6];
 439:minmea.c      ****     int latitude_direction;
 440:minmea.c      ****     int longitude_direction;
 441:minmea.c      **** 
 442:minmea.c      ****     if (!minmea_scan(sentence, "tTfdfdiiffcfcf_",
 2025              		.loc 1 442 0
 2026 0008 2300     		movs	r3, r4
 2027 000a 4833     		adds	r3, r3, #72
 2028 000c 0B93     		str	r3, [sp, #44]
 2029 000e 043B     		subs	r3, r3, #4
 2030 0010 0A93     		str	r3, [sp, #40]
 2031 0012 083B     		subs	r3, r3, #8
 2032 0014 0993     		str	r3, [sp, #36]
 2033 0016 043B     		subs	r3, r3, #4
 2034 0018 0893     		str	r3, [sp, #32]
 2035 001a 083B     		subs	r3, r3, #8
 2036 001c 0793     		str	r3, [sp, #28]
 2037 001e 083B     		subs	r3, r3, #8
 2038 0020 0693     		str	r3, [sp, #24]
 2039 0022 043B     		subs	r3, r3, #4
 2040 0024 0593     		str	r3, [sp, #20]
 2041 0026 043B     		subs	r3, r3, #4
 2042 0028 0493     		str	r3, [sp, #16]
 2043 002a 0CAB     		add	r3, sp, #48
 2044 002c 0393     		str	r3, [sp, #12]
 2045 002e 2300     		movs	r3, r4
 2046 0030 1833     		adds	r3, r3, #24
 2047 0032 0293     		str	r3, [sp, #8]
 2048 0034 0DAB     		add	r3, sp, #52
 2049 0036 0193     		str	r3, [sp, #4]
 2050 0038 2300     		movs	r3, r4
 2051 003a 1033     		adds	r3, r3, #16
 2052 003c 0093     		str	r3, [sp]
 2053 003e 2300     		movs	r3, r4
 2054 0040 0EAA     		add	r2, sp, #56
 2055 0042 0C49     		ldr	r1, .L186
 2056              	.LVL226:
 2057 0044 FFF7FEFF 		bl	minmea_scan
 2058              	.LVL227:
ARM GAS  C:\Users\armst\AppData\Local\Temp\ccFg2asa.s 			page 51


 2059 0048 051E     		subs	r5, r0, #0
 2060 004a 10D0     		beq	.L184
 443:minmea.c      ****             type,
 444:minmea.c      ****             &frame->time,
 445:minmea.c      ****             &frame->latitude, &latitude_direction,
 446:minmea.c      ****             &frame->longitude, &longitude_direction,
 447:minmea.c      ****             &frame->fix_quality,
 448:minmea.c      ****             &frame->satellites_tracked,
 449:minmea.c      ****             &frame->hdop,
 450:minmea.c      ****             &frame->altitude, &frame->altitude_units,
 451:minmea.c      ****             &frame->height, &frame->height_units,
 452:minmea.c      ****             &frame->dgps_age))
 453:minmea.c      ****         return false;
 454:minmea.c      ****     if (strcmp(type+2, "GGA"))
 2061              		.loc 1 454 0
 2062 004c 0A49     		ldr	r1, .L186+4
 2063 004e 3A20     		movs	r0, #58
 2064 0050 6844     		add	r0, r0, sp
 2065 0052 FFF7FEFF 		bl	strcmp
 2066              	.LVL228:
 2067 0056 0028     		cmp	r0, #0
 2068 0058 08D1     		bne	.L185
 455:minmea.c      ****         return false;
 456:minmea.c      **** 
 457:minmea.c      ****     frame->latitude.value *= latitude_direction;
 2069              		.loc 1 457 0
 2070 005a 0D9B     		ldr	r3, [sp, #52]
 2071 005c 2269     		ldr	r2, [r4, #16]
 2072 005e 5343     		muls	r3, r2
 2073 0060 2361     		str	r3, [r4, #16]
 458:minmea.c      ****     frame->longitude.value *= longitude_direction;
 2074              		.loc 1 458 0
 2075 0062 0C9B     		ldr	r3, [sp, #48]
 2076 0064 A269     		ldr	r2, [r4, #24]
 2077 0066 5343     		muls	r3, r2
 2078 0068 A361     		str	r3, [r4, #24]
 459:minmea.c      **** 
 460:minmea.c      ****     return true;
 2079              		.loc 1 460 0
 2080 006a 00E0     		b	.L184
 2081              	.L185:
 455:minmea.c      **** 
 2082              		.loc 1 455 0
 2083 006c 0025     		movs	r5, #0
 2084              	.L184:
 461:minmea.c      **** }
 2085              		.loc 1 461 0
 2086 006e 2800     		movs	r0, r5
 2087 0070 11B0     		add	sp, sp, #68
 2088              		@ sp needed
 2089              	.LVL229:
 2090 0072 30BD     		pop	{r4, r5, pc}
 2091              	.L187:
 2092              		.align	2
 2093              	.L186:
 2094 0074 44000000 		.word	.LC30
 2095 0078 08000000 		.word	.LC8
ARM GAS  C:\Users\armst\AppData\Local\Temp\ccFg2asa.s 			page 52


 2096              		.cfi_endproc
 2097              	.LFE12:
 2098              		.size	minmea_parse_gga, .-minmea_parse_gga
 2099              		.section	.text.minmea_parse_gsa,"ax",%progbits
 2100              		.align	2
 2101              		.global	minmea_parse_gsa
 2102              		.code	16
 2103              		.thumb_func
 2104              		.type	minmea_parse_gsa, %function
 2105              	minmea_parse_gsa:
 2106              	.LFB13:
 462:minmea.c      **** 
 463:minmea.c      **** bool minmea_parse_gsa(struct minmea_sentence_gsa *frame, const char *sentence)
 464:minmea.c      **** {
 2107              		.loc 1 464 0
 2108              		.cfi_startproc
 2109              		@ args = 0, pretend = 0, frame = 8
 2110              		@ frame_needed = 0, uses_anonymous_args = 0
 2111              	.LVL230:
 2112 0000 10B5     		push	{r4, lr}
 2113              		.cfi_def_cfa_offset 8
 2114              		.cfi_offset 4, -8
 2115              		.cfi_offset 14, -4
 2116 0002 92B0     		sub	sp, sp, #72
 2117              		.cfi_def_cfa_offset 80
 2118 0004 0300     		movs	r3, r0
 2119 0006 0800     		movs	r0, r1
 2120              	.LVL231:
 465:minmea.c      ****     // $GPGSA,A,3,04,05,,09,12,,,24,,,,,2.5,1.3,2.1*39
 466:minmea.c      ****     char type[6];
 467:minmea.c      **** 
 468:minmea.c      ****     if (!minmea_scan(sentence, "tciiiiiiiiiiiiifff",
 2121              		.loc 1 468 0
 2122 0008 1A00     		movs	r2, r3
 2123 000a 4832     		adds	r2, r2, #72
 2124 000c 0F92     		str	r2, [sp, #60]
 2125 000e 083A     		subs	r2, r2, #8
 2126 0010 0E92     		str	r2, [sp, #56]
 2127 0012 083A     		subs	r2, r2, #8
 2128 0014 0D92     		str	r2, [sp, #52]
 2129 0016 043A     		subs	r2, r2, #4
 2130 0018 0C92     		str	r2, [sp, #48]
 2131 001a 043A     		subs	r2, r2, #4
 2132 001c 0B92     		str	r2, [sp, #44]
 2133 001e 043A     		subs	r2, r2, #4
 2134 0020 0A92     		str	r2, [sp, #40]
 2135 0022 043A     		subs	r2, r2, #4
 2136 0024 0992     		str	r2, [sp, #36]
 2137 0026 043A     		subs	r2, r2, #4
 2138 0028 0892     		str	r2, [sp, #32]
 2139 002a 043A     		subs	r2, r2, #4
 2140 002c 0792     		str	r2, [sp, #28]
 2141 002e 043A     		subs	r2, r2, #4
 2142 0030 0692     		str	r2, [sp, #24]
 2143 0032 043A     		subs	r2, r2, #4
 2144 0034 0592     		str	r2, [sp, #20]
 2145 0036 043A     		subs	r2, r2, #4
ARM GAS  C:\Users\armst\AppData\Local\Temp\ccFg2asa.s 			page 53


 2146 0038 0492     		str	r2, [sp, #16]
 2147 003a 043A     		subs	r2, r2, #4
 2148 003c 0392     		str	r2, [sp, #12]
 2149 003e 043A     		subs	r2, r2, #4
 2150 0040 0292     		str	r2, [sp, #8]
 2151 0042 043A     		subs	r2, r2, #4
 2152 0044 0192     		str	r2, [sp, #4]
 2153 0046 1A1D     		adds	r2, r3, #4
 2154 0048 0092     		str	r2, [sp]
 2155 004a 10AA     		add	r2, sp, #64
 2156 004c 0749     		ldr	r1, .L190
 2157              	.LVL232:
 2158 004e FFF7FEFF 		bl	minmea_scan
 2159              	.LVL233:
 2160 0052 041E     		subs	r4, r0, #0
 2161 0054 07D0     		beq	.L189
 469:minmea.c      ****             type,
 470:minmea.c      ****             &frame->mode,
 471:minmea.c      ****             &frame->fix_type,
 472:minmea.c      ****             &frame->sats[0],
 473:minmea.c      ****             &frame->sats[1],
 474:minmea.c      ****             &frame->sats[2],
 475:minmea.c      ****             &frame->sats[3],
 476:minmea.c      ****             &frame->sats[4],
 477:minmea.c      ****             &frame->sats[5],
 478:minmea.c      ****             &frame->sats[6],
 479:minmea.c      ****             &frame->sats[7],
 480:minmea.c      ****             &frame->sats[8],
 481:minmea.c      ****             &frame->sats[9],
 482:minmea.c      ****             &frame->sats[10],
 483:minmea.c      ****             &frame->sats[11],
 484:minmea.c      ****             &frame->pdop,
 485:minmea.c      ****             &frame->hdop,
 486:minmea.c      ****             &frame->vdop))
 487:minmea.c      ****         return false;
 488:minmea.c      ****     if (strcmp(type+2, "GSA"))
 2162              		.loc 1 488 0
 2163 0056 0649     		ldr	r1, .L190+4
 2164 0058 4220     		movs	r0, #66
 2165 005a 6844     		add	r0, r0, sp
 2166 005c FFF7FEFF 		bl	strcmp
 2167              	.LVL234:
 2168 0060 0028     		cmp	r0, #0
 2169 0062 00D0     		beq	.L189
 489:minmea.c      ****         return false;
 2170              		.loc 1 489 0
 2171 0064 0024     		movs	r4, #0
 2172              	.L189:
 490:minmea.c      **** 
 491:minmea.c      ****     return true;
 492:minmea.c      **** }
 2173              		.loc 1 492 0
 2174 0066 2000     		movs	r0, r4
 2175 0068 12B0     		add	sp, sp, #72
 2176              		@ sp needed
 2177 006a 10BD     		pop	{r4, pc}
 2178              	.L191:
ARM GAS  C:\Users\armst\AppData\Local\Temp\ccFg2asa.s 			page 54


 2179              		.align	2
 2180              	.L190:
 2181 006c 54000000 		.word	.LC33
 2182 0070 10000000 		.word	.LC12
 2183              		.cfi_endproc
 2184              	.LFE13:
 2185              		.size	minmea_parse_gsa, .-minmea_parse_gsa
 2186              		.section	.text.minmea_parse_gll,"ax",%progbits
 2187              		.align	2
 2188              		.global	minmea_parse_gll
 2189              		.code	16
 2190              		.thumb_func
 2191              		.type	minmea_parse_gll, %function
 2192              	minmea_parse_gll:
 2193              	.LFB14:
 493:minmea.c      **** 
 494:minmea.c      **** bool minmea_parse_gll(struct minmea_sentence_gll *frame, const char *sentence)
 495:minmea.c      **** {
 2194              		.loc 1 495 0
 2195              		.cfi_startproc
 2196              		@ args = 0, pretend = 0, frame = 16
 2197              		@ frame_needed = 0, uses_anonymous_args = 0
 2198              	.LVL235:
 2199 0000 30B5     		push	{r4, r5, lr}
 2200              		.cfi_def_cfa_offset 12
 2201              		.cfi_offset 4, -12
 2202              		.cfi_offset 5, -8
 2203              		.cfi_offset 14, -4
 2204 0002 8BB0     		sub	sp, sp, #44
 2205              		.cfi_def_cfa_offset 56
 2206 0004 0400     		movs	r4, r0
 2207 0006 0800     		movs	r0, r1
 2208              	.LVL236:
 496:minmea.c      ****     // $GPGLL,3723.2475,N,12158.3416,W,161229.487,A,A*41$;
 497:minmea.c      ****     char type[6];
 498:minmea.c      ****     int latitude_direction;
 499:minmea.c      ****     int longitude_direction;
 500:minmea.c      **** 
 501:minmea.c      ****     if (!minmea_scan(sentence, "tfdfdTc;c",
 2209              		.loc 1 501 0
 2210 0008 2300     		movs	r3, r4
 2211 000a 2133     		adds	r3, r3, #33
 2212 000c 0593     		str	r3, [sp, #20]
 2213 000e 013B     		subs	r3, r3, #1
 2214 0010 0493     		str	r3, [sp, #16]
 2215 0012 103B     		subs	r3, r3, #16
 2216 0014 0393     		str	r3, [sp, #12]
 2217 0016 06AB     		add	r3, sp, #24
 2218 0018 0293     		str	r3, [sp, #8]
 2219 001a 2300     		movs	r3, r4
 2220 001c 0833     		adds	r3, r3, #8
 2221 001e 0193     		str	r3, [sp, #4]
 2222 0020 07AB     		add	r3, sp, #28
 2223 0022 0093     		str	r3, [sp]
 2224 0024 2300     		movs	r3, r4
 2225 0026 08AA     		add	r2, sp, #32
 2226 0028 0C49     		ldr	r1, .L195
ARM GAS  C:\Users\armst\AppData\Local\Temp\ccFg2asa.s 			page 55


 2227              	.LVL237:
 2228 002a FFF7FEFF 		bl	minmea_scan
 2229              	.LVL238:
 2230 002e 051E     		subs	r5, r0, #0
 2231 0030 10D0     		beq	.L193
 502:minmea.c      ****             type,
 503:minmea.c      ****             &frame->latitude, &latitude_direction,
 504:minmea.c      ****             &frame->longitude, &longitude_direction,
 505:minmea.c      ****             &frame->time,
 506:minmea.c      ****             &frame->status,
 507:minmea.c      ****             &frame->mode))
 508:minmea.c      ****         return false;
 509:minmea.c      ****     if (strcmp(type+2, "GLL"))
 2232              		.loc 1 509 0
 2233 0032 0B49     		ldr	r1, .L195+4
 2234 0034 2220     		movs	r0, #34
 2235 0036 6844     		add	r0, r0, sp
 2236 0038 FFF7FEFF 		bl	strcmp
 2237              	.LVL239:
 2238 003c 0028     		cmp	r0, #0
 2239 003e 08D1     		bne	.L194
 510:minmea.c      ****         return false;
 511:minmea.c      **** 
 512:minmea.c      ****     frame->latitude.value *= latitude_direction;
 2240              		.loc 1 512 0
 2241 0040 079B     		ldr	r3, [sp, #28]
 2242 0042 2268     		ldr	r2, [r4]
 2243 0044 5343     		muls	r3, r2
 2244 0046 2360     		str	r3, [r4]
 513:minmea.c      ****     frame->longitude.value *= longitude_direction;
 2245              		.loc 1 513 0
 2246 0048 069B     		ldr	r3, [sp, #24]
 2247 004a A268     		ldr	r2, [r4, #8]
 2248 004c 5343     		muls	r3, r2
 2249 004e A360     		str	r3, [r4, #8]
 514:minmea.c      **** 
 515:minmea.c      ****     return true;
 2250              		.loc 1 515 0
 2251 0050 00E0     		b	.L193
 2252              	.L194:
 510:minmea.c      **** 
 2253              		.loc 1 510 0
 2254 0052 0025     		movs	r5, #0
 2255              	.L193:
 516:minmea.c      **** }
 2256              		.loc 1 516 0
 2257 0054 2800     		movs	r0, r5
 2258 0056 0BB0     		add	sp, sp, #44
 2259              		@ sp needed
 2260              	.LVL240:
 2261 0058 30BD     		pop	{r4, r5, pc}
 2262              	.L196:
 2263 005a C046     		.align	2
 2264              	.L195:
 2265 005c 68000000 		.word	.LC36
 2266 0060 0C000000 		.word	.LC10
 2267              		.cfi_endproc
ARM GAS  C:\Users\armst\AppData\Local\Temp\ccFg2asa.s 			page 56


 2268              	.LFE14:
 2269              		.size	minmea_parse_gll, .-minmea_parse_gll
 2270              		.section	.text.minmea_parse_gst,"ax",%progbits
 2271              		.align	2
 2272              		.global	minmea_parse_gst
 2273              		.code	16
 2274              		.thumb_func
 2275              		.type	minmea_parse_gst, %function
 2276              	minmea_parse_gst:
 2277              	.LFB15:
 517:minmea.c      **** 
 518:minmea.c      **** bool minmea_parse_gst(struct minmea_sentence_gst *frame, const char *sentence)
 519:minmea.c      **** {
 2278              		.loc 1 519 0
 2279              		.cfi_startproc
 2280              		@ args = 0, pretend = 0, frame = 8
 2281              		@ frame_needed = 0, uses_anonymous_args = 0
 2282              	.LVL241:
 2283 0000 10B5     		push	{r4, lr}
 2284              		.cfi_def_cfa_offset 8
 2285              		.cfi_offset 4, -8
 2286              		.cfi_offset 14, -4
 2287 0002 8AB0     		sub	sp, sp, #40
 2288              		.cfi_def_cfa_offset 48
 2289 0004 0300     		movs	r3, r0
 2290 0006 0800     		movs	r0, r1
 2291              	.LVL242:
 520:minmea.c      ****     // $GPGST,024603.00,3.2,6.6,4.7,47.3,5.8,5.6,22.0*58
 521:minmea.c      ****     char type[6];
 522:minmea.c      **** 
 523:minmea.c      ****     if (!minmea_scan(sentence, "tTfffffff",
 2292              		.loc 1 523 0
 2293 0008 1A00     		movs	r2, r3
 2294 000a 4032     		adds	r2, r2, #64
 2295 000c 0692     		str	r2, [sp, #24]
 2296 000e 083A     		subs	r2, r2, #8
 2297 0010 0592     		str	r2, [sp, #20]
 2298 0012 083A     		subs	r2, r2, #8
 2299 0014 0492     		str	r2, [sp, #16]
 2300 0016 083A     		subs	r2, r2, #8
 2301 0018 0392     		str	r2, [sp, #12]
 2302 001a 083A     		subs	r2, r2, #8
 2303 001c 0292     		str	r2, [sp, #8]
 2304 001e 083A     		subs	r2, r2, #8
 2305 0020 0192     		str	r2, [sp, #4]
 2306 0022 083A     		subs	r2, r2, #8
 2307 0024 0092     		str	r2, [sp]
 2308 0026 08AA     		add	r2, sp, #32
 2309 0028 0749     		ldr	r1, .L199
 2310              	.LVL243:
 2311 002a FFF7FEFF 		bl	minmea_scan
 2312              	.LVL244:
 2313 002e 041E     		subs	r4, r0, #0
 2314 0030 07D0     		beq	.L198
 524:minmea.c      ****             type,
 525:minmea.c      ****             &frame->time,
 526:minmea.c      ****             &frame->rms_deviation,
ARM GAS  C:\Users\armst\AppData\Local\Temp\ccFg2asa.s 			page 57


 527:minmea.c      ****             &frame->semi_major_deviation,
 528:minmea.c      ****             &frame->semi_minor_deviation,
 529:minmea.c      ****             &frame->semi_major_orientation,
 530:minmea.c      ****             &frame->latitude_error_deviation,
 531:minmea.c      ****             &frame->longitude_error_deviation,
 532:minmea.c      ****             &frame->altitude_error_deviation))
 533:minmea.c      ****         return false;
 534:minmea.c      ****     if (strcmp(type+2, "GST"))
 2315              		.loc 1 534 0
 2316 0032 0649     		ldr	r1, .L199+4
 2317 0034 2220     		movs	r0, #34
 2318 0036 6844     		add	r0, r0, sp
 2319 0038 FFF7FEFF 		bl	strcmp
 2320              	.LVL245:
 2321 003c 0028     		cmp	r0, #0
 2322 003e 00D0     		beq	.L198
 535:minmea.c      ****         return false;
 2323              		.loc 1 535 0
 2324 0040 0024     		movs	r4, #0
 2325              	.L198:
 536:minmea.c      **** 
 537:minmea.c      ****     return true;
 538:minmea.c      **** }
 2326              		.loc 1 538 0
 2327 0042 2000     		movs	r0, r4
 2328 0044 0AB0     		add	sp, sp, #40
 2329              		@ sp needed
 2330 0046 10BD     		pop	{r4, pc}
 2331              	.L200:
 2332              		.align	2
 2333              	.L199:
 2334 0048 74000000 		.word	.LC39
 2335 004c 14000000 		.word	.LC14
 2336              		.cfi_endproc
 2337              	.LFE15:
 2338              		.size	minmea_parse_gst, .-minmea_parse_gst
 2339              		.section	.text.minmea_parse_gsv,"ax",%progbits
 2340              		.align	2
 2341              		.global	minmea_parse_gsv
 2342              		.code	16
 2343              		.thumb_func
 2344              		.type	minmea_parse_gsv, %function
 2345              	minmea_parse_gsv:
 2346              	.LFB16:
 539:minmea.c      **** 
 540:minmea.c      **** bool minmea_parse_gsv(struct minmea_sentence_gsv *frame, const char *sentence)
 541:minmea.c      **** {
 2347              		.loc 1 541 0
 2348              		.cfi_startproc
 2349              		@ args = 0, pretend = 0, frame = 8
 2350              		@ frame_needed = 0, uses_anonymous_args = 0
 2351              	.LVL246:
 2352 0000 10B5     		push	{r4, lr}
 2353              		.cfi_def_cfa_offset 8
 2354              		.cfi_offset 4, -8
 2355              		.cfi_offset 14, -4
 2356 0002 94B0     		sub	sp, sp, #80
ARM GAS  C:\Users\armst\AppData\Local\Temp\ccFg2asa.s 			page 58


 2357              		.cfi_def_cfa_offset 88
 2358 0004 0300     		movs	r3, r0
 2359 0006 0800     		movs	r0, r1
 2360              	.LVL247:
 542:minmea.c      ****     // $GPGSV,3,1,11,03,03,111,00,04,15,270,00,06,01,010,00,13,06,292,00*74
 543:minmea.c      ****     // $GPGSV,3,3,11,22,42,067,42,24,14,311,43,27,05,244,00,,,,*4D
 544:minmea.c      ****     // $GPGSV,4,2,11,08,51,203,30,09,45,215,28*75
 545:minmea.c      ****     // $GPGSV,4,4,13,39,31,170,27*40
 546:minmea.c      ****     // $GPGSV,4,4,13*7B
 547:minmea.c      ****     char type[6];
 548:minmea.c      **** 
 549:minmea.c      ****     if (!minmea_scan(sentence, "tiii;iiiiiiiiiiiiiiii",
 2361              		.loc 1 549 0
 2362 0008 1A00     		movs	r2, r3
 2363 000a 4832     		adds	r2, r2, #72
 2364 000c 1192     		str	r2, [sp, #68]
 2365 000e 043A     		subs	r2, r2, #4
 2366 0010 1092     		str	r2, [sp, #64]
 2367 0012 043A     		subs	r2, r2, #4
 2368 0014 0F92     		str	r2, [sp, #60]
 2369 0016 043A     		subs	r2, r2, #4
 2370 0018 0E92     		str	r2, [sp, #56]
 2371 001a 043A     		subs	r2, r2, #4
 2372 001c 0D92     		str	r2, [sp, #52]
 2373 001e 043A     		subs	r2, r2, #4
 2374 0020 0C92     		str	r2, [sp, #48]
 2375 0022 043A     		subs	r2, r2, #4
 2376 0024 0B92     		str	r2, [sp, #44]
 2377 0026 043A     		subs	r2, r2, #4
 2378 0028 0A92     		str	r2, [sp, #40]
 2379 002a 043A     		subs	r2, r2, #4
 2380 002c 0992     		str	r2, [sp, #36]
 2381 002e 043A     		subs	r2, r2, #4
 2382 0030 0892     		str	r2, [sp, #32]
 2383 0032 043A     		subs	r2, r2, #4
 2384 0034 0792     		str	r2, [sp, #28]
 2385 0036 043A     		subs	r2, r2, #4
 2386 0038 0692     		str	r2, [sp, #24]
 2387 003a 043A     		subs	r2, r2, #4
 2388 003c 0592     		str	r2, [sp, #20]
 2389 003e 043A     		subs	r2, r2, #4
 2390 0040 0492     		str	r2, [sp, #16]
 2391 0042 043A     		subs	r2, r2, #4
 2392 0044 0392     		str	r2, [sp, #12]
 2393 0046 043A     		subs	r2, r2, #4
 2394 0048 0292     		str	r2, [sp, #8]
 2395 004a 043A     		subs	r2, r2, #4
 2396 004c 0192     		str	r2, [sp, #4]
 2397 004e 1A1D     		adds	r2, r3, #4
 2398 0050 0092     		str	r2, [sp]
 2399 0052 12AA     		add	r2, sp, #72
 2400 0054 0749     		ldr	r1, .L203
 2401              	.LVL248:
 2402 0056 FFF7FEFF 		bl	minmea_scan
 2403              	.LVL249:
 2404 005a 041E     		subs	r4, r0, #0
 2405 005c 07D0     		beq	.L202
ARM GAS  C:\Users\armst\AppData\Local\Temp\ccFg2asa.s 			page 59


 550:minmea.c      ****             type,
 551:minmea.c      ****             &frame->total_msgs,
 552:minmea.c      ****             &frame->msg_nr,
 553:minmea.c      ****             &frame->total_sats,
 554:minmea.c      ****             &frame->sats[0].nr,
 555:minmea.c      ****             &frame->sats[0].elevation,
 556:minmea.c      ****             &frame->sats[0].azimuth,
 557:minmea.c      ****             &frame->sats[0].snr,
 558:minmea.c      ****             &frame->sats[1].nr,
 559:minmea.c      ****             &frame->sats[1].elevation,
 560:minmea.c      ****             &frame->sats[1].azimuth,
 561:minmea.c      ****             &frame->sats[1].snr,
 562:minmea.c      ****             &frame->sats[2].nr,
 563:minmea.c      ****             &frame->sats[2].elevation,
 564:minmea.c      ****             &frame->sats[2].azimuth,
 565:minmea.c      ****             &frame->sats[2].snr,
 566:minmea.c      ****             &frame->sats[3].nr,
 567:minmea.c      ****             &frame->sats[3].elevation,
 568:minmea.c      ****             &frame->sats[3].azimuth,
 569:minmea.c      ****             &frame->sats[3].snr
 570:minmea.c      ****             )) {
 571:minmea.c      ****         return false;
 572:minmea.c      ****     }
 573:minmea.c      ****     if (strcmp(type+2, "GSV"))
 2406              		.loc 1 573 0
 2407 005e 0649     		ldr	r1, .L203+4
 2408 0060 4A20     		movs	r0, #74
 2409 0062 6844     		add	r0, r0, sp
 2410 0064 FFF7FEFF 		bl	strcmp
 2411              	.LVL250:
 2412 0068 0028     		cmp	r0, #0
 2413 006a 00D0     		beq	.L202
 574:minmea.c      ****         return false;
 2414              		.loc 1 574 0
 2415 006c 0024     		movs	r4, #0
 2416              	.L202:
 575:minmea.c      **** 
 576:minmea.c      ****     return true;
 577:minmea.c      **** }
 2417              		.loc 1 577 0
 2418 006e 2000     		movs	r0, r4
 2419 0070 14B0     		add	sp, sp, #80
 2420              		@ sp needed
 2421 0072 10BD     		pop	{r4, pc}
 2422              	.L204:
 2423              		.align	2
 2424              	.L203:
 2425 0074 80000000 		.word	.LC42
 2426 0078 18000000 		.word	.LC16
 2427              		.cfi_endproc
 2428              	.LFE16:
 2429              		.size	minmea_parse_gsv, .-minmea_parse_gsv
 2430              		.section	.text.minmea_parse_vtg,"ax",%progbits
 2431              		.align	2
 2432              		.global	minmea_parse_vtg
 2433              		.code	16
 2434              		.thumb_func
ARM GAS  C:\Users\armst\AppData\Local\Temp\ccFg2asa.s 			page 60


 2435              		.type	minmea_parse_vtg, %function
 2436              	minmea_parse_vtg:
 2437              	.LFB17:
 578:minmea.c      **** 
 579:minmea.c      **** bool minmea_parse_vtg(struct minmea_sentence_vtg *frame, const char *sentence)
 580:minmea.c      **** {
 2438              		.loc 1 580 0
 2439              		.cfi_startproc
 2440              		@ args = 0, pretend = 0, frame = 16
 2441              		@ frame_needed = 0, uses_anonymous_args = 0
 2442              	.LVL251:
 2443 0000 30B5     		push	{r4, r5, lr}
 2444              		.cfi_def_cfa_offset 12
 2445              		.cfi_offset 4, -12
 2446              		.cfi_offset 5, -8
 2447              		.cfi_offset 14, -4
 2448 0002 8DB0     		sub	sp, sp, #52
 2449              		.cfi_def_cfa_offset 64
 2450 0004 0400     		movs	r4, r0
 2451 0006 0800     		movs	r0, r1
 2452              	.LVL252:
 581:minmea.c      ****     // $GPVTG,054.7,T,034.4,M,005.5,N,010.2,K*48
 582:minmea.c      ****     // $GPVTG,156.1,T,140.9,M,0.0,N,0.0,K*41
 583:minmea.c      ****     // $GPVTG,096.5,T,083.5,M,0.0,N,0.0,K,D*22
 584:minmea.c      ****     // $GPVTG,188.36,T,,M,0.820,N,1.519,K,A*3F
 585:minmea.c      ****     char type[6];
 586:minmea.c      ****     char c_true, c_magnetic, c_knots, c_kph, c_faa_mode;
 587:minmea.c      **** 
 588:minmea.c      ****     if (!minmea_scan(sentence, "t;fcfcfcfcc",
 2453              		.loc 1 588 0
 2454 0008 2323     		movs	r3, #35
 2455 000a 6B44     		add	r3, r3, sp
 2456 000c 0793     		str	r3, [sp, #28]
 2457 000e 09AB     		add	r3, sp, #36
 2458 0010 0693     		str	r3, [sp, #24]
 2459 0012 2300     		movs	r3, r4
 2460 0014 1833     		adds	r3, r3, #24
 2461 0016 0593     		str	r3, [sp, #20]
 2462 0018 2523     		movs	r3, #37
 2463 001a 6B44     		add	r3, r3, sp
 2464 001c 0493     		str	r3, [sp, #16]
 2465 001e 2300     		movs	r3, r4
 2466 0020 1033     		adds	r3, r3, #16
 2467 0022 0393     		str	r3, [sp, #12]
 2468 0024 2623     		movs	r3, #38
 2469 0026 6B44     		add	r3, r3, sp
 2470 0028 0293     		str	r3, [sp, #8]
 2471 002a 2300     		movs	r3, r4
 2472 002c 0833     		adds	r3, r3, #8
 2473 002e 0193     		str	r3, [sp, #4]
 2474 0030 2723     		movs	r3, #39
 2475 0032 6B44     		add	r3, r3, sp
 2476 0034 0093     		str	r3, [sp]
 2477 0036 2300     		movs	r3, r4
 2478 0038 0AAA     		add	r2, sp, #40
 2479 003a 1849     		ldr	r1, .L212
 2480              	.LVL253:
ARM GAS  C:\Users\armst\AppData\Local\Temp\ccFg2asa.s 			page 61


 2481 003c FFF7FEFF 		bl	minmea_scan
 2482              	.LVL254:
 2483 0040 051E     		subs	r5, r0, #0
 2484 0042 28D0     		beq	.L206
 589:minmea.c      ****             type,
 590:minmea.c      ****             &frame->true_track_degrees,
 591:minmea.c      ****             &c_true,
 592:minmea.c      ****             &frame->magnetic_track_degrees,
 593:minmea.c      ****             &c_magnetic,
 594:minmea.c      ****             &frame->speed_knots,
 595:minmea.c      ****             &c_knots,
 596:minmea.c      ****             &frame->speed_kph,
 597:minmea.c      ****             &c_kph,
 598:minmea.c      ****             &c_faa_mode))
 599:minmea.c      ****         return false;
 600:minmea.c      ****     if (strcmp(type+2, "VTG"))
 2485              		.loc 1 600 0
 2486 0044 1649     		ldr	r1, .L212+4
 2487 0046 2A20     		movs	r0, #42
 2488 0048 6844     		add	r0, r0, sp
 2489 004a FFF7FEFF 		bl	strcmp
 2490              	.LVL255:
 2491 004e 0028     		cmp	r0, #0
 2492 0050 20D1     		bne	.L211
 601:minmea.c      ****         return false;
 602:minmea.c      ****     // values are only valid with the accompanying characters
 603:minmea.c      ****     if (c_true != 'T')
 2493              		.loc 1 603 0
 2494 0052 2723     		movs	r3, #39
 2495 0054 6B44     		add	r3, r3, sp
 2496 0056 1B78     		ldrb	r3, [r3]
 2497 0058 542B     		cmp	r3, #84
 2498 005a 01D0     		beq	.L207
 604:minmea.c      ****         frame->true_track_degrees.scale = 0;
 2499              		.loc 1 604 0
 2500 005c 0023     		movs	r3, #0
 2501 005e 6360     		str	r3, [r4, #4]
 2502              	.L207:
 605:minmea.c      ****     if (c_magnetic != 'M')
 2503              		.loc 1 605 0
 2504 0060 2623     		movs	r3, #38
 2505 0062 6B44     		add	r3, r3, sp
 2506 0064 1B78     		ldrb	r3, [r3]
 2507 0066 4D2B     		cmp	r3, #77
 2508 0068 01D0     		beq	.L208
 606:minmea.c      ****         frame->magnetic_track_degrees.scale = 0;
 2509              		.loc 1 606 0
 2510 006a 0023     		movs	r3, #0
 2511 006c E360     		str	r3, [r4, #12]
 2512              	.L208:
 607:minmea.c      ****     if (c_knots != 'N')
 2513              		.loc 1 607 0
 2514 006e 2523     		movs	r3, #37
 2515 0070 6B44     		add	r3, r3, sp
 2516 0072 1B78     		ldrb	r3, [r3]
 2517 0074 4E2B     		cmp	r3, #78
 2518 0076 01D0     		beq	.L209
ARM GAS  C:\Users\armst\AppData\Local\Temp\ccFg2asa.s 			page 62


 608:minmea.c      ****         frame->speed_knots.scale = 0;
 2519              		.loc 1 608 0
 2520 0078 0023     		movs	r3, #0
 2521 007a 6361     		str	r3, [r4, #20]
 2522              	.L209:
 609:minmea.c      ****     if (c_kph != 'K')
 2523              		.loc 1 609 0
 2524 007c 09AB     		add	r3, sp, #36
 2525 007e 1B78     		ldrb	r3, [r3]
 2526 0080 4B2B     		cmp	r3, #75
 2527 0082 01D0     		beq	.L210
 610:minmea.c      ****         frame->speed_kph.scale = 0;
 2528              		.loc 1 610 0
 2529 0084 0023     		movs	r3, #0
 2530 0086 E361     		str	r3, [r4, #28]
 2531              	.L210:
 611:minmea.c      ****     frame->faa_mode = (enum minmea_faa_mode)c_faa_mode;
 2532              		.loc 1 611 0
 2533 0088 2323     		movs	r3, #35
 2534 008a 6B44     		add	r3, r3, sp
 2535 008c 1A78     		ldrb	r2, [r3]
 2536 008e 2023     		movs	r3, #32
 2537 0090 E254     		strb	r2, [r4, r3]
 612:minmea.c      **** 
 613:minmea.c      ****     return true;
 2538              		.loc 1 613 0
 2539 0092 00E0     		b	.L206
 2540              	.L211:
 601:minmea.c      ****     // values are only valid with the accompanying characters
 2541              		.loc 1 601 0
 2542 0094 0025     		movs	r5, #0
 2543              	.L206:
 614:minmea.c      **** }
 2544              		.loc 1 614 0
 2545 0096 2800     		movs	r0, r5
 2546 0098 0DB0     		add	sp, sp, #52
 2547              		@ sp needed
 2548              	.LVL256:
 2549 009a 30BD     		pop	{r4, r5, pc}
 2550              	.L213:
 2551              		.align	2
 2552              	.L212:
 2553 009c 98000000 		.word	.LC45
 2554 00a0 20000000 		.word	.LC20
 2555              		.cfi_endproc
 2556              	.LFE17:
 2557              		.size	minmea_parse_vtg, .-minmea_parse_vtg
 2558              		.section	.text.minmea_parse_zda,"ax",%progbits
 2559              		.align	2
 2560              		.global	minmea_parse_zda
 2561              		.code	16
 2562              		.thumb_func
 2563              		.type	minmea_parse_zda, %function
 2564              	minmea_parse_zda:
 2565              	.LFB18:
 615:minmea.c      **** 
 616:minmea.c      **** bool minmea_parse_zda(struct minmea_sentence_zda *frame, const char *sentence)
ARM GAS  C:\Users\armst\AppData\Local\Temp\ccFg2asa.s 			page 63


 617:minmea.c      **** {
 2566              		.loc 1 617 0
 2567              		.cfi_startproc
 2568              		@ args = 0, pretend = 0, frame = 8
 2569              		@ frame_needed = 0, uses_anonymous_args = 0
 2570              	.LVL257:
 2571 0000 30B5     		push	{r4, r5, lr}
 2572              		.cfi_def_cfa_offset 12
 2573              		.cfi_offset 4, -12
 2574              		.cfi_offset 5, -8
 2575              		.cfi_offset 14, -4
 2576 0002 89B0     		sub	sp, sp, #36
 2577              		.cfi_def_cfa_offset 48
 2578 0004 0400     		movs	r4, r0
 2579 0006 0800     		movs	r0, r1
 2580              	.LVL258:
 618:minmea.c      ****   // $GPZDA,201530.00,04,07,2002,00,00*60
 619:minmea.c      ****   char type[6];
 620:minmea.c      **** 
 621:minmea.c      ****   if(!minmea_scan(sentence, "tTiiiii",
 2581              		.loc 1 621 0
 2582 0008 2300     		movs	r3, r4
 2583 000a 2033     		adds	r3, r3, #32
 2584 000c 0493     		str	r3, [sp, #16]
 2585 000e 043B     		subs	r3, r3, #4
 2586 0010 0393     		str	r3, [sp, #12]
 2587 0012 043B     		subs	r3, r3, #4
 2588 0014 0293     		str	r3, [sp, #8]
 2589 0016 043B     		subs	r3, r3, #4
 2590 0018 0193     		str	r3, [sp, #4]
 2591 001a 043B     		subs	r3, r3, #4
 2592 001c 0093     		str	r3, [sp]
 2593 001e 2300     		movs	r3, r4
 2594 0020 06AA     		add	r2, sp, #24
 2595 0022 1049     		ldr	r1, .L219
 2596              	.LVL259:
 2597 0024 FFF7FEFF 		bl	minmea_scan
 2598              	.LVL260:
 2599 0028 051E     		subs	r5, r0, #0
 2600 002a 18D0     		beq	.L215
 622:minmea.c      ****           type,
 623:minmea.c      ****           &frame->time,
 624:minmea.c      ****           &frame->date.day,
 625:minmea.c      ****           &frame->date.month,
 626:minmea.c      ****           &frame->date.year,
 627:minmea.c      ****           &frame->hour_offset,
 628:minmea.c      ****           &frame->minute_offset))
 629:minmea.c      ****       return false;
 630:minmea.c      ****   if (strcmp(type+2, "ZDA"))
 2601              		.loc 1 630 0
 2602 002c 0E49     		ldr	r1, .L219+4
 2603 002e 1A20     		movs	r0, #26
 2604 0030 6844     		add	r0, r0, sp
 2605 0032 FFF7FEFF 		bl	strcmp
 2606              	.LVL261:
 2607 0036 0028     		cmp	r0, #0
 2608 0038 0CD1     		bne	.L216
ARM GAS  C:\Users\armst\AppData\Local\Temp\ccFg2asa.s 			page 64


 631:minmea.c      ****       return false;
 632:minmea.c      **** 
 633:minmea.c      ****   // check offsets
 634:minmea.c      ****   if (abs(frame->hour_offset) > 13 ||
 2609              		.loc 1 634 0
 2610 003a E369     		ldr	r3, [r4, #28]
 2611 003c DA17     		asrs	r2, r3, #31
 2612 003e 9B18     		adds	r3, r3, r2
 2613 0040 5340     		eors	r3, r2
 2614 0042 0D2B     		cmp	r3, #13
 2615 0044 08DC     		bgt	.L217
 635:minmea.c      ****       frame->minute_offset > 59 ||
 2616              		.loc 1 635 0 discriminator 1
 2617 0046 236A     		ldr	r3, [r4, #32]
 634:minmea.c      ****       frame->minute_offset > 59 ||
 2618              		.loc 1 634 0 discriminator 1
 2619 0048 3B2B     		cmp	r3, #59
 2620 004a 07DC     		bgt	.L218
 2621              		.loc 1 635 0
 2622 004c 002B     		cmp	r3, #0
 2623 004e 06DA     		bge	.L215
 636:minmea.c      ****       frame->minute_offset < 0)
 637:minmea.c      ****       return false;
 2624              		.loc 1 637 0
 2625 0050 0025     		movs	r5, #0
 2626 0052 04E0     		b	.L215
 2627              	.L216:
 631:minmea.c      **** 
 2628              		.loc 1 631 0
 2629 0054 0025     		movs	r5, #0
 2630 0056 02E0     		b	.L215
 2631              	.L217:
 2632              		.loc 1 637 0
 2633 0058 0025     		movs	r5, #0
 2634 005a 00E0     		b	.L215
 2635              	.L218:
 2636 005c 0025     		movs	r5, #0
 2637              	.L215:
 638:minmea.c      **** 
 639:minmea.c      ****   return true;
 640:minmea.c      **** }
 2638              		.loc 1 640 0
 2639 005e 2800     		movs	r0, r5
 2640 0060 09B0     		add	sp, sp, #36
 2641              		@ sp needed
 2642              	.LVL262:
 2643 0062 30BD     		pop	{r4, r5, pc}
 2644              	.L220:
 2645              		.align	2
 2646              	.L219:
 2647 0064 A4000000 		.word	.LC48
 2648 0068 24000000 		.word	.LC22
 2649              		.cfi_endproc
 2650              	.LFE18:
 2651              		.size	minmea_parse_zda, .-minmea_parse_zda
 2652              		.section	.text.minmea_getdatetime,"ax",%progbits
 2653              		.align	2
ARM GAS  C:\Users\armst\AppData\Local\Temp\ccFg2asa.s 			page 65


 2654              		.global	minmea_getdatetime
 2655              		.code	16
 2656              		.thumb_func
 2657              		.type	minmea_getdatetime, %function
 2658              	minmea_getdatetime:
 2659              	.LFB19:
 641:minmea.c      **** 
 642:minmea.c      **** int minmea_getdatetime(struct tm *tm, const struct minmea_date *date, const struct minmea_time *tim
 643:minmea.c      **** {
 2660              		.loc 1 643 0
 2661              		.cfi_startproc
 2662              		@ args = 0, pretend = 0, frame = 0
 2663              		@ frame_needed = 0, uses_anonymous_args = 0
 2664              	.LVL263:
 2665 0000 70B5     		push	{r4, r5, r6, lr}
 2666              		.cfi_def_cfa_offset 16
 2667              		.cfi_offset 4, -16
 2668              		.cfi_offset 5, -12
 2669              		.cfi_offset 6, -8
 2670              		.cfi_offset 14, -4
 2671 0002 0400     		movs	r4, r0
 2672 0004 0D00     		movs	r5, r1
 2673 0006 1600     		movs	r6, r2
 644:minmea.c      ****     if (date->year == -1 || time_->hours == -1)
 2674              		.loc 1 644 0
 2675 0008 8868     		ldr	r0, [r1, #8]
 2676              	.LVL264:
 2677 000a 431C     		adds	r3, r0, #1
 2678 000c 22D0     		beq	.L222
 2679              		.loc 1 644 0 is_stmt 0 discriminator 1
 2680 000e 1068     		ldr	r0, [r2]
 2681 0010 431C     		adds	r3, r0, #1
 2682 0012 1FD0     		beq	.L222
 645:minmea.c      ****         return -1;
 646:minmea.c      **** 
 647:minmea.c      ****     memset(tm, 0, sizeof(*tm));
 2683              		.loc 1 647 0 is_stmt 1
 2684 0014 2422     		movs	r2, #36
 2685              	.LVL265:
 2686 0016 0021     		movs	r1, #0
 2687              	.LVL266:
 2688 0018 2000     		movs	r0, r4
 2689 001a FFF7FEFF 		bl	memset
 2690              	.LVL267:
 648:minmea.c      ****     if (date->year < 80) {
 2691              		.loc 1 648 0
 2692 001e AB68     		ldr	r3, [r5, #8]
 2693 0020 4F2B     		cmp	r3, #79
 2694 0022 02DC     		bgt	.L223
 649:minmea.c      ****         tm->tm_year = 2000 + date->year - 1900; // 2000-2079
 2695              		.loc 1 649 0
 2696 0024 6433     		adds	r3, r3, #100
 2697 0026 6361     		str	r3, [r4, #20]
 2698 0028 08E0     		b	.L224
 2699              	.L223:
 650:minmea.c      ****     } else if (date->year >= 1900) {
 2700              		.loc 1 650 0
ARM GAS  C:\Users\armst\AppData\Local\Temp\ccFg2asa.s 			page 66


 2701 002a 0B4A     		ldr	r2, .L226
 2702 002c 9342     		cmp	r3, r2
 2703 002e 04DD     		ble	.L225
 651:minmea.c      ****         tm->tm_year = date->year - 1900;        // 4 digit year, use directly
 2704              		.loc 1 651 0
 2705 0030 0A4A     		ldr	r2, .L226+4
 2706 0032 9446     		mov	ip, r2
 2707 0034 6344     		add	r3, r3, ip
 2708 0036 6361     		str	r3, [r4, #20]
 2709 0038 00E0     		b	.L224
 2710              	.L225:
 652:minmea.c      ****     } else {
 653:minmea.c      ****         tm->tm_year = date->year;               // 1980-1999
 2711              		.loc 1 653 0
 2712 003a 6361     		str	r3, [r4, #20]
 2713              	.L224:
 654:minmea.c      ****     }
 655:minmea.c      ****     tm->tm_mon = date->month - 1;
 2714              		.loc 1 655 0
 2715 003c 6B68     		ldr	r3, [r5, #4]
 2716 003e 013B     		subs	r3, r3, #1
 2717 0040 2361     		str	r3, [r4, #16]
 656:minmea.c      ****     tm->tm_mday = date->day;
 2718              		.loc 1 656 0
 2719 0042 2B68     		ldr	r3, [r5]
 2720 0044 E360     		str	r3, [r4, #12]
 657:minmea.c      ****     tm->tm_hour = time_->hours;
 2721              		.loc 1 657 0
 2722 0046 3368     		ldr	r3, [r6]
 2723 0048 A360     		str	r3, [r4, #8]
 658:minmea.c      ****     tm->tm_min = time_->minutes;
 2724              		.loc 1 658 0
 2725 004a 7368     		ldr	r3, [r6, #4]
 2726 004c 6360     		str	r3, [r4, #4]
 659:minmea.c      ****     tm->tm_sec = time_->seconds;
 2727              		.loc 1 659 0
 2728 004e B368     		ldr	r3, [r6, #8]
 2729 0050 2360     		str	r3, [r4]
 660:minmea.c      **** 
 661:minmea.c      ****     return 0;
 2730              		.loc 1 661 0
 2731 0052 0020     		movs	r0, #0
 2732              	.L222:
 662:minmea.c      **** }
 2733              		.loc 1 662 0
 2734              		@ sp needed
 2735              	.LVL268:
 2736              	.LVL269:
 2737              	.LVL270:
 2738 0054 70BD     		pop	{r4, r5, r6, pc}
 2739              	.L227:
 2740 0056 C046     		.align	2
 2741              	.L226:
 2742 0058 6B070000 		.word	1899
 2743 005c 94F8FFFF 		.word	-1900
 2744              		.cfi_endproc
 2745              	.LFE19:
ARM GAS  C:\Users\armst\AppData\Local\Temp\ccFg2asa.s 			page 67


 2746              		.size	minmea_getdatetime, .-minmea_getdatetime
 2747              		.section	.rodata.str1.4,"aMS",%progbits,1
 2748              		.align	2
 2749              	.LC3:
 2750 0000 7400     		.ascii	"t\000"
 2751 0002 0000     		.space	2
 2752              	.LC6:
 2753 0004 47425300 		.ascii	"GBS\000"
 2754              	.LC8:
 2755 0008 47474100 		.ascii	"GGA\000"
 2756              	.LC10:
 2757 000c 474C4C00 		.ascii	"GLL\000"
 2758              	.LC12:
 2759 0010 47534100 		.ascii	"GSA\000"
 2760              	.LC14:
 2761 0014 47535400 		.ascii	"GST\000"
 2762              	.LC16:
 2763 0018 47535600 		.ascii	"GSV\000"
 2764              	.LC18:
 2765 001c 524D4300 		.ascii	"RMC\000"
 2766              	.LC20:
 2767 0020 56544700 		.ascii	"VTG\000"
 2768              	.LC22:
 2769 0024 5A444100 		.ascii	"ZDA\000"
 2770              	.LC24:
 2771 0028 74546666 		.ascii	"tTfffifff\000"
 2771      66696666 
 2771      6600
 2772 0032 0000     		.space	2
 2773              	.LC27:
 2774 0034 74546366 		.ascii	"tTcfdfdffDfd\000"
 2774      64666466 
 2774      66446664 
 2774      00
 2775 0041 000000   		.space	3
 2776              	.LC30:
 2777 0044 74546664 		.ascii	"tTfdfdiiffcfcf_\000"
 2777      66646969 
 2777      66666366 
 2777      63665F00 
 2778              	.LC33:
 2779 0054 74636969 		.ascii	"tciiiiiiiiiiiiifff\000"
 2779      69696969 
 2779      69696969 
 2779      69696966 
 2779      666600
 2780 0067 00       		.space	1
 2781              	.LC36:
 2782 0068 74666466 		.ascii	"tfdfdTc;c\000"
 2782      6454633B 
 2782      6300
 2783 0072 0000     		.space	2
 2784              	.LC39:
 2785 0074 74546666 		.ascii	"tTfffffff\000"
 2785      66666666 
 2785      6600
 2786 007e 0000     		.space	2
ARM GAS  C:\Users\armst\AppData\Local\Temp\ccFg2asa.s 			page 68


 2787              	.LC42:
 2788 0080 74696969 		.ascii	"tiii;iiiiiiiiiiiiiiii\000"
 2788      3B696969 
 2788      69696969 
 2788      69696969 
 2788      69696969 
 2789 0096 0000     		.space	2
 2790              	.LC45:
 2791 0098 743B6663 		.ascii	"t;fcfcfcfcc\000"
 2791      66636663 
 2791      66636300 
 2792              	.LC48:
 2793 00a4 74546969 		.ascii	"tTiiiii\000"
 2793      69696900 
 2794              		.text
 2795              	.Letext0:
 2796              		.file 3 "c:\\program files (x86)\\cypress\\psoc creator\\4.4\\psoc creator\\import\\gnu\\arm\\5.4.
 2797              		.file 4 "c:\\program files (x86)\\cypress\\psoc creator\\4.4\\psoc creator\\import\\gnu\\arm\\5.4.
 2798              		.file 5 "c:\\program files (x86)\\cypress\\psoc creator\\4.4\\psoc creator\\import\\gnu\\arm\\5.4.
 2799              		.file 6 "c:\\program files (x86)\\cypress\\psoc creator\\4.4\\psoc creator\\import\\gnu\\arm\\5.4.
 2800              		.file 7 "<built-in>"
 2801              		.file 8 "c:\\program files (x86)\\cypress\\psoc creator\\4.4\\psoc creator\\import\\gnu\\arm\\5.4.
 2802              		.file 9 "c:\\program files (x86)\\cypress\\psoc creator\\4.4\\psoc creator\\import\\gnu\\arm\\5.4.
 2803              		.file 10 "c:\\program files (x86)\\cypress\\psoc creator\\4.4\\psoc creator\\import\\gnu\\arm\\5.4
 2804              		.file 11 "c:\\program files (x86)\\cypress\\psoc creator\\4.4\\psoc creator\\import\\gnu\\arm\\5.4