ARM GAS  C:\Users\armst\AppData\Local\Temp\ccFg2asa.s 			page 1


   1              		.syntax unified
   2              		.cpu cortex-m0plus
   3              		.fpu softvfp
   4              		.eabi_attribute 20, 1
   5              		.eabi_attribute 21, 1
   6              		.eabi_attribute 23, 3
   7              		.eabi_attribute 24, 1
   8              		.eabi_attribute 25, 1
   9              		.eabi_attribute 26, 1
  10              		.eabi_attribute 30, 1
  11              		.eabi_attribute 34, 0
  12              		.eabi_attribute 18, 4
  13              		.thumb
  14              		.syntax unified
  15              		.file	"minmea.c"
  16              		.text
  17              	.Ltext0:
  18              		.cfi_sections	.debug_frame
  19              		.section	.text.hex2int,"ax",%progbits
  20              		.align	2
  21              		.code	16
  22              		.thumb_func
  23              		.type	hex2int, %function
  24              	hex2int:
  25              	.LFB4:
  26              		.file 1 "minmea.c"
   1:minmea.c      **** /*
   2:minmea.c      ****  * Copyright © 2014 Kosma Moczek <kosma@cloudyourcar.com>
   3:minmea.c      ****  * This program is free software. It comes without any warranty, to the extent
   4:minmea.c      ****  * permitted by applicable law. You can redistribute it and/or modify it under
   5:minmea.c      ****  * the terms of the Do What The Fuck You Want To Public License, Version 2, as
   6:minmea.c      ****  * published by Sam Hocevar. See the COPYING file for more details.
   7:minmea.c      ****  * Source: https://github.com/kosma/minmea/tree/master
   8:minmea.c      ****  */
   9:minmea.c      **** 
  10:minmea.c      **** #include "minmea.h"
  11:minmea.c      **** 
  12:minmea.c      **** #include <stdlib.h>
  13:minmea.c      **** #include <string.h>
  14:minmea.c      **** #include <stdarg.h>
  15:minmea.c      **** 
  16:minmea.c      **** #define boolstr(s) ((s) ? "true" : "false")
  17:minmea.c      **** 
  18:minmea.c      **** static int hex2int(char c)
  19:minmea.c      **** {
  27              		.loc 1 19 0
  28              		.cfi_startproc
  29              		@ args = 0, pretend = 0, frame = 0
  30              		@ frame_needed = 0, uses_anonymous_args = 0
  31              		@ link register save eliminated.
  32              	.LVL0:
  20:minmea.c      ****     if (c >= '0' && c <= '9')
  33              		.loc 1 20 0
  34 0000 0300     		movs	r3, r0
  35 0002 303B     		subs	r3, r3, #48
  36 0004 DBB2     		uxtb	r3, r3
  37 0006 092B     		cmp	r3, #9
ARM GAS  C:\Users\armst\AppData\Local\Temp\ccFg2asa.s 			page 2


  38 0008 01D8     		bhi	.L2
  21:minmea.c      ****         return c - '0';
  39              		.loc 1 21 0
  40 000a 3038     		subs	r0, r0, #48
  41              	.LVL1:
  42 000c 0FE0     		b	.L3
  43              	.LVL2:
  44              	.L2:
  22:minmea.c      ****     if (c >= 'A' && c <= 'F')
  45              		.loc 1 22 0
  46 000e 0300     		movs	r3, r0
  47 0010 413B     		subs	r3, r3, #65
  48 0012 DBB2     		uxtb	r3, r3
  49 0014 052B     		cmp	r3, #5
  50 0016 01D8     		bhi	.L4
  23:minmea.c      ****         return c - 'A' + 10;
  51              		.loc 1 23 0
  52 0018 3738     		subs	r0, r0, #55
  53              	.LVL3:
  54 001a 08E0     		b	.L3
  55              	.LVL4:
  56              	.L4:
  24:minmea.c      ****     if (c >= 'a' && c <= 'f')
  57              		.loc 1 24 0
  58 001c 0300     		movs	r3, r0
  59 001e 613B     		subs	r3, r3, #97
  60 0020 DBB2     		uxtb	r3, r3
  61 0022 052B     		cmp	r3, #5
  62 0024 01D8     		bhi	.L5
  25:minmea.c      ****         return c - 'a' + 10;
  63              		.loc 1 25 0
  64 0026 5738     		subs	r0, r0, #87
  65              	.LVL5:
  66 0028 01E0     		b	.L3
  67              	.LVL6:
  68              	.L5:
  26:minmea.c      ****     return -1;
  69              		.loc 1 26 0
  70 002a 0120     		movs	r0, #1
  71              	.LVL7:
  72 002c 4042     		rsbs	r0, r0, #0
  73              	.L3:
  27:minmea.c      **** }
  74              		.loc 1 27 0
  75              		@ sp needed
  76 002e 7047     		bx	lr
  77              		.cfi_endproc
  78              	.LFE4:
  79              		.size	hex2int, .-hex2int
  80              		.section	.text.minmea_checksum,"ax",%progbits
  81              		.align	2
  82              		.global	minmea_checksum
  83              		.code	16
  84              		.thumb_func
  85              		.type	minmea_checksum, %function
  86              	minmea_checksum:
  87              	.LFB5:
ARM GAS  C:\Users\armst\AppData\Local\Temp\ccFg2asa.s 			page 3


  28:minmea.c      **** 
  29:minmea.c      **** uint8_t minmea_checksum(const char *sentence)
  30:minmea.c      **** {
  88              		.loc 1 30 0
  89              		.cfi_startproc
  90              		@ args = 0, pretend = 0, frame = 0
  91              		@ frame_needed = 0, uses_anonymous_args = 0
  92              		@ link register save eliminated.
  93              	.LVL8:
  94 0000 0200     		movs	r2, r0
  31:minmea.c      ****     // Support senteces with or without the starting dollar sign.
  32:minmea.c      ****     if (*sentence == '$')
  95              		.loc 1 32 0
  96 0002 0378     		ldrb	r3, [r0]
  97 0004 242B     		cmp	r3, #36
  98 0006 00D1     		bne	.L7
  33:minmea.c      ****         sentence++;
  99              		.loc 1 33 0
 100 0008 0132     		adds	r2, r2, #1
 101              	.LVL9:
 102              	.L7:
  30:minmea.c      ****     // Support senteces with or without the starting dollar sign.
 103              		.loc 1 30 0
 104 000a 0020     		movs	r0, #0
 105 000c 01E0     		b	.L8
 106              	.LVL10:
 107              	.L10:
  34:minmea.c      **** 
  35:minmea.c      ****     uint8_t checksum = 0x00;
  36:minmea.c      **** 
  37:minmea.c      ****     // The optional checksum is an XOR of all bytes between "$" and "*".
  38:minmea.c      ****     while (*sentence && *sentence != '*')
  39:minmea.c      ****         checksum ^= *sentence++;
 108              		.loc 1 39 0
 109 000e 0132     		adds	r2, r2, #1
 110              	.LVL11:
 111 0010 5840     		eors	r0, r3
 112              	.LVL12:
 113              	.L8:
  38:minmea.c      ****         checksum ^= *sentence++;
 114              		.loc 1 38 0
 115 0012 1378     		ldrb	r3, [r2]
 116 0014 002B     		cmp	r3, #0
 117 0016 01D0     		beq	.L9
  38:minmea.c      ****         checksum ^= *sentence++;
 118              		.loc 1 38 0 is_stmt 0 discriminator 1
 119 0018 2A2B     		cmp	r3, #42
 120 001a F8D1     		bne	.L10
 121              	.L9:
  40:minmea.c      **** 
  41:minmea.c      ****     return checksum;
  42:minmea.c      **** }
 122              		.loc 1 42 0 is_stmt 1
 123              		@ sp needed
 124 001c 7047     		bx	lr
 125              		.cfi_endproc
 126              	.LFE5:
ARM GAS  C:\Users\armst\AppData\Local\Temp\ccFg2asa.s 			page 4


 127              		.size	minmea_checksum, .-minmea_checksum
 128 001e C046     		.section	.text.minmea_check,"ax",%progbits
 129              		.align	2
 130              		.global	minmea_check
 131              		.code	16
 132              		.thumb_func
 133              		.type	minmea_check, %function
 134              	minmea_check:
 135              	.LFB6:
  43:minmea.c      **** 
  44:minmea.c      **** bool minmea_check(const char *sentence, bool strict)
  45:minmea.c      **** {
 136              		.loc 1 45 0
 137              		.cfi_startproc
 138              		@ args = 0, pretend = 0, frame = 0
 139              		@ frame_needed = 0, uses_anonymous_args = 0
 140              	.LVL13:
 141 0000 F8B5     		push	{r3, r4, r5, r6, r7, lr}
 142              		.cfi_def_cfa_offset 24
 143              		.cfi_offset 3, -24
 144              		.cfi_offset 4, -20
 145              		.cfi_offset 5, -16
 146              		.cfi_offset 6, -12
 147              		.cfi_offset 7, -8
 148              		.cfi_offset 14, -4
 149              	.LVL14:
  46:minmea.c      ****     uint8_t checksum = 0x00;
  47:minmea.c      **** 
  48:minmea.c      ****     // A valid sentence starts with "$".
  49:minmea.c      ****     if (*sentence++ != '$')
 150              		.loc 1 49 0
 151 0002 441C     		adds	r4, r0, #1
 152              	.LVL15:
 153 0004 0378     		ldrb	r3, [r0]
 154 0006 242B     		cmp	r3, #36
 155 0008 30D1     		bne	.L20
 156 000a 0025     		movs	r5, #0
 157 000c 01E0     		b	.L13
 158              	.LVL16:
 159              	.L15:
  50:minmea.c      ****         return false;
  51:minmea.c      **** 
  52:minmea.c      ****     // The optional checksum is an XOR of all bytes between "$" and "*".
  53:minmea.c      ****     while (*sentence && *sentence != '*' && isprint((unsigned char) *sentence))
  54:minmea.c      ****         checksum ^= *sentence++;
 160              		.loc 1 54 0
 161 000e 0134     		adds	r4, r4, #1
 162              	.LVL17:
 163 0010 5D40     		eors	r5, r3
 164              	.LVL18:
 165              	.L13:
  53:minmea.c      ****         checksum ^= *sentence++;
 166              		.loc 1 53 0
 167 0012 2378     		ldrb	r3, [r4]
 168 0014 002B     		cmp	r3, #0
 169 0016 08D0     		beq	.L14
  53:minmea.c      ****         checksum ^= *sentence++;
ARM GAS  C:\Users\armst\AppData\Local\Temp\ccFg2asa.s 			page 5


 170              		.loc 1 53 0 is_stmt 0 discriminator 1
 171 0018 2A2B     		cmp	r3, #42
 172 001a 06D0     		beq	.L14
  53:minmea.c      ****         checksum ^= *sentence++;
 173              		.loc 1 53 0 discriminator 2
 174 001c 194A     		ldr	r2, .L26
 175 001e 1268     		ldr	r2, [r2]
 176 0020 D218     		adds	r2, r2, r3
 177 0022 5278     		ldrb	r2, [r2, #1]
 178 0024 6820     		movs	r0, #104
 179 0026 8243     		bics	r2, r0
 180 0028 F1D1     		bne	.L15
 181              	.L14:
  55:minmea.c      **** 
  56:minmea.c      ****     // If checksum is present...
  57:minmea.c      ****     if (*sentence == '*') {
 182              		.loc 1 57 0 is_stmt 1
 183 002a 2A2B     		cmp	r3, #42
 184 002c 11D1     		bne	.L16
 185              	.LVL19:
 186              	.LBB37:
  58:minmea.c      ****         // Extract checksum.
  59:minmea.c      ****         sentence++;
  60:minmea.c      ****         int upper = hex2int(*sentence++);
 187              		.loc 1 60 0
 188 002e 6078     		ldrb	r0, [r4, #1]
 189 0030 FFF7FEFF 		bl	hex2int
 190              	.LVL20:
 191 0034 0600     		movs	r6, r0
 192              	.LVL21:
  61:minmea.c      ****         if (upper == -1)
 193              		.loc 1 61 0
 194 0036 431C     		adds	r3, r0, #1
 195 0038 1AD0     		beq	.L21
  62:minmea.c      ****             return false;
  63:minmea.c      ****         int lower = hex2int(*sentence++);
 196              		.loc 1 63 0
 197 003a E71C     		adds	r7, r4, #3
 198              	.LVL22:
 199 003c A078     		ldrb	r0, [r4, #2]
 200              	.LVL23:
 201 003e FFF7FEFF 		bl	hex2int
 202              	.LVL24:
  64:minmea.c      ****         if (lower == -1)
 203              		.loc 1 64 0
 204 0042 431C     		adds	r3, r0, #1
 205 0044 16D0     		beq	.L22
  65:minmea.c      ****             return false;
  66:minmea.c      ****         int expected = upper << 4 | lower;
 206              		.loc 1 66 0
 207 0046 3601     		lsls	r6, r6, #4
 208              	.LVL25:
 209 0048 3043     		orrs	r0, r6
 210              	.LVL26:
  67:minmea.c      **** 
  68:minmea.c      ****         // Check for checksum mismatch.
  69:minmea.c      ****         if (checksum != expected)
ARM GAS  C:\Users\armst\AppData\Local\Temp\ccFg2asa.s 			page 6


 211              		.loc 1 69 0
 212 004a A842     		cmp	r0, r5
 213 004c 14D1     		bne	.L23
  63:minmea.c      ****         if (lower == -1)
 214              		.loc 1 63 0
 215 004e 3C00     		movs	r4, r7
 216 0050 03E0     		b	.L18
 217              	.LVL27:
 218              	.L16:
 219              	.LBE37:
  70:minmea.c      ****             return false;
  71:minmea.c      ****     } else if (strict) {
 220              		.loc 1 71 0
 221 0052 0029     		cmp	r1, #0
 222 0054 01D0     		beq	.L18
 223 0056 11E0     		b	.L24
 224              	.LVL28:
 225              	.L19:
  72:minmea.c      ****         // Discard non-checksummed frames in strict mode.
  73:minmea.c      ****         return false;
  74:minmea.c      ****     }
  75:minmea.c      **** 
  76:minmea.c      ****     // The only stuff allowed at this point is a newline.
  77:minmea.c      ****     while (*sentence == '\r' || *sentence == '\n') {
  78:minmea.c      ****         sentence++;
 226              		.loc 1 78 0
 227 0058 0134     		adds	r4, r4, #1
 228              	.LVL29:
 229              	.L18:
  77:minmea.c      ****         sentence++;
 230              		.loc 1 77 0
 231 005a 2378     		ldrb	r3, [r4]
 232 005c 0D2B     		cmp	r3, #13
 233 005e FBD0     		beq	.L19
  77:minmea.c      ****         sentence++;
 234              		.loc 1 77 0 is_stmt 0 discriminator 1
 235 0060 0A2B     		cmp	r3, #10
 236 0062 F9D0     		beq	.L19
  79:minmea.c      ****     }
  80:minmea.c      ****     
  81:minmea.c      ****     if (*sentence) {
 237              		.loc 1 81 0 is_stmt 1
 238 0064 002B     		cmp	r3, #0
 239 0066 0BD0     		beq	.L25
  82:minmea.c      ****         return false;
 240              		.loc 1 82 0
 241 0068 0020     		movs	r0, #0
 242 006a 0AE0     		b	.L12
 243              	.LVL30:
 244              	.L20:
  50:minmea.c      **** 
 245              		.loc 1 50 0
 246 006c 0020     		movs	r0, #0
 247 006e 08E0     		b	.L12
 248              	.LVL31:
 249              	.L21:
 250              	.LBB38:
ARM GAS  C:\Users\armst\AppData\Local\Temp\ccFg2asa.s 			page 7


  62:minmea.c      ****         int lower = hex2int(*sentence++);
 251              		.loc 1 62 0
 252 0070 0020     		movs	r0, #0
 253              	.LVL32:
 254 0072 06E0     		b	.L12
 255              	.LVL33:
 256              	.L22:
  65:minmea.c      ****         int expected = upper << 4 | lower;
 257              		.loc 1 65 0
 258 0074 0020     		movs	r0, #0
 259              	.LVL34:
 260 0076 04E0     		b	.L12
 261              	.LVL35:
 262              	.L23:
  70:minmea.c      ****     } else if (strict) {
 263              		.loc 1 70 0
 264 0078 0020     		movs	r0, #0
 265              	.LVL36:
 266 007a 02E0     		b	.L12
 267              	.LVL37:
 268              	.L24:
 269              	.LBE38:
  73:minmea.c      ****     }
 270              		.loc 1 73 0
 271 007c 0020     		movs	r0, #0
 272 007e 00E0     		b	.L12
 273              	.LVL38:
 274              	.L25:
  83:minmea.c      ****     }
  84:minmea.c      **** 
  85:minmea.c      ****     return true;
 275              		.loc 1 85 0
 276 0080 0120     		movs	r0, #1
 277              	.LVL39:
 278              	.L12:
  86:minmea.c      **** }
 279              		.loc 1 86 0
 280              		@ sp needed
 281 0082 F8BD     		pop	{r3, r4, r5, r6, r7, pc}
 282              	.L27:
 283              		.align	2
 284              	.L26:
 285 0084 00000000 		.word	__ctype_ptr__
 286              		.cfi_endproc
 287              	.LFE6:
 288              		.size	minmea_check, .-minmea_check
 289              		.global	__aeabi_idiv
 290              		.global	__aeabi_uidiv
 291              		.section	.text.minmea_scan,"ax",%progbits
 292              		.align	2
 293              		.global	minmea_scan
 294              		.code	16
 295              		.thumb_func
 296              		.type	minmea_scan, %function
 297              	minmea_scan:
 298              	.LFB7:
  87:minmea.c      **** 
ARM GAS  C:\Users\armst\AppData\Local\Temp\ccFg2asa.s 			page 8


  88:minmea.c      **** bool minmea_scan(const char *sentence, const char *format, ...)
  89:minmea.c      **** {
 299              		.loc 1 89 0
 300              		.cfi_startproc
 301              		@ args = 4, pretend = 12, frame = 24
 302              		@ frame_needed = 0, uses_anonymous_args = 1
 303              	.LVL40:
 304 0000 0EB4     		push	{r1, r2, r3}
 305              		.cfi_def_cfa_offset 12
 306 0002 F0B5     		push	{r4, r5, r6, r7, lr}
 307              		.cfi_def_cfa_offset 32
 308              		.cfi_offset 4, -32
 309              		.cfi_offset 5, -28
 310              		.cfi_offset 6, -24
 311              		.cfi_offset 7, -20
 312              		.cfi_offset 14, -16
 313 0004 5F46     		mov	r7, fp
 314 0006 5646     		mov	r6, r10
 315 0008 4D46     		mov	r5, r9
 316 000a 4446     		mov	r4, r8
 317 000c F0B4     		push	{r4, r5, r6, r7}
 318              		.cfi_def_cfa_offset 48
 319              		.cfi_offset 8, -48
 320              		.cfi_offset 9, -44
 321              		.cfi_offset 10, -40
 322              		.cfi_offset 11, -36
 323 000e 86B0     		sub	sp, sp, #24
 324              		.cfi_def_cfa_offset 72
 325 0010 041E     		subs	r4, r0, #0
 326 0012 0F9E     		ldr	r6, [sp, #60]
 327              	.LVL41:
  90:minmea.c      ****     bool result = false;
  91:minmea.c      ****     bool optional = false;
  92:minmea.c      **** 
  93:minmea.c      ****     if (sentence == NULL)
 328              		.loc 1 93 0
 329 0014 00D1     		bne	.LCB325
 330 0016 8CE2     		b	.L93	@long jump
 331              	.LCB325:
  94:minmea.c      ****         return false;
  95:minmea.c      **** 
  96:minmea.c      ****     va_list ap;
  97:minmea.c      ****     va_start(ap, format);
 332              		.loc 1 97 0
 333 0018 10AB     		add	r3, sp, #64
 334 001a 0593     		str	r3, [sp, #20]
 335              	.LVL42:
  98:minmea.c      **** 
  99:minmea.c      ****     const char *field = sentence;
 336              		.loc 1 99 0
 337 001c 0500     		movs	r5, r0
  91:minmea.c      **** 
 338              		.loc 1 91 0
 339 001e 0023     		movs	r3, #0
 340 0020 9846     		mov	r8, r3
 100:minmea.c      **** #define next_field() \
 101:minmea.c      ****     do { \
ARM GAS  C:\Users\armst\AppData\Local\Temp\ccFg2asa.s 			page 9


 102:minmea.c      ****         /* Progress to the next field. */ \
 103:minmea.c      ****         while (minmea_isfield(*sentence)) \
 104:minmea.c      ****             sentence++; \
 105:minmea.c      ****         /* Make sure there is a field there. */ \
 106:minmea.c      ****         if (*sentence == ',') { \
 107:minmea.c      ****             sentence++; \
 108:minmea.c      ****             field = sentence; \
 109:minmea.c      ****         } else { \
 110:minmea.c      ****             field = NULL; \
 111:minmea.c      ****         } \
 112:minmea.c      ****     } while (0)
 113:minmea.c      **** 
 114:minmea.c      ****     while (*format) {
 341              		.loc 1 114 0
 342 0022 6AE2     		b	.L30
 343              	.LVL43:
 344              	.L92:
 345              	.LBB39:
 115:minmea.c      ****         char type = *format++;
 346              		.loc 1 115 0
 347 0024 0136     		adds	r6, r6, #1
 348              	.LVL44:
 116:minmea.c      **** 
 117:minmea.c      ****         if (type == ';') {
 349              		.loc 1 117 0
 350 0026 3B2B     		cmp	r3, #59
 351 0028 00D1     		bne	.LCB346
 352 002a 62E2     		b	.L94	@long jump
 353              	.LCB346:
 118:minmea.c      ****             // All further fields are optional.
 119:minmea.c      ****             optional = true;
 120:minmea.c      ****             continue;
 121:minmea.c      ****         }
 122:minmea.c      **** 
 123:minmea.c      ****         if (!field && !optional) {
 354              		.loc 1 123 0
 355 002c 002D     		cmp	r5, #0
 356 002e 03D1     		bne	.L32
 357              		.loc 1 123 0 is_stmt 0 discriminator 1
 358 0030 4246     		mov	r2, r8
 359 0032 002A     		cmp	r2, #0
 360 0034 00D1     		bne	.LCB351
 361 0036 66E2     		b	.L95	@long jump
 362              	.LCB351:
 363              	.L32:
 124:minmea.c      ****             // Field requested but we ran out if input. Bail out.
 125:minmea.c      ****             goto parse_error;
 126:minmea.c      ****         }
 127:minmea.c      **** 
 128:minmea.c      ****         switch (type) {
 364              		.loc 1 128 0 is_stmt 1
 365 0038 443B     		subs	r3, r3, #68
 366              	.LVL45:
 367 003a DAB2     		uxtb	r2, r3
 368 003c 302A     		cmp	r2, #48
 369 003e 00D9     		bls	.LCB357
 370 0040 63E2     		b	.L96	@long jump
ARM GAS  C:\Users\armst\AppData\Local\Temp\ccFg2asa.s 			page 10


 371              	.LCB357:
 372 0042 9300     		lsls	r3, r2, #2
 373 0044 A54A     		ldr	r2, .L151
 374 0046 D358     		ldr	r3, [r2, r3]
 375 0048 9F46     		mov	pc, r3
 376              		.section	.rodata
 377              		.align	2
 378              	.L35:
 379 0000 0C030000 		.word	.L34
 380 0004 0A050000 		.word	.L96
 381 0008 0A050000 		.word	.L96
 382 000c 0A050000 		.word	.L96
 383 0010 0A050000 		.word	.L96
 384 0014 0A050000 		.word	.L96
 385 0018 0A050000 		.word	.L96
 386 001c 0A050000 		.word	.L96
 387 0020 0A050000 		.word	.L96
 388 0024 0A050000 		.word	.L96
 389 0028 0A050000 		.word	.L96
 390 002c 0A050000 		.word	.L96
 391 0030 0A050000 		.word	.L96
 392 0034 0A050000 		.word	.L96
 393 0038 0A050000 		.word	.L96
 394 003c 0A050000 		.word	.L96
 395 0040 BE030000 		.word	.L36
 396 0044 0A050000 		.word	.L96
 397 0048 0A050000 		.word	.L96
 398 004c 0A050000 		.word	.L96
 399 0050 0A050000 		.word	.L96
 400 0054 0A050000 		.word	.L96
 401 0058 0A050000 		.word	.L96
 402 005c 0A050000 		.word	.L96
 403 0060 0A050000 		.word	.L96
 404 0064 0A050000 		.word	.L96
 405 0068 0A050000 		.word	.L96
 406 006c BE040000 		.word	.L65
 407 0070 0A050000 		.word	.L96
 408 0074 0A050000 		.word	.L96
 409 0078 0A050000 		.word	.L96
 410 007c 4A000000 		.word	.L38
 411 0080 8A000000 		.word	.L39
 412 0084 0A050000 		.word	.L96
 413 0088 EA000000 		.word	.L40
 414 008c 0A050000 		.word	.L96
 415 0090 0A050000 		.word	.L96
 416 0094 12020000 		.word	.L41
 417 0098 0A050000 		.word	.L96
 418 009c 0A050000 		.word	.L96
 419 00a0 0A050000 		.word	.L96
 420 00a4 0A050000 		.word	.L96
 421 00a8 0A050000 		.word	.L96
 422 00ac 0A050000 		.word	.L96
 423 00b0 0A050000 		.word	.L96
 424 00b4 0A050000 		.word	.L96
 425 00b8 0A050000 		.word	.L96
 426 00bc 5E020000 		.word	.L42
 427 00c0 A2020000 		.word	.L43
ARM GAS  C:\Users\armst\AppData\Local\Temp\ccFg2asa.s 			page 11


 428              		.section	.text.minmea_scan
 429              	.L38:
 430              	.LVL46:
 431              	.LBB40:
 129:minmea.c      ****             case 'c': { // Single character field (char).
 130:minmea.c      ****                 char value = '\0';
 131:minmea.c      **** 
 132:minmea.c      ****                 if (field && minmea_isfield(*field))
 432              		.loc 1 132 0
 433 004a 002D     		cmp	r5, #0
 434 004c 16D0     		beq	.L97
 435              		.loc 1 132 0 is_stmt 0 discriminator 1
 436 004e 2B78     		ldrb	r3, [r5]
 437              	.LVL47:
 438              	.LBB41:
 439              	.LBB42:
 440              		.file 2 "minmea.h"
   1:minmea.h      **** /*
   2:minmea.h      ****  * Copyright © 2014 Kosma Moczek <kosma@cloudyourcar.com>
   3:minmea.h      ****  * This program is free software. It comes without any warranty, to the extent
   4:minmea.h      ****  * permitted by applicable law. You can redistribute it and/or modify it under
   5:minmea.h      ****  * the terms of the Do What The Fuck You Want To Public License, Version 2, as
   6:minmea.h      ****  * published by Sam Hocevar. See the COPYING file for more details.
   7:minmea.h      ****  * Source: https://github.com/kosma/minmea/tree/master
   8:minmea.h      ****  */
   9:minmea.h      **** 
  10:minmea.h      **** #ifndef MINMEA_H
  11:minmea.h      **** #define MINMEA_H
  12:minmea.h      **** 
  13:minmea.h      **** #ifdef __cplusplus
  14:minmea.h      **** extern "C" {
  15:minmea.h      **** #endif
  16:minmea.h      **** 
  17:minmea.h      **** #include <ctype.h>
  18:minmea.h      **** #include <stdint.h>
  19:minmea.h      **** #include <stdbool.h>
  20:minmea.h      **** #include <time.h>
  21:minmea.h      **** #include <math.h>
  22:minmea.h      **** #ifdef MINMEA_INCLUDE_COMPAT
  23:minmea.h      **** #include <minmea_compat.h>
  24:minmea.h      **** #endif
  25:minmea.h      **** 
  26:minmea.h      **** #ifndef MINMEA_MAX_SENTENCE_LENGTH
  27:minmea.h      **** #define MINMEA_MAX_SENTENCE_LENGTH 80
  28:minmea.h      **** #endif
  29:minmea.h      **** 
  30:minmea.h      **** enum minmea_sentence_id {
  31:minmea.h      ****     MINMEA_INVALID = -1,
  32:minmea.h      ****     MINMEA_UNKNOWN = 0,
  33:minmea.h      ****     MINMEA_SENTENCE_GBS,
  34:minmea.h      ****     MINMEA_SENTENCE_GGA,
  35:minmea.h      ****     MINMEA_SENTENCE_GLL,
  36:minmea.h      ****     MINMEA_SENTENCE_GSA,
  37:minmea.h      ****     MINMEA_SENTENCE_GST,
  38:minmea.h      ****     MINMEA_SENTENCE_GSV,
  39:minmea.h      ****     MINMEA_SENTENCE_RMC,
  40:minmea.h      ****     MINMEA_SENTENCE_VTG,
ARM GAS  C:\Users\armst\AppData\Local\Temp\ccFg2asa.s 			page 12


  41:minmea.h      ****     MINMEA_SENTENCE_ZDA,
  42:minmea.h      **** };
  43:minmea.h      **** 
  44:minmea.h      **** struct minmea_float {
  45:minmea.h      ****     int_least32_t value;
  46:minmea.h      ****     int_least32_t scale;
  47:minmea.h      **** };
  48:minmea.h      **** 
  49:minmea.h      **** struct minmea_date {
  50:minmea.h      ****     int day;
  51:minmea.h      ****     int month;
  52:minmea.h      ****     int year;
  53:minmea.h      **** };
  54:minmea.h      **** 
  55:minmea.h      **** struct minmea_time {
  56:minmea.h      ****     int hours;
  57:minmea.h      ****     int minutes;
  58:minmea.h      ****     int seconds;
  59:minmea.h      ****     int microseconds;
  60:minmea.h      **** };
  61:minmea.h      **** 
  62:minmea.h      **** struct minmea_sentence_gbs {
  63:minmea.h      ****     struct minmea_time time;
  64:minmea.h      ****     struct minmea_float err_latitude;
  65:minmea.h      ****     struct minmea_float err_longitude;
  66:minmea.h      ****     struct minmea_float err_altitude;
  67:minmea.h      ****     int svid;
  68:minmea.h      ****     struct minmea_float prob;
  69:minmea.h      ****     struct minmea_float bias;
  70:minmea.h      ****     struct minmea_float stddev;
  71:minmea.h      **** };
  72:minmea.h      **** 
  73:minmea.h      **** struct minmea_sentence_rmc {
  74:minmea.h      ****     struct minmea_time time;
  75:minmea.h      ****     bool valid;
  76:minmea.h      ****     struct minmea_float latitude;
  77:minmea.h      ****     struct minmea_float longitude;
  78:minmea.h      ****     struct minmea_float speed;
  79:minmea.h      ****     struct minmea_float course;
  80:minmea.h      ****     struct minmea_date date;
  81:minmea.h      ****     struct minmea_float variation;
  82:minmea.h      **** };
  83:minmea.h      **** 
  84:minmea.h      **** struct minmea_sentence_gga {
  85:minmea.h      ****     struct minmea_time time;
  86:minmea.h      ****     struct minmea_float latitude;
  87:minmea.h      ****     struct minmea_float longitude;
  88:minmea.h      ****     int fix_quality;
  89:minmea.h      ****     int satellites_tracked;
  90:minmea.h      ****     struct minmea_float hdop;
  91:minmea.h      ****     struct minmea_float altitude; char altitude_units;
  92:minmea.h      ****     struct minmea_float height; char height_units;
  93:minmea.h      ****     struct minmea_float dgps_age;
  94:minmea.h      **** };
  95:minmea.h      **** 
  96:minmea.h      **** enum minmea_gll_status {
  97:minmea.h      ****     MINMEA_GLL_STATUS_DATA_VALID = 'A',
ARM GAS  C:\Users\armst\AppData\Local\Temp\ccFg2asa.s 			page 13


  98:minmea.h      ****     MINMEA_GLL_STATUS_DATA_NOT_VALID = 'V',
  99:minmea.h      **** };
 100:minmea.h      **** 
 101:minmea.h      **** // FAA mode added to some fields in NMEA 2.3.
 102:minmea.h      **** enum minmea_faa_mode {
 103:minmea.h      ****     MINMEA_FAA_MODE_AUTONOMOUS = 'A',
 104:minmea.h      ****     MINMEA_FAA_MODE_DIFFERENTIAL = 'D',
 105:minmea.h      ****     MINMEA_FAA_MODE_ESTIMATED = 'E',
 106:minmea.h      ****     MINMEA_FAA_MODE_MANUAL = 'M',
 107:minmea.h      ****     MINMEA_FAA_MODE_SIMULATED = 'S',
 108:minmea.h      ****     MINMEA_FAA_MODE_NOT_VALID = 'N',
 109:minmea.h      ****     MINMEA_FAA_MODE_PRECISE = 'P',
 110:minmea.h      **** };
 111:minmea.h      **** 
 112:minmea.h      **** struct minmea_sentence_gll {
 113:minmea.h      ****     struct minmea_float latitude;
 114:minmea.h      ****     struct minmea_float longitude;
 115:minmea.h      ****     struct minmea_time time;
 116:minmea.h      ****     char status;
 117:minmea.h      ****     char mode;
 118:minmea.h      **** };
 119:minmea.h      **** 
 120:minmea.h      **** struct minmea_sentence_gst {
 121:minmea.h      ****     struct minmea_time time;
 122:minmea.h      ****     struct minmea_float rms_deviation;
 123:minmea.h      ****     struct minmea_float semi_major_deviation;
 124:minmea.h      ****     struct minmea_float semi_minor_deviation;
 125:minmea.h      ****     struct minmea_float semi_major_orientation;
 126:minmea.h      ****     struct minmea_float latitude_error_deviation;
 127:minmea.h      ****     struct minmea_float longitude_error_deviation;
 128:minmea.h      ****     struct minmea_float altitude_error_deviation;
 129:minmea.h      **** };
 130:minmea.h      **** 
 131:minmea.h      **** enum minmea_gsa_mode {
 132:minmea.h      ****     MINMEA_GPGSA_MODE_AUTO = 'A',
 133:minmea.h      ****     MINMEA_GPGSA_MODE_FORCED = 'M',
 134:minmea.h      **** };
 135:minmea.h      **** 
 136:minmea.h      **** enum minmea_gsa_fix_type {
 137:minmea.h      ****     MINMEA_GPGSA_FIX_NONE = 1,
 138:minmea.h      ****     MINMEA_GPGSA_FIX_2D = 2,
 139:minmea.h      ****     MINMEA_GPGSA_FIX_3D = 3,
 140:minmea.h      **** };
 141:minmea.h      **** 
 142:minmea.h      **** struct minmea_sentence_gsa {
 143:minmea.h      ****     char mode;
 144:minmea.h      ****     int fix_type;
 145:minmea.h      ****     int sats[12];
 146:minmea.h      ****     struct minmea_float pdop;
 147:minmea.h      ****     struct minmea_float hdop;
 148:minmea.h      ****     struct minmea_float vdop;
 149:minmea.h      **** };
 150:minmea.h      **** 
 151:minmea.h      **** struct minmea_sat_info {
 152:minmea.h      ****     int nr;
 153:minmea.h      ****     int elevation;
 154:minmea.h      ****     int azimuth;
ARM GAS  C:\Users\armst\AppData\Local\Temp\ccFg2asa.s 			page 14


 155:minmea.h      ****     int snr;
 156:minmea.h      **** };
 157:minmea.h      **** 
 158:minmea.h      **** struct minmea_sentence_gsv {
 159:minmea.h      ****     int total_msgs;
 160:minmea.h      ****     int msg_nr;
 161:minmea.h      ****     int total_sats;
 162:minmea.h      ****     struct minmea_sat_info sats[4];
 163:minmea.h      **** };
 164:minmea.h      **** 
 165:minmea.h      **** struct minmea_sentence_vtg {
 166:minmea.h      ****     struct minmea_float true_track_degrees;
 167:minmea.h      ****     struct minmea_float magnetic_track_degrees;
 168:minmea.h      ****     struct minmea_float speed_knots;
 169:minmea.h      ****     struct minmea_float speed_kph;
 170:minmea.h      ****     enum minmea_faa_mode faa_mode;
 171:minmea.h      **** };
 172:minmea.h      **** 
 173:minmea.h      **** struct minmea_sentence_zda {
 174:minmea.h      ****     struct minmea_time time;
 175:minmea.h      ****     struct minmea_date date;
 176:minmea.h      ****     int hour_offset;
 177:minmea.h      ****     int minute_offset;
 178:minmea.h      **** };
 179:minmea.h      **** 
 180:minmea.h      **** /**
 181:minmea.h      ****  * Calculate raw sentence checksum. Does not check sentence integrity.
 182:minmea.h      ****  */
 183:minmea.h      **** uint8_t minmea_checksum(const char *sentence);
 184:minmea.h      **** 
 185:minmea.h      **** /**
 186:minmea.h      ****  * Check sentence validity and checksum. Returns true for valid sentences.
 187:minmea.h      ****  */
 188:minmea.h      **** bool minmea_check(const char *sentence, bool strict);
 189:minmea.h      **** 
 190:minmea.h      **** /**
 191:minmea.h      ****  * Determine talker identifier.
 192:minmea.h      ****  */
 193:minmea.h      **** bool minmea_talker_id(char talker[3], const char *sentence);
 194:minmea.h      **** 
 195:minmea.h      **** /**
 196:minmea.h      ****  * Determine sentence identifier.
 197:minmea.h      ****  */
 198:minmea.h      **** enum minmea_sentence_id minmea_sentence_id(const char *sentence, bool strict);
 199:minmea.h      **** 
 200:minmea.h      **** /**
 201:minmea.h      ****  * Scanf-like processor for NMEA sentences. Supports the following formats:
 202:minmea.h      ****  * c - single character (char *)
 203:minmea.h      ****  * d - direction, returned as 1/-1, default 0 (int *)
 204:minmea.h      ****  * f - fractional, returned as value + scale (struct minmea_float *)
 205:minmea.h      ****  * i - decimal, default zero (int *)
 206:minmea.h      ****  * s - string (char *)
 207:minmea.h      ****  * t - talker identifier and type (char *)
 208:minmea.h      ****  * D - date (struct minmea_date *)
 209:minmea.h      ****  * T - time stamp (struct minmea_time *)
 210:minmea.h      ****  * _ - ignore this field
 211:minmea.h      ****  * ; - following fields are optional
ARM GAS  C:\Users\armst\AppData\Local\Temp\ccFg2asa.s 			page 15


 212:minmea.h      ****  * Returns true on success. See library source code for details.
 213:minmea.h      ****  */
 214:minmea.h      **** bool minmea_scan(const char *sentence, const char *format, ...);
 215:minmea.h      **** 
 216:minmea.h      **** /*
 217:minmea.h      ****  * Parse a specific type of sentence. Return true on success.
 218:minmea.h      ****  */
 219:minmea.h      **** bool minmea_parse_gbs(struct minmea_sentence_gbs *frame, const char *sentence);
 220:minmea.h      **** bool minmea_parse_rmc(struct minmea_sentence_rmc *frame, const char *sentence);
 221:minmea.h      **** bool minmea_parse_gga(struct minmea_sentence_gga *frame, const char *sentence);
 222:minmea.h      **** bool minmea_parse_gsa(struct minmea_sentence_gsa *frame, const char *sentence);
 223:minmea.h      **** bool minmea_parse_gll(struct minmea_sentence_gll *frame, const char *sentence);
 224:minmea.h      **** bool minmea_parse_gst(struct minmea_sentence_gst *frame, const char *sentence);
 225:minmea.h      **** bool minmea_parse_gsv(struct minmea_sentence_gsv *frame, const char *sentence);
 226:minmea.h      **** bool minmea_parse_vtg(struct minmea_sentence_vtg *frame, const char *sentence);
 227:minmea.h      **** bool minmea_parse_zda(struct minmea_sentence_zda *frame, const char *sentence);
 228:minmea.h      **** 
 229:minmea.h      **** /**
 230:minmea.h      ****  * Convert GPS UTC date/time representation to a UNIX calendar time.
 231:minmea.h      ****  */
 232:minmea.h      **** int minmea_getdatetime(struct tm *tm, const struct minmea_date *date, const struct minmea_time *tim
 233:minmea.h      **** 
 234:minmea.h      **** /**
 235:minmea.h      ****  * Convert GPS UTC date/time representation to a UNIX timestamp.
 236:minmea.h      ****  */
 237:minmea.h      **** // int minmea_gettime(struct timespec *ts, const struct minmea_date *date, const struct minmea_time
 238:minmea.h      **** 
 239:minmea.h      **** /**
 240:minmea.h      ****  * Rescale a fixed-point value to a different scale. Rounds towards zero.
 241:minmea.h      ****  */
 242:minmea.h      **** static inline int_least32_t minmea_rescale(const struct minmea_float *f, int_least32_t new_scale)
 243:minmea.h      **** {
 244:minmea.h      ****     if (f->scale == 0)
 245:minmea.h      ****         return 0;
 246:minmea.h      ****     if (f->scale == new_scale)
 247:minmea.h      ****         return f->value;
 248:minmea.h      ****     if (f->scale > new_scale)
 249:minmea.h      ****         return (f->value + ((f->value > 0) - (f->value < 0)) * f->scale/new_scale/2) / (f->scale/ne
 250:minmea.h      ****     else
 251:minmea.h      ****         return f->value * (new_scale/f->scale);
 252:minmea.h      **** }
 253:minmea.h      **** 
 254:minmea.h      **** /**
 255:minmea.h      ****  * Convert a fixed-point value to a floating-point value.
 256:minmea.h      ****  * Returns NaN for "unknown" values.
 257:minmea.h      ****  */
 258:minmea.h      **** static inline float minmea_tofloat(const struct minmea_float *f)
 259:minmea.h      **** {
 260:minmea.h      ****     if (f->scale == 0)
 261:minmea.h      ****         return NAN;
 262:minmea.h      ****     return (float) f->value / (float) f->scale;
 263:minmea.h      **** }
 264:minmea.h      **** 
 265:minmea.h      **** /**
 266:minmea.h      ****  * Convert a raw coordinate to a floating point DD.DDD... value.
 267:minmea.h      ****  * Returns NaN for "unknown" values.
 268:minmea.h      ****  */
ARM GAS  C:\Users\armst\AppData\Local\Temp\ccFg2asa.s 			page 16


 269:minmea.h      **** static inline float minmea_tocoord(const struct minmea_float *f)
 270:minmea.h      **** {
 271:minmea.h      ****     if (f->scale == 0)
 272:minmea.h      ****         return NAN;
 273:minmea.h      ****     if (f->scale  > (INT_LEAST32_MAX / 100))
 274:minmea.h      ****         return NAN;
 275:minmea.h      ****     if (f->scale < (INT_LEAST32_MIN / 100))
 276:minmea.h      ****         return NAN;
 277:minmea.h      ****     int_least32_t degrees = f->value / (f->scale * 100);
 278:minmea.h      ****     int_least32_t minutes = f->value % (f->scale * 100);
 279:minmea.h      ****     return (float) degrees + (float) minutes / (60 * f->scale);
 280:minmea.h      **** }
 281:minmea.h      **** 
 282:minmea.h      **** /**
 283:minmea.h      ****  * Check whether a character belongs to the set of characters allowed in a
 284:minmea.h      ****  * sentence data field.
 285:minmea.h      ****  */
 286:minmea.h      **** static inline bool minmea_isfield(char c) {
 287:minmea.h      ****     return isprint((unsigned char) c) && c != ',' && c != '*';
 441              		.loc 2 287 0 is_stmt 1 discriminator 1
 442 0050 A34A     		ldr	r2, .L151+4
 443 0052 1268     		ldr	r2, [r2]
 444 0054 D218     		adds	r2, r2, r3
 445 0056 5278     		ldrb	r2, [r2, #1]
 446 0058 6821     		movs	r1, #104
 447 005a 8A43     		bics	r2, r1
 448 005c 05D0     		beq	.L98
 449              		.loc 2 287 0 is_stmt 0
 450 005e 2C2B     		cmp	r3, #44
 451 0060 05D0     		beq	.L99
 452 0062 2A2B     		cmp	r3, #42
 453 0064 05D1     		bne	.L100
 454 0066 0022     		movs	r2, #0
 455 0068 04E0     		b	.L45
 456              	.L98:
 457 006a 0022     		movs	r2, #0
 458 006c 02E0     		b	.L45
 459              	.L99:
 460 006e 0022     		movs	r2, #0
 461 0070 00E0     		b	.L45
 462              	.L100:
 463 0072 0122     		movs	r2, #1
 464              	.L45:
 465              	.LVL48:
 466              	.LBE42:
 467              	.LBE41:
 468              		.loc 1 132 0 is_stmt 1
 469 0074 002A     		cmp	r2, #0
 470 0076 02D1     		bne	.L44
 130:minmea.c      **** 
 471              		.loc 1 130 0
 472 0078 0023     		movs	r3, #0
 473 007a 00E0     		b	.L44
 474              	.L97:
 475 007c 0023     		movs	r3, #0
 476              	.L44:
 477              	.LVL49:
ARM GAS  C:\Users\armst\AppData\Local\Temp\ccFg2asa.s 			page 17


 133:minmea.c      ****                     value = *field;
 134:minmea.c      **** 
 135:minmea.c      ****                 *va_arg(ap, char *) = value;
 478              		.loc 1 135 0
 479 007e 059A     		ldr	r2, [sp, #20]
 480 0080 111D     		adds	r1, r2, #4
 481 0082 0591     		str	r1, [sp, #20]
 482 0084 1268     		ldr	r2, [r2]
 483 0086 1370     		strb	r3, [r2]
 484              	.LBE40:
 136:minmea.c      ****             } break;
 485              		.loc 1 136 0
 486 0088 19E2     		b	.L65
 487              	.LVL50:
 488              	.L39:
 489              	.LBB43:
 137:minmea.c      **** 
 138:minmea.c      ****             case 'd': { // Single character direction field (int).
 139:minmea.c      ****                 int value = 0;
 140:minmea.c      **** 
 141:minmea.c      ****                 if (field && minmea_isfield(*field)) {
 490              		.loc 1 141 0
 491 008a 002D     		cmp	r5, #0
 492 008c 21D0     		beq	.L101
 493              		.loc 1 141 0 is_stmt 0 discriminator 1
 494 008e 2B78     		ldrb	r3, [r5]
 495              	.LVL51:
 496              	.LBB44:
 497              	.LBB45:
 498              		.loc 2 287 0 is_stmt 1 discriminator 1
 499 0090 934A     		ldr	r2, .L151+4
 500 0092 1268     		ldr	r2, [r2]
 501 0094 D218     		adds	r2, r2, r3
 502 0096 5278     		ldrb	r2, [r2, #1]
 503 0098 6821     		movs	r1, #104
 504 009a 8A43     		bics	r2, r1
 505 009c 05D0     		beq	.L102
 506              		.loc 2 287 0 is_stmt 0
 507 009e 2C2B     		cmp	r3, #44
 508 00a0 05D0     		beq	.L103
 509 00a2 2A2B     		cmp	r3, #42
 510 00a4 05D1     		bne	.L104
 511 00a6 0022     		movs	r2, #0
 512 00a8 04E0     		b	.L47
 513              	.L102:
 514 00aa 0022     		movs	r2, #0
 515 00ac 02E0     		b	.L47
 516              	.L103:
 517 00ae 0022     		movs	r2, #0
 518 00b0 00E0     		b	.L47
 519              	.L104:
 520 00b2 0122     		movs	r2, #1
 521              	.L47:
 522              	.LVL52:
 523              	.LBE45:
 524              	.LBE44:
 525              		.loc 1 141 0 is_stmt 1
ARM GAS  C:\Users\armst\AppData\Local\Temp\ccFg2asa.s 			page 18


 526 00b4 002A     		cmp	r2, #0
 527 00b6 0ED0     		beq	.L105
 142:minmea.c      ****                     switch (*field) {
 528              		.loc 1 142 0
 529 00b8 4E2B     		cmp	r3, #78
 530 00ba 08D0     		beq	.L48
 531 00bc 02D8     		bhi	.L49
 532 00be 452B     		cmp	r3, #69
 533 00c0 05D0     		beq	.L48
 534 00c2 24E2     		b	.L106
 535              	.L49:
 536 00c4 532B     		cmp	r3, #83
 537 00c6 08D0     		beq	.L107
 538 00c8 572B     		cmp	r3, #87
 539 00ca 06D0     		beq	.L107
 540 00cc 1FE2     		b	.L106
 541              	.L48:
 143:minmea.c      ****                         case 'N':
 144:minmea.c      ****                         case 'E':
 145:minmea.c      ****                             value = 1;
 542              		.loc 1 145 0
 543 00ce 0121     		movs	r1, #1
 544 00d0 05E0     		b	.L46
 545              	.L101:
 139:minmea.c      **** 
 546              		.loc 1 139 0
 547 00d2 0021     		movs	r1, #0
 548 00d4 03E0     		b	.L46
 549              	.L105:
 550 00d6 0021     		movs	r1, #0
 551 00d8 01E0     		b	.L46
 552              	.L107:
 146:minmea.c      ****                             break;
 147:minmea.c      ****                         case 'S':
 148:minmea.c      ****                         case 'W':
 149:minmea.c      ****                             value = -1;
 553              		.loc 1 149 0
 554 00da 0121     		movs	r1, #1
 555 00dc 4942     		rsbs	r1, r1, #0
 556              	.L46:
 557              	.LVL53:
 150:minmea.c      ****                             break;
 151:minmea.c      ****                         default:
 152:minmea.c      ****                             goto parse_error;
 153:minmea.c      ****                     }
 154:minmea.c      ****                 }
 155:minmea.c      **** 
 156:minmea.c      ****                 *va_arg(ap, int *) = value;
 558              		.loc 1 156 0
 559 00de 059B     		ldr	r3, [sp, #20]
 560 00e0 1A1D     		adds	r2, r3, #4
 561 00e2 0592     		str	r2, [sp, #20]
 562 00e4 1B68     		ldr	r3, [r3]
 563 00e6 1960     		str	r1, [r3]
 564              	.LBE43:
 157:minmea.c      ****             } break;
 565              		.loc 1 157 0
ARM GAS  C:\Users\armst\AppData\Local\Temp\ccFg2asa.s 			page 19


 566 00e8 E9E1     		b	.L65
 567              	.LVL54:
 568              	.L40:
 569              	.LBB46:
 158:minmea.c      **** 
 159:minmea.c      ****             case 'f': { // Fractional value with scale (struct minmea_float).
 160:minmea.c      ****                 int sign = 0;
 161:minmea.c      ****                 int_least32_t value = -1;
 162:minmea.c      ****                 int_least32_t scale = 0;
 163:minmea.c      **** 
 164:minmea.c      ****                 if (field) {
 570              		.loc 1 164 0
 571 00ea 002D     		cmp	r5, #0
 572 00ec 54D1     		bne	.L108
 162:minmea.c      **** 
 573              		.loc 1 162 0
 574 00ee 0023     		movs	r3, #0
 575 00f0 9946     		mov	r9, r3
 161:minmea.c      ****                 int_least32_t scale = 0;
 576              		.loc 1 161 0
 577 00f2 0127     		movs	r7, #1
 578 00f4 7F42     		rsbs	r7, r7, #0
 160:minmea.c      ****                 int_least32_t value = -1;
 579              		.loc 1 160 0
 580 00f6 9A46     		mov	r10, r3
 581 00f8 69E0     		b	.L51
 582              	.LVL55:
 583              	.L60:
 165:minmea.c      ****                     while (minmea_isfield(*field)) {
 166:minmea.c      ****                         if (*field == '+' && !sign && value == -1) {
 584              		.loc 1 166 0
 585 00fa 2B2B     		cmp	r3, #43
 586 00fc 04D1     		bne	.L52
 587              		.loc 1 166 0 is_stmt 0 discriminator 1
 588 00fe 5146     		mov	r1, r10
 589 0100 0029     		cmp	r1, #0
 590 0102 01D1     		bne	.L52
 591              	.LVL56:
 592              		.loc 1 166 0 discriminator 2
 593 0104 791C     		adds	r1, r7, #1
 594 0106 3CD0     		beq	.L109
 595              	.LVL57:
 596              	.L52:
 167:minmea.c      ****                             sign = 1;
 168:minmea.c      ****                         } else if (*field == '-' && !sign && value == -1) {
 597              		.loc 1 168 0 is_stmt 1
 598 0108 2D2B     		cmp	r3, #45
 599 010a 04D1     		bne	.L54
 600              		.loc 1 168 0 is_stmt 0 discriminator 1
 601 010c 5146     		mov	r1, r10
 602 010e 0029     		cmp	r1, #0
 603 0110 01D1     		bne	.L54
 604              	.LVL58:
 605              		.loc 1 168 0 discriminator 2
 606 0112 791C     		adds	r1, r7, #1
 607 0114 38D0     		beq	.L110
 608              	.LVL59:
ARM GAS  C:\Users\armst\AppData\Local\Temp\ccFg2asa.s 			page 20


 609              	.L54:
 169:minmea.c      ****                             sign = -1;
 170:minmea.c      ****                         } else if (isdigit((unsigned char) *field)) {
 610              		.loc 1 170 0 is_stmt 1
 611 0116 5207     		lsls	r2, r2, #29
 612 0118 20D5     		bpl	.L55
 613              	.LBB47:
 171:minmea.c      ****                             int digit = *field - '0';
 614              		.loc 1 171 0
 615 011a 3022     		movs	r2, #48
 616 011c 5242     		rsbs	r2, r2, #0
 617 011e 9346     		mov	fp, r2
 618 0120 9B44     		add	fp, fp, r3
 619              	.LVL60:
 172:minmea.c      ****                             if (value == -1)
 620              		.loc 1 172 0
 621 0122 7B1C     		adds	r3, r7, #1
 622 0124 00D1     		bne	.L56
 173:minmea.c      ****                                 value = 0;
 623              		.loc 1 173 0
 624 0126 0027     		movs	r7, #0
 625              	.LVL61:
 626              	.L56:
 174:minmea.c      ****                             if (value > (INT_LEAST32_MAX-digit) / 10) {
 627              		.loc 1 174 0
 628 0128 6E48     		ldr	r0, .L151+8
 629 012a 5B46     		mov	r3, fp
 630 012c C01A     		subs	r0, r0, r3
 631 012e 0A21     		movs	r1, #10
 632 0130 FFF7FEFF 		bl	__aeabi_idiv
 633              	.LVL62:
 634 0134 8742     		cmp	r7, r0
 635 0136 04DD     		ble	.L57
 175:minmea.c      ****                                 /* we ran out of bits, what do we do? */
 176:minmea.c      ****                                 if (scale) {
 636              		.loc 1 176 0
 637 0138 4B46     		mov	r3, r9
 638 013a 002B     		cmp	r3, #0
 639 013c 47D1     		bne	.L51
 640              	.LVL63:
 641              	.LBE47:
 642              	.LBE46:
 643              	.LBE39:
  90:minmea.c      ****     bool optional = false;
 644              		.loc 1 90 0
 645 013e 0020     		movs	r0, #0
 646 0140 F8E1     		b	.L29
 647              	.LVL64:
 648              	.L57:
 649              	.LBB85:
 650              	.LBB51:
 651              	.LBB48:
 177:minmea.c      ****                                     /* truncate extra precision */
 178:minmea.c      ****                                     break;
 179:minmea.c      ****                                 } else {
 180:minmea.c      ****                                     /* integer overflow. bail out. */
 181:minmea.c      ****                                     goto parse_error;
ARM GAS  C:\Users\armst\AppData\Local\Temp\ccFg2asa.s 			page 21


 182:minmea.c      ****                                 }
 183:minmea.c      ****                             }
 184:minmea.c      ****                             value = (10 * value) + digit;
 652              		.loc 1 184 0
 653 0142 BB00     		lsls	r3, r7, #2
 654 0144 DF19     		adds	r7, r3, r7
 655              	.LVL65:
 656 0146 7B00     		lsls	r3, r7, #1
 657 0148 5B44     		add	r3, r3, fp
 658 014a 1F00     		movs	r7, r3
 659              	.LVL66:
 185:minmea.c      ****                             if (scale)
 660              		.loc 1 185 0
 661 014c 4B46     		mov	r3, r9
 662              	.LVL67:
 663 014e 002B     		cmp	r3, #0
 664 0150 20D0     		beq	.L53
 665              	.LVL68:
 186:minmea.c      ****                                 scale *= 10;
 666              		.loc 1 186 0
 667 0152 9B00     		lsls	r3, r3, #2
 668              	.LVL69:
 669 0154 4B44     		add	r3, r3, r9
 670 0156 5A00     		lsls	r2, r3, #1
 671 0158 9146     		mov	r9, r2
 672              	.LVL70:
 673 015a 1BE0     		b	.L53
 674              	.LVL71:
 675              	.L55:
 676              	.LBE48:
 187:minmea.c      ****                         } else if (*field == '.' && scale == 0) {
 677              		.loc 1 187 0
 678 015c 2E2B     		cmp	r3, #46
 679 015e 02D1     		bne	.L58
 680              		.loc 1 187 0 is_stmt 0 discriminator 1
 681 0160 4A46     		mov	r2, r9
 682 0162 002A     		cmp	r2, #0
 683 0164 14D0     		beq	.L112
 684              	.L58:
 188:minmea.c      ****                             scale = 1;
 189:minmea.c      ****                         } else if (*field == ' ') {
 685              		.loc 1 189 0 is_stmt 1
 686 0166 202B     		cmp	r3, #32
 687 0168 00D0     		beq	.LCB659
 688 016a D2E1     		b	.L113	@long jump
 689              	.LCB659:
 190:minmea.c      ****                             /* Allow spaces at the start of the field. Not NMEA
 191:minmea.c      ****                              * conformant, but some modules do this. */
 192:minmea.c      ****                             if (sign != 0 || value != -1 || scale != 0)
 690              		.loc 1 192 0
 691 016c 5346     		mov	r3, r10
 692 016e 002B     		cmp	r3, #0
 693 0170 00D0     		beq	.LCB662
 694 0172 D0E1     		b	.L114	@long jump
 695              	.LCB662:
 696              	.LVL72:
 697              		.loc 1 192 0 is_stmt 0 discriminator 1
ARM GAS  C:\Users\armst\AppData\Local\Temp\ccFg2asa.s 			page 22


 698 0174 7B1C     		adds	r3, r7, #1
 699 0176 00D0     		beq	.LCB665
 700 0178 CFE1     		b	.L115	@long jump
 701              	.LCB665:
 702              	.LVL73:
 703              		.loc 1 192 0 discriminator 2
 704 017a 4B46     		mov	r3, r9
 705 017c 002B     		cmp	r3, #0
 706 017e 09D0     		beq	.L53
 707              	.LVL74:
 708              	.LBE51:
 709              	.LBE85:
 710 0180 CDE1     		b	.L116
 711              	.LVL75:
 712              	.L109:
 713              	.LBB86:
 714              	.LBB52:
 167:minmea.c      ****                         } else if (*field == '-' && !sign && value == -1) {
 715              		.loc 1 167 0 is_stmt 1
 716 0182 0123     		movs	r3, #1
 717 0184 9A46     		mov	r10, r3
 718              	.LVL76:
 719 0186 05E0     		b	.L53
 720              	.LVL77:
 721              	.L110:
 169:minmea.c      ****                         } else if (isdigit((unsigned char) *field)) {
 722              		.loc 1 169 0
 723 0188 0123     		movs	r3, #1
 724 018a 5B42     		rsbs	r3, r3, #0
 725 018c 9A46     		mov	r10, r3
 726              	.LVL78:
 727 018e 01E0     		b	.L53
 728              	.LVL79:
 729              	.L112:
 188:minmea.c      ****                         } else if (*field == ' ') {
 730              		.loc 1 188 0
 731 0190 0123     		movs	r3, #1
 732 0192 9946     		mov	r9, r3
 733              	.LVL80:
 734              	.L53:
 193:minmea.c      ****                                 goto parse_error;
 194:minmea.c      ****                         } else {
 195:minmea.c      ****                             goto parse_error;
 196:minmea.c      ****                         }
 197:minmea.c      ****                         field++;
 735              		.loc 1 197 0
 736 0194 0135     		adds	r5, r5, #1
 737              	.LVL81:
 738 0196 04E0     		b	.L50
 739              	.LVL82:
 740              	.L108:
 741 0198 0023     		movs	r3, #0
 742 019a 9946     		mov	r9, r3
 743 019c 0127     		movs	r7, #1
 744 019e 7F42     		rsbs	r7, r7, #0
 745 01a0 9A46     		mov	r10, r3
 746              	.LVL83:
ARM GAS  C:\Users\armst\AppData\Local\Temp\ccFg2asa.s 			page 23


 747              	.L50:
 165:minmea.c      ****                         if (*field == '+' && !sign && value == -1) {
 748              		.loc 1 165 0
 749 01a2 2B78     		ldrb	r3, [r5]
 750              	.LVL84:
 751              	.LBB49:
 752              	.LBB50:
 753              		.loc 2 287 0
 754 01a4 4E4A     		ldr	r2, .L151+4
 755 01a6 1268     		ldr	r2, [r2]
 756 01a8 D218     		adds	r2, r2, r3
 757 01aa 5278     		ldrb	r2, [r2, #1]
 758 01ac 6821     		movs	r1, #104
 759 01ae 1000     		movs	r0, r2
 760 01b0 8843     		bics	r0, r1
 761 01b2 05D0     		beq	.L117
 762 01b4 2C2B     		cmp	r3, #44
 763 01b6 05D0     		beq	.L118
 764 01b8 2A2B     		cmp	r3, #42
 765 01ba 05D1     		bne	.L119
 766 01bc 0021     		movs	r1, #0
 767 01be 04E0     		b	.L59
 768              	.L117:
 769 01c0 0021     		movs	r1, #0
 770 01c2 02E0     		b	.L59
 771              	.L118:
 772 01c4 0021     		movs	r1, #0
 773 01c6 00E0     		b	.L59
 774              	.L119:
 775 01c8 0121     		movs	r1, #1
 776              	.L59:
 777              	.LVL85:
 778              	.LBE50:
 779              	.LBE49:
 165:minmea.c      ****                         if (*field == '+' && !sign && value == -1) {
 780              		.loc 1 165 0
 781 01ca 0029     		cmp	r1, #0
 782 01cc 95D1     		bne	.L60
 783              	.LVL86:
 784              	.L51:
 198:minmea.c      ****                     }
 199:minmea.c      ****                 }
 200:minmea.c      **** 
 201:minmea.c      ****                 if ((sign || scale) && value == -1)
 785              		.loc 1 201 0
 786 01ce 5346     		mov	r3, r10
 787 01d0 002B     		cmp	r3, #0
 788 01d2 02D1     		bne	.L61
 789              		.loc 1 201 0 is_stmt 0 discriminator 2
 790 01d4 4B46     		mov	r3, r9
 791 01d6 002B     		cmp	r3, #0
 792 01d8 02D0     		beq	.L62
 793              	.L61:
 794              		.loc 1 201 0 discriminator 3
 795 01da 7B1C     		adds	r3, r7, #1
 796 01dc 00D1     		bne	.LCB799
 797 01de A0E1     		b	.L120	@long jump
ARM GAS  C:\Users\armst\AppData\Local\Temp\ccFg2asa.s 			page 24


 798              	.LCB799:
 799              	.L62:
 202:minmea.c      ****                     goto parse_error;
 203:minmea.c      **** 
 204:minmea.c      ****                 if (value == -1) {
 800              		.loc 1 204 0 is_stmt 1
 801 01e0 7B1C     		adds	r3, r7, #1
 802 01e2 03D0     		beq	.L121
 205:minmea.c      ****                     /* No digits were scanned. */
 206:minmea.c      ****                     value = 0;
 207:minmea.c      ****                     scale = 0;
 208:minmea.c      ****                 } else if (scale == 0) {
 803              		.loc 1 208 0
 804 01e4 4B46     		mov	r3, r9
 805 01e6 002B     		cmp	r3, #0
 806 01e8 04D0     		beq	.L122
 807              	.LVL87:
 808 01ea 05E0     		b	.L63
 809              	.LVL88:
 810              	.L121:
 207:minmea.c      ****                 } else if (scale == 0) {
 811              		.loc 1 207 0
 812 01ec 0023     		movs	r3, #0
 813 01ee 9946     		mov	r9, r3
 814              	.LVL89:
 206:minmea.c      ****                     scale = 0;
 815              		.loc 1 206 0
 816 01f0 0027     		movs	r7, #0
 817              	.LVL90:
 818 01f2 01E0     		b	.L63
 819              	.LVL91:
 820              	.L122:
 209:minmea.c      ****                     /* No decimal point. */
 210:minmea.c      ****                     scale = 1;
 821              		.loc 1 210 0
 822 01f4 0123     		movs	r3, #1
 823              	.LVL92:
 824 01f6 9946     		mov	r9, r3
 825              	.LVL93:
 826              	.L63:
 211:minmea.c      ****                 }
 212:minmea.c      ****                 if (sign)
 827              		.loc 1 212 0
 828 01f8 5346     		mov	r3, r10
 829 01fa 002B     		cmp	r3, #0
 830 01fc 01D0     		beq	.L64
 831              	.LVL94:
 213:minmea.c      ****                     value *= sign;
 832              		.loc 1 213 0
 833 01fe 7B43     		muls	r3, r7
 834              	.LVL95:
 835 0200 1F00     		movs	r7, r3
 836              	.LVL96:
 837              	.L64:
 214:minmea.c      **** 
 215:minmea.c      ****                 *va_arg(ap, struct minmea_float *) = (struct minmea_float) {value, scale};
 838              		.loc 1 215 0
ARM GAS  C:\Users\armst\AppData\Local\Temp\ccFg2asa.s 			page 25


 839 0202 059B     		ldr	r3, [sp, #20]
 840 0204 1A1D     		adds	r2, r3, #4
 841 0206 0592     		str	r2, [sp, #20]
 842 0208 1B68     		ldr	r3, [r3]
 843 020a 1F60     		str	r7, [r3]
 844 020c 4A46     		mov	r2, r9
 845 020e 5A60     		str	r2, [r3, #4]
 846              	.LBE52:
 216:minmea.c      ****             } break;
 847              		.loc 1 216 0
 848 0210 55E1     		b	.L65
 849              	.LVL97:
 850              	.L41:
 851              	.LBB53:
 217:minmea.c      **** 
 218:minmea.c      ****             case 'i': { // Integer value, default 0 (int).
 219:minmea.c      ****                 int value = 0;
 220:minmea.c      **** 
 221:minmea.c      ****                 if (field) {
 852              		.loc 1 221 0
 853 0212 002D     		cmp	r5, #0
 854 0214 1CD0     		beq	.L123
 855              	.LBB54:
 222:minmea.c      ****                     char *endptr;
 223:minmea.c      ****                     value = strtol(field, &endptr, 10);
 856              		.loc 1 223 0
 857 0216 0A22     		movs	r2, #10
 858 0218 04A9     		add	r1, sp, #16
 859 021a 2800     		movs	r0, r5
 860 021c FFF7FEFF 		bl	strtol
 861              	.LVL98:
 224:minmea.c      ****                     if (minmea_isfield(*endptr))
 862              		.loc 1 224 0
 863 0220 049B     		ldr	r3, [sp, #16]
 864 0222 1A78     		ldrb	r2, [r3]
 865              	.LVL99:
 866              	.LBB55:
 867              	.LBB56:
 868              		.loc 2 287 0
 869 0224 2E4B     		ldr	r3, .L151+4
 870 0226 1B68     		ldr	r3, [r3]
 871 0228 9B18     		adds	r3, r3, r2
 872 022a 5B78     		ldrb	r3, [r3, #1]
 873 022c 6821     		movs	r1, #104
 874 022e 8B43     		bics	r3, r1
 875 0230 05D0     		beq	.L124
 876 0232 2C2A     		cmp	r2, #44
 877 0234 05D0     		beq	.L125
 878 0236 2A2A     		cmp	r2, #42
 879 0238 05D1     		bne	.L126
 880 023a 0023     		movs	r3, #0
 881 023c 04E0     		b	.L67
 882              	.L124:
 883 023e 0023     		movs	r3, #0
 884 0240 02E0     		b	.L67
 885              	.L125:
 886 0242 0023     		movs	r3, #0
ARM GAS  C:\Users\armst\AppData\Local\Temp\ccFg2asa.s 			page 26


 887 0244 00E0     		b	.L67
 888              	.L126:
 889 0246 0123     		movs	r3, #1
 890              	.L67:
 891              	.LVL100:
 892              	.LBE56:
 893              	.LBE55:
 894              		.loc 1 224 0
 895 0248 002B     		cmp	r3, #0
 896 024a 02D0     		beq	.L66
 897              	.LBE54:
 898              	.LBE53:
 899              	.LBE86:
  90:minmea.c      ****     bool optional = false;
 900              		.loc 1 90 0
 901 024c 0020     		movs	r0, #0
 902              	.LVL101:
 903 024e 71E1     		b	.L29
 904              	.LVL102:
 905              	.L123:
 906              	.LBB87:
 907              	.LBB57:
 219:minmea.c      **** 
 908              		.loc 1 219 0
 909 0250 0020     		movs	r0, #0
 910              	.LVL103:
 911              	.L66:
 225:minmea.c      ****                         goto parse_error;
 226:minmea.c      ****                 }
 227:minmea.c      **** 
 228:minmea.c      ****                 *va_arg(ap, int *) = value;
 912              		.loc 1 228 0
 913 0252 059B     		ldr	r3, [sp, #20]
 914 0254 1A1D     		adds	r2, r3, #4
 915 0256 0592     		str	r2, [sp, #20]
 916 0258 1B68     		ldr	r3, [r3]
 917 025a 1860     		str	r0, [r3]
 918              	.LBE57:
 229:minmea.c      ****             } break;
 919              		.loc 1 229 0
 920 025c 2FE1     		b	.L65
 921              	.LVL104:
 922              	.L42:
 923              	.LBB58:
 230:minmea.c      **** 
 231:minmea.c      ****             case 's': { // String value (char *).
 232:minmea.c      ****                 char *buf = va_arg(ap, char *);
 924              		.loc 1 232 0
 925 025e 059B     		ldr	r3, [sp, #20]
 926 0260 1A1D     		adds	r2, r3, #4
 927 0262 0592     		str	r2, [sp, #20]
 928 0264 1968     		ldr	r1, [r3]
 929              	.LVL105:
 233:minmea.c      **** 
 234:minmea.c      ****                 if (field) {
 930              		.loc 1 234 0
 931 0266 002D     		cmp	r5, #0
ARM GAS  C:\Users\armst\AppData\Local\Temp\ccFg2asa.s 			page 27


 932 0268 03D1     		bne	.L69
 933 026a 17E0     		b	.L70
 934              	.L72:
 935              	.LVL106:
 235:minmea.c      ****                     while (minmea_isfield(*field))
 236:minmea.c      ****                         *buf++ = *field++;
 936              		.loc 1 236 0
 937 026c 0135     		adds	r5, r5, #1
 938              	.LVL107:
 939 026e 0A70     		strb	r2, [r1]
 940 0270 0131     		adds	r1, r1, #1
 941              	.LVL108:
 942              	.L69:
 235:minmea.c      ****                     while (minmea_isfield(*field))
 943              		.loc 1 235 0
 944 0272 2A78     		ldrb	r2, [r5]
 945              	.LVL109:
 946              	.LBB59:
 947              	.LBB60:
 948              		.loc 2 287 0
 949 0274 1A4B     		ldr	r3, .L151+4
 950 0276 1B68     		ldr	r3, [r3]
 951 0278 9B18     		adds	r3, r3, r2
 952 027a 5B78     		ldrb	r3, [r3, #1]
 953 027c 6820     		movs	r0, #104
 954 027e 8343     		bics	r3, r0
 955 0280 05D0     		beq	.L127
 956 0282 2C2A     		cmp	r2, #44
 957 0284 05D0     		beq	.L128
 958 0286 2A2A     		cmp	r2, #42
 959 0288 05D1     		bne	.L129
 960 028a 0023     		movs	r3, #0
 961 028c 04E0     		b	.L71
 962              	.L127:
 963 028e 0023     		movs	r3, #0
 964 0290 02E0     		b	.L71
 965              	.L128:
 966 0292 0023     		movs	r3, #0
 967 0294 00E0     		b	.L71
 968              	.L129:
 969 0296 0123     		movs	r3, #1
 970              	.L71:
 971              	.LVL110:
 972              	.LBE60:
 973              	.LBE59:
 235:minmea.c      ****                     while (minmea_isfield(*field))
 974              		.loc 1 235 0
 975 0298 002B     		cmp	r3, #0
 976 029a E7D1     		bne	.L72
 977              	.L70:
 237:minmea.c      ****                 }
 238:minmea.c      **** 
 239:minmea.c      ****                 *buf = '\0';
 978              		.loc 1 239 0
 979 029c 0023     		movs	r3, #0
 980 029e 0B70     		strb	r3, [r1]
 981              	.LBE58:
ARM GAS  C:\Users\armst\AppData\Local\Temp\ccFg2asa.s 			page 28


 240:minmea.c      ****             } break;
 982              		.loc 1 240 0
 983 02a0 0DE1     		b	.L65
 984              	.LVL111:
 985              	.L43:
 986              	.LBB61:
 241:minmea.c      **** 
 242:minmea.c      ****             case 't': { // NMEA talker+sentence identifier (char *).
 243:minmea.c      ****                 // This field is always mandatory.
 244:minmea.c      ****                 if (!field)
 987              		.loc 1 244 0
 988 02a2 002D     		cmp	r5, #0
 989 02a4 00D1     		bne	.LCB1040
 990 02a6 3EE1     		b	.L130	@long jump
 991              	.LCB1040:
 245:minmea.c      ****                     goto parse_error;
 246:minmea.c      **** 
 247:minmea.c      ****                 if (field[0] != '$')
 992              		.loc 1 247 0
 993 02a8 2B78     		ldrb	r3, [r5]
 994 02aa 242B     		cmp	r3, #36
 995 02ac 00D0     		beq	.LCB1043
 996 02ae 3CE1     		b	.L131	@long jump
 997              	.LCB1043:
 998 02b0 0023     		movs	r3, #0
 999 02b2 1DE0     		b	.L73
 1000              	.LVL112:
 1001              	.L75:
 1002              	.LBB62:
 248:minmea.c      ****                     goto parse_error;
 249:minmea.c      ****                 for (int f=0; f<5; f++)
 250:minmea.c      ****                     if (!minmea_isfield(field[1+f]))
 1003              		.loc 1 250 0
 1004 02b4 0133     		adds	r3, r3, #1
 1005              	.LVL113:
 1006 02b6 E95C     		ldrb	r1, [r5, r3]
 1007              	.LVL114:
 1008              	.LBB63:
 1009              	.LBB64:
 1010              		.loc 2 287 0
 1011 02b8 094A     		ldr	r2, .L151+4
 1012 02ba 1268     		ldr	r2, [r2]
 1013 02bc 5218     		adds	r2, r2, r1
 1014 02be 5278     		ldrb	r2, [r2, #1]
 1015 02c0 6820     		movs	r0, #104
 1016 02c2 8243     		bics	r2, r0
 1017 02c4 05D0     		beq	.L132
 1018 02c6 2C29     		cmp	r1, #44
 1019 02c8 05D0     		beq	.L133
 1020 02ca 2A29     		cmp	r1, #42
 1021 02cc 0CD1     		bne	.L134
 1022 02ce 0022     		movs	r2, #0
 1023 02d0 0BE0     		b	.L74
 1024              	.L132:
 1025 02d2 0022     		movs	r2, #0
 1026 02d4 09E0     		b	.L74
 1027              	.L133:
ARM GAS  C:\Users\armst\AppData\Local\Temp\ccFg2asa.s 			page 29


 1028 02d6 0022     		movs	r2, #0
 1029 02d8 07E0     		b	.L74
 1030              	.L152:
 1031 02da C046     		.align	2
 1032              	.L151:
 1033 02dc 00000000 		.word	.L35
 1034 02e0 00000000 		.word	__ctype_ptr__
 1035 02e4 FFFFFF7F 		.word	2147483647
 1036              	.L134:
 1037 02e8 0122     		movs	r2, #1
 1038              	.L74:
 1039              	.LVL115:
 1040              	.LBE64:
 1041              	.LBE63:
 1042              		.loc 1 250 0
 1043 02ea 002A     		cmp	r2, #0
 1044 02ec 00D1     		bne	.LCB1108
 1045 02ee 1EE1     		b	.L135	@long jump
 1046              	.LCB1108:
 1047              	.LVL116:
 1048              	.L73:
 249:minmea.c      ****                     if (!minmea_isfield(field[1+f]))
 1049              		.loc 1 249 0 discriminator 1
 1050 02f0 042B     		cmp	r3, #4
 1051 02f2 DFDD     		ble	.L75
 1052              	.LBE62:
 251:minmea.c      ****                         goto parse_error;
 252:minmea.c      **** 
 253:minmea.c      ****                 char *buf = va_arg(ap, char *);
 1053              		.loc 1 253 0
 1054 02f4 059B     		ldr	r3, [sp, #20]
 1055              	.LVL117:
 1056 02f6 1A1D     		adds	r2, r3, #4
 1057 02f8 0592     		str	r2, [sp, #20]
 1058 02fa 1F68     		ldr	r7, [r3]
 1059              	.LVL118:
 254:minmea.c      ****                 memcpy(buf, field+1, 5);
 1060              		.loc 1 254 0
 1061 02fc 691C     		adds	r1, r5, #1
 1062 02fe 0522     		movs	r2, #5
 1063 0300 3800     		movs	r0, r7
 1064 0302 FFF7FEFF 		bl	memcpy
 1065              	.LVL119:
 255:minmea.c      ****                 buf[5] = '\0';
 1066              		.loc 1 255 0
 1067 0306 0023     		movs	r3, #0
 1068 0308 7B71     		strb	r3, [r7, #5]
 1069              	.LBE61:
 256:minmea.c      ****             } break;
 1070              		.loc 1 256 0
 1071 030a D8E0     		b	.L65
 1072              	.LVL120:
 1073              	.L34:
 1074              	.LBB65:
 257:minmea.c      **** 
 258:minmea.c      ****             case 'D': { // Date (int, int, int), -1 if empty.
 259:minmea.c      ****                 struct minmea_date *date = va_arg(ap, struct minmea_date *);
ARM GAS  C:\Users\armst\AppData\Local\Temp\ccFg2asa.s 			page 30


 1075              		.loc 1 259 0
 1076 030c 059B     		ldr	r3, [sp, #20]
 1077 030e 1A1D     		adds	r2, r3, #4
 1078 0310 0592     		str	r2, [sp, #20]
 1079 0312 1F68     		ldr	r7, [r3]
 1080              	.LVL121:
 260:minmea.c      **** 
 261:minmea.c      ****                 int d = -1, m = -1, y = -1;
 262:minmea.c      **** 
 263:minmea.c      ****                 if (field && minmea_isfield(*field)) {
 1081              		.loc 1 263 0
 1082 0314 002D     		cmp	r5, #0
 1083 0316 49D0     		beq	.L136
 1084              		.loc 1 263 0 is_stmt 0 discriminator 1
 1085 0318 2878     		ldrb	r0, [r5]
 1086              	.LVL122:
 1087              	.LBB66:
 1088              	.LBB67:
 1089              		.loc 2 287 0 is_stmt 1 discriminator 1
 1090 031a 8B4B     		ldr	r3, .L153
 1091 031c 1968     		ldr	r1, [r3]
 1092 031e 0B18     		adds	r3, r1, r0
 1093 0320 5B78     		ldrb	r3, [r3, #1]
 1094 0322 6822     		movs	r2, #104
 1095 0324 9343     		bics	r3, r2
 1096 0326 05D0     		beq	.L137
 1097              		.loc 2 287 0 is_stmt 0
 1098 0328 2C28     		cmp	r0, #44
 1099 032a 05D0     		beq	.L138
 1100 032c 2A28     		cmp	r0, #42
 1101 032e 05D1     		bne	.L139
 1102 0330 0023     		movs	r3, #0
 1103 0332 04E0     		b	.L77
 1104              	.L137:
 1105 0334 0023     		movs	r3, #0
 1106 0336 02E0     		b	.L77
 1107              	.L138:
 1108 0338 0023     		movs	r3, #0
 1109 033a 00E0     		b	.L77
 1110              	.L139:
 1111 033c 0123     		movs	r3, #1
 1112              	.L77:
 1113              	.LVL123:
 1114              	.LBE67:
 1115              	.LBE66:
 1116              		.loc 1 263 0 is_stmt 1
 1117 033e 002B     		cmp	r3, #0
 1118 0340 0BD1     		bne	.L140
 261:minmea.c      **** 
 1119              		.loc 1 261 0
 1120 0342 0120     		movs	r0, #1
 1121 0344 4042     		rsbs	r0, r0, #0
 1122 0346 8246     		mov	r10, r0
 1123 0348 0500     		movs	r5, r0
 1124              	.LVL124:
 1125 034a 33E0     		b	.L76
 1126              	.LVL125:
ARM GAS  C:\Users\armst\AppData\Local\Temp\ccFg2asa.s 			page 31


 1127              	.L80:
 1128              	.LBB68:
 1129              	.LBB69:
 264:minmea.c      ****                     // Always six digits.
 265:minmea.c      ****                     for (int f=0; f<6; f++)
 266:minmea.c      ****                         if (!isdigit((unsigned char) field[f]))
 1130              		.loc 1 266 0
 1131 034c EA5C     		ldrb	r2, [r5, r3]
 1132 034e 8A18     		adds	r2, r1, r2
 1133 0350 5278     		ldrb	r2, [r2, #1]
 1134 0352 5207     		lsls	r2, r2, #29
 1135 0354 28D5     		bpl	.L79
 265:minmea.c      ****                         if (!isdigit((unsigned char) field[f]))
 1136              		.loc 1 265 0 discriminator 2
 1137 0356 0133     		adds	r3, r3, #1
 1138              	.LVL126:
 1139 0358 00E0     		b	.L78
 1140              	.LVL127:
 1141              	.L140:
 1142              	.LBE69:
 1143              	.LBE68:
 1144 035a 0023     		movs	r3, #0
 1145              	.L78:
 1146              	.LVL128:
 1147              	.LBB71:
 1148              	.LBB70:
 265:minmea.c      ****                         if (!isdigit((unsigned char) field[f]))
 1149              		.loc 1 265 0 is_stmt 0 discriminator 1
 1150 035c 052B     		cmp	r3, #5
 1151 035e F5DD     		ble	.L80
 1152              	.LBE70:
 267:minmea.c      ****                             goto parse_error;
 268:minmea.c      **** 
 269:minmea.c      ****                     char dArr[] = {field[0], field[1], '\0'};
 1153              		.loc 1 269 0 is_stmt 1
 1154 0360 02AB     		add	r3, sp, #8
 1155              	.LVL129:
 1156 0362 1870     		strb	r0, [r3]
 1157 0364 6B78     		ldrb	r3, [r5, #1]
 1158 0366 02AA     		add	r2, sp, #8
 1159 0368 5370     		strb	r3, [r2, #1]
 1160 036a 0023     		movs	r3, #0
 1161 036c 9370     		strb	r3, [r2, #2]
 270:minmea.c      ****                     char mArr[] = {field[2], field[3], '\0'};
 1162              		.loc 1 270 0
 1163 036e AA78     		ldrb	r2, [r5, #2]
 1164 0370 02A9     		add	r1, sp, #8
 1165 0372 0A71     		strb	r2, [r1, #4]
 1166 0374 EA78     		ldrb	r2, [r5, #3]
 1167 0376 4A71     		strb	r2, [r1, #5]
 1168 0378 8B71     		strb	r3, [r1, #6]
 271:minmea.c      ****                     char yArr[] = {field[4], field[5], '\0'};
 1169              		.loc 1 271 0
 1170 037a 2A79     		ldrb	r2, [r5, #4]
 1171 037c 0A72     		strb	r2, [r1, #8]
 1172 037e 6A79     		ldrb	r2, [r5, #5]
 1173 0380 4A72     		strb	r2, [r1, #9]
ARM GAS  C:\Users\armst\AppData\Local\Temp\ccFg2asa.s 			page 32


 1174 0382 8B72     		strb	r3, [r1, #10]
 272:minmea.c      ****                     d = strtol(dArr, NULL, 10);
 1175              		.loc 1 272 0
 1176 0384 0A22     		movs	r2, #10
 1177 0386 0021     		movs	r1, #0
 1178 0388 02A8     		add	r0, sp, #8
 1179 038a FFF7FEFF 		bl	strtol
 1180              	.LVL130:
 1181 038e 0500     		movs	r5, r0
 1182              	.LVL131:
 273:minmea.c      ****                     m = strtol(mArr, NULL, 10);
 1183              		.loc 1 273 0
 1184 0390 0A22     		movs	r2, #10
 1185 0392 0021     		movs	r1, #0
 1186 0394 03A8     		add	r0, sp, #12
 1187              	.LVL132:
 1188 0396 FFF7FEFF 		bl	strtol
 1189              	.LVL133:
 1190 039a 8246     		mov	r10, r0
 1191              	.LVL134:
 274:minmea.c      ****                     y = strtol(yArr, NULL, 10);
 1192              		.loc 1 274 0
 1193 039c 0A22     		movs	r2, #10
 1194 039e 0021     		movs	r1, #0
 1195 03a0 04A8     		add	r0, sp, #16
 1196              	.LVL135:
 1197 03a2 FFF7FEFF 		bl	strtol
 1198              	.LVL136:
 1199 03a6 05E0     		b	.L76
 1200              	.LVL137:
 1201              	.L79:
 1202              	.LBE71:
 1203              	.LBE65:
 1204              	.LBE87:
  90:minmea.c      ****     bool optional = false;
 1205              		.loc 1 90 0
 1206 03a8 0020     		movs	r0, #0
 1207 03aa C3E0     		b	.L29
 1208              	.LVL138:
 1209              	.L136:
 1210              	.LBB88:
 1211              	.LBB72:
 261:minmea.c      **** 
 1212              		.loc 1 261 0
 1213 03ac 0120     		movs	r0, #1
 1214 03ae 4042     		rsbs	r0, r0, #0
 1215 03b0 8246     		mov	r10, r0
 1216 03b2 0500     		movs	r5, r0
 1217              	.LVL139:
 1218              	.L76:
 275:minmea.c      ****                 }
 276:minmea.c      **** 
 277:minmea.c      ****                 date->day = d;
 1219              		.loc 1 277 0
 1220 03b4 3D60     		str	r5, [r7]
 278:minmea.c      ****                 date->month = m;
 1221              		.loc 1 278 0
ARM GAS  C:\Users\armst\AppData\Local\Temp\ccFg2asa.s 			page 33


 1222 03b6 5346     		mov	r3, r10
 1223 03b8 7B60     		str	r3, [r7, #4]
 279:minmea.c      ****                 date->year = y;
 1224              		.loc 1 279 0
 1225 03ba B860     		str	r0, [r7, #8]
 1226              	.LBE72:
 280:minmea.c      ****             } break;
 1227              		.loc 1 280 0
 1228 03bc 7FE0     		b	.L65
 1229              	.LVL140:
 1230              	.L36:
 1231              	.LBB73:
 281:minmea.c      **** 
 282:minmea.c      ****             case 'T': { // Time (int, int, int, int), -1 if empty.
 283:minmea.c      ****                 struct minmea_time *time_ = va_arg(ap, struct minmea_time *);
 1232              		.loc 1 283 0
 1233 03be 059B     		ldr	r3, [sp, #20]
 1234 03c0 1A1D     		adds	r2, r3, #4
 1235 03c2 0592     		str	r2, [sp, #20]
 1236 03c4 1B68     		ldr	r3, [r3]
 1237 03c6 9946     		mov	r9, r3
 1238              	.LVL141:
 284:minmea.c      **** 
 285:minmea.c      ****                 int h = -1, i = -1, s = -1, u = -1;
 286:minmea.c      **** 
 287:minmea.c      ****                 if (field && minmea_isfield(*field)) {
 1239              		.loc 1 287 0
 1240 03c8 002D     		cmp	r5, #0
 1241 03ca 69D0     		beq	.L141
 1242              		.loc 1 287 0 is_stmt 0 discriminator 1
 1243 03cc 2878     		ldrb	r0, [r5]
 1244              	.LVL142:
 1245              	.LBB74:
 1246              	.LBB75:
 1247              		.loc 2 287 0 is_stmt 1 discriminator 1
 1248 03ce 5E4B     		ldr	r3, .L153
 1249              	.LVL143:
 1250 03d0 1968     		ldr	r1, [r3]
 1251 03d2 0B18     		adds	r3, r1, r0
 1252 03d4 5B78     		ldrb	r3, [r3, #1]
 1253 03d6 6822     		movs	r2, #104
 1254 03d8 9343     		bics	r3, r2
 1255 03da 05D0     		beq	.L142
 1256              		.loc 2 287 0 is_stmt 0
 1257 03dc 2C28     		cmp	r0, #44
 1258 03de 05D0     		beq	.L143
 1259 03e0 2A28     		cmp	r0, #42
 1260 03e2 05D1     		bne	.L144
 1261 03e4 0023     		movs	r3, #0
 1262 03e6 04E0     		b	.L82
 1263              	.L142:
 1264 03e8 0023     		movs	r3, #0
 1265 03ea 02E0     		b	.L82
 1266              	.L143:
 1267 03ec 0023     		movs	r3, #0
 1268 03ee 00E0     		b	.L82
 1269              	.L144:
ARM GAS  C:\Users\armst\AppData\Local\Temp\ccFg2asa.s 			page 34


 1270 03f0 0123     		movs	r3, #1
 1271              	.L82:
 1272              	.LVL144:
 1273              	.LBE75:
 1274              	.LBE74:
 1275              		.loc 1 287 0 is_stmt 1
 1276 03f2 002B     		cmp	r3, #0
 1277 03f4 0CD1     		bne	.L145
 285:minmea.c      **** 
 1278              		.loc 1 285 0
 1279 03f6 0120     		movs	r0, #1
 1280 03f8 4042     		rsbs	r0, r0, #0
 1281 03fa 0190     		str	r0, [sp, #4]
 1282 03fc 8246     		mov	r10, r0
 1283 03fe 8346     		mov	fp, r0
 1284 0400 53E0     		b	.L81
 1285              	.LVL145:
 1286              	.L85:
 1287              	.LBB76:
 1288              	.LBB77:
 288:minmea.c      ****                     // Minimum required: integer time.
 289:minmea.c      ****                     for (int f=0; f<6; f++)
 290:minmea.c      ****                         if (!isdigit((unsigned char) field[f]))
 1289              		.loc 1 290 0
 1290 0402 EA5C     		ldrb	r2, [r5, r3]
 1291 0404 8A18     		adds	r2, r1, r2
 1292 0406 5278     		ldrb	r2, [r2, #1]
 1293 0408 5207     		lsls	r2, r2, #29
 1294 040a 47D5     		bpl	.L84
 289:minmea.c      ****                         if (!isdigit((unsigned char) field[f]))
 1295              		.loc 1 289 0 discriminator 2
 1296 040c 0133     		adds	r3, r3, #1
 1297              	.LVL146:
 1298 040e 00E0     		b	.L83
 1299              	.LVL147:
 1300              	.L145:
 1301              	.LBE77:
 1302              	.LBE76:
 1303 0410 0023     		movs	r3, #0
 1304              	.L83:
 1305              	.LVL148:
 1306              	.LBB81:
 1307              	.LBB78:
 289:minmea.c      ****                         if (!isdigit((unsigned char) field[f]))
 1308              		.loc 1 289 0 is_stmt 0 discriminator 1
 1309 0412 052B     		cmp	r3, #5
 1310 0414 F5DD     		ble	.L85
 1311              	.LBE78:
 291:minmea.c      ****                             goto parse_error;
 292:minmea.c      **** 
 293:minmea.c      ****                     char hArr[] = {field[0], field[1], '\0'};
 1312              		.loc 1 293 0 is_stmt 1
 1313 0416 02AB     		add	r3, sp, #8
 1314              	.LVL149:
 1315 0418 1870     		strb	r0, [r3]
 1316 041a 6B78     		ldrb	r3, [r5, #1]
 1317 041c 02AA     		add	r2, sp, #8
ARM GAS  C:\Users\armst\AppData\Local\Temp\ccFg2asa.s 			page 35


 1318 041e 5370     		strb	r3, [r2, #1]
 1319 0420 0023     		movs	r3, #0
 1320 0422 9370     		strb	r3, [r2, #2]
 294:minmea.c      ****                     char iArr[] = {field[2], field[3], '\0'};
 1321              		.loc 1 294 0
 1322 0424 AA78     		ldrb	r2, [r5, #2]
 1323 0426 02A9     		add	r1, sp, #8
 1324 0428 0A71     		strb	r2, [r1, #4]
 1325 042a EA78     		ldrb	r2, [r5, #3]
 1326 042c 4A71     		strb	r2, [r1, #5]
 1327 042e 8B71     		strb	r3, [r1, #6]
 295:minmea.c      ****                     char sArr[] = {field[4], field[5], '\0'};
 1328              		.loc 1 295 0
 1329 0430 04AF     		add	r7, sp, #16
 1330 0432 2A79     		ldrb	r2, [r5, #4]
 1331 0434 3A70     		strb	r2, [r7]
 1332 0436 6A79     		ldrb	r2, [r5, #5]
 1333 0438 7A70     		strb	r2, [r7, #1]
 1334 043a BB70     		strb	r3, [r7, #2]
 296:minmea.c      ****                     h = strtol(hArr, NULL, 10);
 1335              		.loc 1 296 0
 1336 043c 0A22     		movs	r2, #10
 1337 043e 0021     		movs	r1, #0
 1338 0440 02A8     		add	r0, sp, #8
 1339 0442 FFF7FEFF 		bl	strtol
 1340              	.LVL150:
 1341 0446 8346     		mov	fp, r0
 1342              	.LVL151:
 297:minmea.c      ****                     i = strtol(iArr, NULL, 10);
 1343              		.loc 1 297 0
 1344 0448 0A22     		movs	r2, #10
 1345 044a 0021     		movs	r1, #0
 1346 044c 03A8     		add	r0, sp, #12
 1347              	.LVL152:
 1348 044e FFF7FEFF 		bl	strtol
 1349              	.LVL153:
 1350 0452 8246     		mov	r10, r0
 1351              	.LVL154:
 298:minmea.c      ****                     s = strtol(sArr, NULL, 10);
 1352              		.loc 1 298 0
 1353 0454 0A22     		movs	r2, #10
 1354 0456 0021     		movs	r1, #0
 1355 0458 3800     		movs	r0, r7
 1356              	.LVL155:
 1357 045a FFF7FEFF 		bl	strtol
 1358              	.LVL156:
 1359 045e 0190     		str	r0, [sp, #4]
 1360              	.LVL157:
 299:minmea.c      ****                     field += 6;
 300:minmea.c      **** 
 301:minmea.c      ****                     // Extra: fractional time. Saved as microseconds.
 302:minmea.c      ****                     if (*field++ == '.') {
 1361              		.loc 1 302 0
 1362 0460 EF1D     		adds	r7, r5, #7
 1363              	.LVL158:
 1364 0462 AB79     		ldrb	r3, [r5, #6]
 1365 0464 2E2B     		cmp	r3, #46
ARM GAS  C:\Users\armst\AppData\Local\Temp\ccFg2asa.s 			page 36


 1366 0466 0CD0     		beq	.L146
 303:minmea.c      ****                         uint32_t value = 0;
 304:minmea.c      ****                         uint32_t scale = 1000000LU;
 305:minmea.c      ****                         while (isdigit((unsigned char) *field) && scale > 1) {
 306:minmea.c      ****                             value = (value * 10) + (*field++ - '0');
 307:minmea.c      ****                             scale /= 10;
 308:minmea.c      ****                         }
 309:minmea.c      ****                         u = value * scale;
 310:minmea.c      ****                     } else {
 311:minmea.c      ****                         u = 0;
 1367              		.loc 1 311 0
 1368 0468 0020     		movs	r0, #0
 1369              	.LVL159:
 1370 046a 1EE0     		b	.L81
 1371              	.LVL160:
 1372              	.L89:
 1373              	.LBB79:
 306:minmea.c      ****                             scale /= 10;
 1374              		.loc 1 306 0
 1375 046c AA00     		lsls	r2, r5, #2
 1376 046e 5219     		adds	r2, r2, r5
 1377 0470 5300     		lsls	r3, r2, #1
 1378 0472 0137     		adds	r7, r7, #1
 1379              	.LVL161:
 1380 0474 CB18     		adds	r3, r1, r3
 1381 0476 303B     		subs	r3, r3, #48
 1382 0478 1D00     		movs	r5, r3
 1383              	.LVL162:
 307:minmea.c      ****                         }
 1384              		.loc 1 307 0
 1385 047a 0A21     		movs	r1, #10
 1386 047c FFF7FEFF 		bl	__aeabi_uidiv
 1387              	.LVL163:
 1388 0480 01E0     		b	.L86
 1389              	.LVL164:
 1390              	.L146:
 1391              	.LBE79:
 1392 0482 3248     		ldr	r0, .L153+4
 1393              	.LVL165:
 1394 0484 0025     		movs	r5, #0
 1395              	.L86:
 1396              	.LVL166:
 1397              	.LBB80:
 305:minmea.c      ****                             value = (value * 10) + (*field++ - '0');
 1398              		.loc 1 305 0
 1399 0486 3978     		ldrb	r1, [r7]
 1400 0488 2F4B     		ldr	r3, .L153
 1401 048a 1B68     		ldr	r3, [r3]
 1402 048c 5B18     		adds	r3, r3, r1
 1403 048e 5B78     		ldrb	r3, [r3, #1]
 1404 0490 5B07     		lsls	r3, r3, #29
 1405 0492 01D5     		bpl	.L88
 305:minmea.c      ****                             value = (value * 10) + (*field++ - '0');
 1406              		.loc 1 305 0 is_stmt 0 discriminator 1
 1407 0494 0128     		cmp	r0, #1
 1408 0496 E9D8     		bhi	.L89
 1409              	.L88:
ARM GAS  C:\Users\armst\AppData\Local\Temp\ccFg2asa.s 			page 37


 309:minmea.c      ****                     } else {
 1410              		.loc 1 309 0 is_stmt 1
 1411 0498 6843     		muls	r0, r5
 1412              	.LVL167:
 1413              	.LBE80:
 1414 049a 06E0     		b	.L81
 1415              	.LVL168:
 1416              	.L84:
 1417              	.LBE81:
 1418              	.LBE73:
 1419              	.LBE88:
  90:minmea.c      ****     bool optional = false;
 1420              		.loc 1 90 0
 1421 049c 0020     		movs	r0, #0
 1422 049e 49E0     		b	.L29
 1423              	.LVL169:
 1424              	.L141:
 1425              	.LBB89:
 1426              	.LBB82:
 285:minmea.c      **** 
 1427              		.loc 1 285 0
 1428 04a0 0120     		movs	r0, #1
 1429 04a2 4042     		rsbs	r0, r0, #0
 1430 04a4 0190     		str	r0, [sp, #4]
 1431 04a6 8246     		mov	r10, r0
 1432 04a8 8346     		mov	fp, r0
 1433              	.LVL170:
 1434              	.L81:
 312:minmea.c      ****                     }
 313:minmea.c      ****                 }
 314:minmea.c      **** 
 315:minmea.c      ****                 time_->hours = h;
 1435              		.loc 1 315 0
 1436 04aa 4B46     		mov	r3, r9
 1437 04ac 5A46     		mov	r2, fp
 1438 04ae 1A60     		str	r2, [r3]
 316:minmea.c      ****                 time_->minutes = i;
 1439              		.loc 1 316 0
 1440 04b0 5246     		mov	r2, r10
 1441 04b2 5A60     		str	r2, [r3, #4]
 317:minmea.c      ****                 time_->seconds = s;
 1442              		.loc 1 317 0
 1443 04b4 019A     		ldr	r2, [sp, #4]
 1444 04b6 9A60     		str	r2, [r3, #8]
 318:minmea.c      ****                 time_->microseconds = u;
 1445              		.loc 1 318 0
 1446 04b8 D860     		str	r0, [r3, #12]
 1447              	.LBE82:
 319:minmea.c      ****             } break;
 1448              		.loc 1 319 0
 1449 04ba 00E0     		b	.L65
 1450              	.LVL171:
 1451              	.L91:
 320:minmea.c      **** 
 321:minmea.c      ****             case '_': { // Ignore the field.
 322:minmea.c      ****             } break;
 323:minmea.c      **** 
ARM GAS  C:\Users\armst\AppData\Local\Temp\ccFg2asa.s 			page 38


 324:minmea.c      ****             default: { // Unknown.
 325:minmea.c      ****                 goto parse_error;
 326:minmea.c      ****             }
 327:minmea.c      ****         }
 328:minmea.c      **** 
 329:minmea.c      ****         next_field();
 1452              		.loc 1 329 0 discriminator 2
 1453 04bc 0134     		adds	r4, r4, #1
 1454              	.LVL172:
 1455              	.L65:
 1456              		.loc 1 329 0 is_stmt 0 discriminator 1
 1457 04be 2278     		ldrb	r2, [r4]
 1458              	.LVL173:
 1459              	.LBB83:
 1460              	.LBB84:
 1461              		.loc 2 287 0 is_stmt 1 discriminator 1
 1462 04c0 214B     		ldr	r3, .L153
 1463 04c2 1B68     		ldr	r3, [r3]
 1464 04c4 9B18     		adds	r3, r3, r2
 1465 04c6 5B78     		ldrb	r3, [r3, #1]
 1466 04c8 6821     		movs	r1, #104
 1467 04ca 8B43     		bics	r3, r1
 1468 04cc 05D0     		beq	.L147
 1469              		.loc 2 287 0 is_stmt 0
 1470 04ce 2C2A     		cmp	r2, #44
 1471 04d0 05D0     		beq	.L148
 1472 04d2 2A2A     		cmp	r2, #42
 1473 04d4 05D1     		bne	.L149
 1474 04d6 0023     		movs	r3, #0
 1475 04d8 04E0     		b	.L90
 1476              	.L147:
 1477 04da 0023     		movs	r3, #0
 1478 04dc 02E0     		b	.L90
 1479              	.L148:
 1480 04de 0023     		movs	r3, #0
 1481 04e0 00E0     		b	.L90
 1482              	.L149:
 1483 04e2 0123     		movs	r3, #1
 1484              	.L90:
 1485              	.LVL174:
 1486              	.LBE84:
 1487              	.LBE83:
 1488              		.loc 1 329 0 is_stmt 1
 1489 04e4 002B     		cmp	r3, #0
 1490 04e6 E9D1     		bne	.L91
 1491              		.loc 1 329 0 is_stmt 0 discriminator 3
 1492 04e8 2C2A     		cmp	r2, #44
 1493 04ea 05D1     		bne	.L150
 1494              		.loc 1 329 0 discriminator 4
 1495 04ec 0134     		adds	r4, r4, #1
 1496              	.LVL175:
 1497 04ee 2500     		movs	r5, r4
 1498 04f0 03E0     		b	.L30
 1499              	.LVL176:
 1500              	.L94:
 119:minmea.c      ****             continue;
 1501              		.loc 1 119 0 is_stmt 1
ARM GAS  C:\Users\armst\AppData\Local\Temp\ccFg2asa.s 			page 39


 1502 04f2 0123     		movs	r3, #1
 1503              	.LVL177:
 1504 04f4 9846     		mov	r8, r3
 1505              	.LVL178:
 1506 04f6 00E0     		b	.L30
 1507              	.LVL179:
 1508              	.L150:
 1509              		.loc 1 329 0
 1510 04f8 0025     		movs	r5, #0
 1511              	.LVL180:
 1512              	.L30:
 1513              	.LBE89:
 114:minmea.c      ****         char type = *format++;
 1514              		.loc 1 114 0
 1515 04fa 3378     		ldrb	r3, [r6]
 1516 04fc 002B     		cmp	r3, #0
 1517 04fe 00D0     		beq	.LCB1709
 1518 0500 90E5     		b	.L92	@long jump
 1519              	.LCB1709:
 330:minmea.c      ****     }
 331:minmea.c      **** 
 332:minmea.c      ****     result = true;
 1520              		.loc 1 332 0
 1521 0502 0120     		movs	r0, #1
 1522 0504 16E0     		b	.L29
 1523              	.LVL181:
 1524              	.L95:
  90:minmea.c      ****     bool optional = false;
 1525              		.loc 1 90 0
 1526 0506 0020     		movs	r0, #0
 1527 0508 14E0     		b	.L29
 1528              	.LVL182:
 1529              	.L96:
 1530 050a 0020     		movs	r0, #0
 1531 050c 12E0     		b	.L29
 1532              	.LVL183:
 1533              	.L106:
 1534 050e 0020     		movs	r0, #0
 1535 0510 10E0     		b	.L29
 1536              	.LVL184:
 1537              	.L113:
 1538 0512 0020     		movs	r0, #0
 1539 0514 0EE0     		b	.L29
 1540              	.LVL185:
 1541              	.L114:
 1542 0516 0020     		movs	r0, #0
 1543 0518 0CE0     		b	.L29
 1544              	.LVL186:
 1545              	.L115:
 1546 051a 0020     		movs	r0, #0
 1547 051c 0AE0     		b	.L29
 1548              	.LVL187:
 1549              	.L116:
 1550 051e 0020     		movs	r0, #0
 1551 0520 08E0     		b	.L29
 1552              	.LVL188:
 1553              	.L120:
ARM GAS  C:\Users\armst\AppData\Local\Temp\ccFg2asa.s 			page 40


 1554 0522 0020     		movs	r0, #0
 1555 0524 06E0     		b	.L29
 1556              	.LVL189:
 1557              	.L130:
 1558 0526 0020     		movs	r0, #0
 1559 0528 04E0     		b	.L29
 1560              	.L131:
 1561 052a 0020     		movs	r0, #0
 1562 052c 02E0     		b	.L29
 1563              	.LVL190:
 1564              	.L135:
 1565 052e 0020     		movs	r0, #0
 1566              	.L33:
 1567              	.LVL191:
 333:minmea.c      **** 
 334:minmea.c      **** parse_error:
 335:minmea.c      ****     va_end(ap);
 336:minmea.c      ****     return result;
 1568              		.loc 1 336 0
 1569 0530 00E0     		b	.L29
 1570              	.LVL192:
 1571              	.L93:
  94:minmea.c      **** 
 1572              		.loc 1 94 0
 1573 0532 0020     		movs	r0, #0
 1574              	.LVL193:
 1575              	.L29:
 337:minmea.c      **** }
 1576              		.loc 1 337 0
 1577 0534 06B0     		add	sp, sp, #24
 1578              		@ sp needed
 1579              	.LVL194:
 1580 0536 3CBC     		pop	{r2, r3, r4, r5}
 1581 0538 9046     		mov	r8, r2
 1582 053a 9946     		mov	r9, r3
 1583 053c A246     		mov	r10, r4
 1584 053e AB46     		mov	fp, r5
 1585 0540 F0BC     		pop	{r4, r5, r6, r7}
 1586 0542 08BC     		pop	{r3}
 1587 0544 03B0     		add	sp, sp, #12
 1588 0546 1847     		bx	r3
 1589              	.L154:
 1590              		.align	2
 1591              	.L153:
 1592 0548 00000000 		.word	__ctype_ptr__
 1593 054c 40420F00 		.word	1000000
 1594              		.cfi_endproc
 1595              	.LFE7:
 1596              		.size	minmea_scan, .-minmea_scan
 1597              		.section	.text.minmea_talker_id,"ax",%progbits
 1598              		.align	2
 1599              		.global	minmea_talker_id
 1600              		.code	16
 1601              		.thumb_func
 1602              		.type	minmea_talker_id, %function
 1603              	minmea_talker_id:
 1604              	.LFB8:
ARM GAS  C:\Users\armst\AppData\Local\Temp\ccFg2asa.s 			page 41


 338:minmea.c      **** 
 339:minmea.c      **** bool minmea_talker_id(char talker[3], const char *sentence)
 340:minmea.c      **** {
 1605              		.loc 1 340 0
 1606              		.cfi_startproc
 1607              		@ args = 0, pretend = 0, frame = 8
 1608              		@ frame_needed = 0, uses_anonymous_args = 0
 1609              	.LVL195:
 1610 0000 10B5     		push	{r4, lr}
 1611              		.cfi_def_cfa_offset 8
 1612              		.cfi_offset 4, -8
 1613              		.cfi_offset 14, -4
 1614 0002 82B0     		sub	sp, sp, #8
 1615              		.cfi_def_cfa_offset 16
 1616 0004 0400     		movs	r4, r0
 1617 0006 0800     		movs	r0, r1
 1618              	.LVL196:
 341:minmea.c      ****     char type[6];
 342:minmea.c      ****     if (!minmea_scan(sentence, "t", type))
 1619              		.loc 1 342 0
 1620 0008 6A46     		mov	r2, sp
 1621 000a 0749     		ldr	r1, .L157
 1622              	.LVL197:
 1623 000c FFF7FEFF 		bl	minmea_scan
 1624              	.LVL198:
 1625 0010 0028     		cmp	r0, #0
 1626 0012 07D0     		beq	.L156
 343:minmea.c      ****         return false;
 344:minmea.c      **** 
 345:minmea.c      ****     talker[0] = type[0];
 1627              		.loc 1 345 0
 1628 0014 6B46     		mov	r3, sp
 1629 0016 1B78     		ldrb	r3, [r3]
 1630 0018 2370     		strb	r3, [r4]
 346:minmea.c      ****     talker[1] = type[1];
 1631              		.loc 1 346 0
 1632 001a 6B46     		mov	r3, sp
 1633 001c 5B78     		ldrb	r3, [r3, #1]
 1634 001e 6370     		strb	r3, [r4, #1]
 347:minmea.c      ****     talker[2] = '\0';
 1635              		.loc 1 347 0
 1636 0020 0023     		movs	r3, #0
 1637 0022 A370     		strb	r3, [r4, #2]
 1638              	.L156:
 348:minmea.c      **** 
 349:minmea.c      ****     return true;
 350:minmea.c      **** }
 1639              		.loc 1 350 0
 1640 0024 02B0     		add	sp, sp, #8
 1641              		@ sp needed
 1642              	.LVL199:
 1643 0026 10BD     		pop	{r4, pc}
 1644              	.L158:
 1645              		.align	2
 1646              	.L157:
 1647 0028 00000000 		.word	.LC3
 1648              		.cfi_endproc
ARM GAS  C:\Users\armst\AppData\Local\Temp\ccFg2asa.s 			page 42


 1649              	.LFE8:
 1650              		.size	minmea_talker_id, .-minmea_talker_id
 1651              		.section	.text.minmea_sentence_id,"ax",%progbits
 1652              		.align	2
 1653              		.global	minmea_sentence_id
 1654              		.code	16
 1655              		.thumb_func
 1656              		.type	minmea_sentence_id, %function
 1657              	minmea_sentence_id:
 1658              	.LFB9:
 351:minmea.c      **** 
 352:minmea.c      **** enum minmea_sentence_id minmea_sentence_id(const char *sentence, bool strict)
 353:minmea.c      **** {
 1659              		.loc 1 353 0
 1660              		.cfi_startproc
 1661              		@ args = 0, pretend = 0, frame = 8
 1662              		@ frame_needed = 0, uses_anonymous_args = 0
 1663              	.LVL200:
 1664 0000 10B5     		push	{r4, lr}
 1665              		.cfi_def_cfa_offset 8
 1666              		.cfi_offset 4, -8
 1667              		.cfi_offset 14, -4
 1668 0002 82B0     		sub	sp, sp, #8
 1669              		.cfi_def_cfa_offset 16
 1670 0004 0400     		movs	r4, r0
 354:minmea.c      ****     if (!minmea_check(sentence, strict))
 1671              		.loc 1 354 0
 1672 0006 FFF7FEFF 		bl	minmea_check
 1673              	.LVL201:
 1674 000a 0028     		cmp	r0, #0
 1675 000c 47D0     		beq	.L161
 355:minmea.c      ****         return MINMEA_INVALID;
 356:minmea.c      **** 
 357:minmea.c      ****     char type[6];
 358:minmea.c      ****     if (!minmea_scan(sentence, "t", type))
 1676              		.loc 1 358 0
 1677 000e 6A46     		mov	r2, sp
 1678 0010 2F49     		ldr	r1, .L172
 1679 0012 2000     		movs	r0, r4
 1680 0014 FFF7FEFF 		bl	minmea_scan
 1681              	.LVL202:
 1682 0018 0028     		cmp	r0, #0
 1683 001a 43D0     		beq	.L162
 359:minmea.c      ****         return MINMEA_INVALID;
 360:minmea.c      **** 
 361:minmea.c      ****     if (!strcmp(type+2, "GBS"))
 1684              		.loc 1 361 0
 1685 001c 2D49     		ldr	r1, .L172+4
 1686 001e 6B46     		mov	r3, sp
 1687 0020 981C     		adds	r0, r3, #2
 1688 0022 FFF7FEFF 		bl	strcmp
 1689              	.LVL203:
 1690 0026 0028     		cmp	r0, #0
 1691 0028 3FD0     		beq	.L163
 362:minmea.c      ****         return MINMEA_SENTENCE_GBS;
 363:minmea.c      ****     if (!strcmp(type+2, "GGA"))
 1692              		.loc 1 363 0
ARM GAS  C:\Users\armst\AppData\Local\Temp\ccFg2asa.s 			page 43


 1693 002a 2B49     		ldr	r1, .L172+8
 1694 002c 6B46     		mov	r3, sp
 1695 002e 981C     		adds	r0, r3, #2
 1696 0030 FFF7FEFF 		bl	strcmp
 1697              	.LVL204:
 1698 0034 0028     		cmp	r0, #0
 1699 0036 3AD0     		beq	.L164
 364:minmea.c      ****         return MINMEA_SENTENCE_GGA;
 365:minmea.c      ****     if (!strcmp(type+2, "GLL"))
 1700              		.loc 1 365 0
 1701 0038 2849     		ldr	r1, .L172+12
 1702 003a 6B46     		mov	r3, sp
 1703 003c 981C     		adds	r0, r3, #2
 1704 003e FFF7FEFF 		bl	strcmp
 1705              	.LVL205:
 1706 0042 0028     		cmp	r0, #0
 1707 0044 35D0     		beq	.L165
 366:minmea.c      ****         return MINMEA_SENTENCE_GLL;
 367:minmea.c      ****     if (!strcmp(type+2, "GSA"))
 1708              		.loc 1 367 0
 1709 0046 2649     		ldr	r1, .L172+16
 1710 0048 6B46     		mov	r3, sp
 1711 004a 981C     		adds	r0, r3, #2
 1712 004c FFF7FEFF 		bl	strcmp
 1713              	.LVL206:
 1714 0050 0028     		cmp	r0, #0
 1715 0052 30D0     		beq	.L166
 368:minmea.c      ****         return MINMEA_SENTENCE_GSA;
 369:minmea.c      ****     if (!strcmp(type+2, "GST"))
 1716              		.loc 1 369 0
 1717 0054 2349     		ldr	r1, .L172+20
 1718 0056 6B46     		mov	r3, sp
 1719 0058 981C     		adds	r0, r3, #2
 1720 005a FFF7FEFF 		bl	strcmp
 1721              	.LVL207:
 1722 005e 0028     		cmp	r0, #0
 1723 0060 2BD0     		beq	.L167
 370:minmea.c      ****         return MINMEA_SENTENCE_GST;
 371:minmea.c      ****     if (!strcmp(type+2, "GSV"))
 1724              		.loc 1 371 0
 1725 0062 2149     		ldr	r1, .L172+24
 1726 0064 6B46     		mov	r3, sp
 1727 0066 981C     		adds	r0, r3, #2
 1728 0068 FFF7FEFF 		bl	strcmp
 1729              	.LVL208:
 1730 006c 0028     		cmp	r0, #0
 1731 006e 26D0     		beq	.L168
 372:minmea.c      ****         return MINMEA_SENTENCE_GSV;
 373:minmea.c      ****     if (!strcmp(type+2, "RMC"))
 1732              		.loc 1 373 0
 1733 0070 1E49     		ldr	r1, .L172+28
 1734 0072 6B46     		mov	r3, sp
 1735 0074 981C     		adds	r0, r3, #2
 1736 0076 FFF7FEFF 		bl	strcmp
 1737              	.LVL209:
 1738 007a 0028     		cmp	r0, #0
 1739 007c 21D0     		beq	.L169
ARM GAS  C:\Users\armst\AppData\Local\Temp\ccFg2asa.s 			page 44


 374:minmea.c      ****         return MINMEA_SENTENCE_RMC;
 375:minmea.c      ****     if (!strcmp(type+2, "VTG"))
 1740              		.loc 1 375 0
 1741 007e 1C49     		ldr	r1, .L172+32
 1742 0080 6B46     		mov	r3, sp
 1743 0082 981C     		adds	r0, r3, #2
 1744 0084 FFF7FEFF 		bl	strcmp
 1745              	.LVL210:
 1746 0088 0028     		cmp	r0, #0
 1747 008a 1CD0     		beq	.L170
 376:minmea.c      ****         return MINMEA_SENTENCE_VTG;
 377:minmea.c      ****     if (!strcmp(type+2, "ZDA"))
 1748              		.loc 1 377 0
 1749 008c 1949     		ldr	r1, .L172+36
 1750 008e 6B46     		mov	r3, sp
 1751 0090 981C     		adds	r0, r3, #2
 1752 0092 FFF7FEFF 		bl	strcmp
 1753              	.LVL211:
 1754 0096 0028     		cmp	r0, #0
 1755 0098 17D1     		bne	.L171
 378:minmea.c      ****         return MINMEA_SENTENCE_ZDA;
 1756              		.loc 1 378 0
 1757 009a 0930     		adds	r0, r0, #9
 1758 009c 16E0     		b	.L160
 1759              	.L161:
 355:minmea.c      **** 
 1760              		.loc 1 355 0
 1761 009e 0120     		movs	r0, #1
 1762 00a0 4042     		rsbs	r0, r0, #0
 1763 00a2 13E0     		b	.L160
 1764              	.L162:
 359:minmea.c      **** 
 1765              		.loc 1 359 0
 1766 00a4 0120     		movs	r0, #1
 1767 00a6 4042     		rsbs	r0, r0, #0
 1768 00a8 10E0     		b	.L160
 1769              	.L163:
 362:minmea.c      ****     if (!strcmp(type+2, "GGA"))
 1770              		.loc 1 362 0
 1771 00aa 0120     		movs	r0, #1
 1772 00ac 0EE0     		b	.L160
 1773              	.L164:
 364:minmea.c      ****     if (!strcmp(type+2, "GLL"))
 1774              		.loc 1 364 0
 1775 00ae 0220     		movs	r0, #2
 1776 00b0 0CE0     		b	.L160
 1777              	.L165:
 366:minmea.c      ****     if (!strcmp(type+2, "GSA"))
 1778              		.loc 1 366 0
 1779 00b2 0320     		movs	r0, #3
 1780 00b4 0AE0     		b	.L160
 1781              	.L166:
 368:minmea.c      ****     if (!strcmp(type+2, "GST"))
 1782              		.loc 1 368 0
 1783 00b6 0420     		movs	r0, #4
 1784 00b8 08E0     		b	.L160
 1785              	.L167:
ARM GAS  C:\Users\armst\AppData\Local\Temp\ccFg2asa.s 			page 45


 370:minmea.c      ****     if (!strcmp(type+2, "GSV"))
 1786              		.loc 1 370 0
 1787 00ba 0520     		movs	r0, #5
 1788 00bc 06E0     		b	.L160
 1789              	.L168:
 372:minmea.c      ****     if (!strcmp(type+2, "RMC"))
 1790              		.loc 1 372 0
 1791 00be 0620     		movs	r0, #6
 1792 00c0 04E0     		b	.L160
 1793              	.L169:
 374:minmea.c      ****     if (!strcmp(type+2, "VTG"))
 1794              		.loc 1 374 0
 1795 00c2 0720     		movs	r0, #7
 1796 00c4 02E0     		b	.L160
 1797              	.L170:
 376:minmea.c      ****     if (!strcmp(type+2, "ZDA"))
 1798              		.loc 1 376 0
 1799 00c6 0820     		movs	r0, #8
 1800 00c8 00E0     		b	.L160
 1801              	.L171:
 379:minmea.c      **** 
 380:minmea.c      ****     return MINMEA_UNKNOWN;
 1802              		.loc 1 380 0
 1803 00ca 0020     		movs	r0, #0
 1804              	.L160:
 381:minmea.c      **** }
 1805              		.loc 1 381 0
 1806 00cc 02B0     		add	sp, sp, #8
 1807              		@ sp needed
 1808              	.LVL212:
 1809 00ce 10BD     		pop	{r4, pc}
 1810              	.L173:
 1811              		.align	2
 1812              	.L172:
 1813 00d0 00000000 		.word	.LC3
 1814 00d4 04000000 		.word	.LC6
 1815 00d8 08000000 		.word	.LC8
 1816 00dc 0C000000 		.word	.LC10
 1817 00e0 10000000 		.word	.LC12
 1818 00e4 14000000 		.word	.LC14
 1819 00e8 18000000 		.word	.LC16
 1820 00ec 1C000000 		.word	.LC18
 1821 00f0 20000000 		.word	.LC20
 1822 00f4 24000000 		.word	.LC22
 1823              		.cfi_endproc
 1824              	.LFE9:
 1825              		.size	minmea_sentence_id, .-minmea_sentence_id
 1826              		.section	.text.minmea_parse_gbs,"ax",%progbits
 1827              		.align	2
 1828              		.global	minmea_parse_gbs
 1829              		.code	16
 1830              		.thumb_func
 1831              		.type	minmea_parse_gbs, %function
 1832              	minmea_parse_gbs:
 1833              	.LFB10:
 382:minmea.c      **** 
 383:minmea.c      **** bool minmea_parse_gbs(struct minmea_sentence_gbs *frame, const char *sentence)
ARM GAS  C:\Users\armst\AppData\Local\Temp\ccFg2asa.s 			page 46


 384:minmea.c      **** {
 1834              		.loc 1 384 0
 1835              		.cfi_startproc
 1836              		@ args = 0, pretend = 0, frame = 8
 1837              		@ frame_needed = 0, uses_anonymous_args = 0
 1838              	.LVL213:
 1839 0000 10B5     		push	{r4, lr}
 1840              		.cfi_def_cfa_offset 8
 1841              		.cfi_offset 4, -8
 1842              		.cfi_offset 14, -4
 1843 0002 8AB0     		sub	sp, sp, #40
 1844              		.cfi_def_cfa_offset 48
 1845 0004 0300     		movs	r3, r0
 1846 0006 0800     		movs	r0, r1
 1847              	.LVL214:
 385:minmea.c      ****     // $GNGBS,170556.00,3.0,2.9,8.3,,,,*5C
 386:minmea.c      ****     char type[6];
 387:minmea.c      ****     if (!minmea_scan(sentence, "tTfffifff",
 1848              		.loc 1 387 0
 1849 0008 1A00     		movs	r2, r3
 1850 000a 3C32     		adds	r2, r2, #60
 1851 000c 0692     		str	r2, [sp, #24]
 1852 000e 083A     		subs	r2, r2, #8
 1853 0010 0592     		str	r2, [sp, #20]
 1854 0012 083A     		subs	r2, r2, #8
 1855 0014 0492     		str	r2, [sp, #16]
 1856 0016 043A     		subs	r2, r2, #4
 1857 0018 0392     		str	r2, [sp, #12]
 1858 001a 083A     		subs	r2, r2, #8
 1859 001c 0292     		str	r2, [sp, #8]
 1860 001e 083A     		subs	r2, r2, #8
 1861 0020 0192     		str	r2, [sp, #4]
 1862 0022 083A     		subs	r2, r2, #8
 1863 0024 0092     		str	r2, [sp]
 1864 0026 08AA     		add	r2, sp, #32
 1865 0028 0749     		ldr	r1, .L176
 1866              	.LVL215:
 1867 002a FFF7FEFF 		bl	minmea_scan
 1868              	.LVL216:
 1869 002e 041E     		subs	r4, r0, #0
 1870 0030 07D0     		beq	.L175
 388:minmea.c      ****             type,
 389:minmea.c      ****             &frame->time,
 390:minmea.c      ****             &frame->err_latitude,
 391:minmea.c      ****             &frame->err_longitude,
 392:minmea.c      ****             &frame->err_altitude,
 393:minmea.c      ****             &frame->svid,
 394:minmea.c      ****             &frame->prob,
 395:minmea.c      ****             &frame->bias,
 396:minmea.c      ****             &frame->stddev
 397:minmea.c      ****             ))
 398:minmea.c      ****         return false;
 399:minmea.c      ****     if (strcmp(type+2, "GBS"))
 1871              		.loc 1 399 0
 1872 0032 0649     		ldr	r1, .L176+4
 1873 0034 2220     		movs	r0, #34
 1874 0036 6844     		add	r0, r0, sp
ARM GAS  C:\Users\armst\AppData\Local\Temp\ccFg2asa.s 			page 47


 1875 0038 FFF7FEFF 		bl	strcmp
 1876              	.LVL217:
 1877 003c 0028     		cmp	r0, #0
 1878 003e 00D0     		beq	.L175
 400:minmea.c      ****         return false;
 1879              		.loc 1 400 0
 1880 0040 0024     		movs	r4, #0
 1881              	.L175:
 401:minmea.c      **** 
 402:minmea.c      ****     return true;
 403:minmea.c      **** }
 1882              		.loc 1 403 0
 1883 0042 2000     		movs	r0, r4
 1884 0044 0AB0     		add	sp, sp, #40
 1885              		@ sp needed
 1886 0046 10BD     		pop	{r4, pc}
 1887              	.L177:
 1888              		.align	2
 1889              	.L176:
 1890 0048 28000000 		.word	.LC24
 1891 004c 04000000 		.word	.LC6
 1892              		.cfi_endproc
 1893              	.LFE10:
 1894              		.size	minmea_parse_gbs, .-minmea_parse_gbs
 1895              		.section	.text.minmea_parse_rmc,"ax",%progbits
 1896              		.align	2
 1897              		.global	minmea_parse_rmc
 1898              		.code	16
 1899              		.thumb_func
 1900              		.type	minmea_parse_rmc, %function
 1901              	minmea_parse_rmc:
 1902              	.LFB11:
 404:minmea.c      **** 
 405:minmea.c      **** bool minmea_parse_rmc(struct minmea_sentence_rmc *frame, const char *sentence)
 406:minmea.c      **** {
 1903              		.loc 1 406 0
 1904              		.cfi_startproc
 1905              		@ args = 0, pretend = 0, frame = 24
 1906              		@ frame_needed = 0, uses_anonymous_args = 0
 1907              	.LVL218:
 1908 0000 30B5     		push	{r4, r5, lr}
 1909              		.cfi_def_cfa_offset 12
 1910              		.cfi_offset 4, -12
 1911              		.cfi_offset 5, -8
 1912              		.cfi_offset 14, -4
 1913 0002 91B0     		sub	sp, sp, #68
 1914              		.cfi_def_cfa_offset 80
 1915 0004 0400     		movs	r4, r0
 1916 0006 0800     		movs	r0, r1
 1917              	.LVL219:
 407:minmea.c      ****     // $GPRMC,081836,A,3751.65,S,14507.36,E,000.0,360.0,130998,011.3,E*62
 408:minmea.c      ****     char type[6];
 409:minmea.c      ****     char validity;
 410:minmea.c      ****     int latitude_direction;
 411:minmea.c      ****     int longitude_direction;
 412:minmea.c      ****     int variation_direction;
 413:minmea.c      ****     if (!minmea_scan(sentence, "tTcfdfdffDfd",
ARM GAS  C:\Users\armst\AppData\Local\Temp\ccFg2asa.s 			page 48


 1918              		.loc 1 413 0
 1919 0008 0AAB     		add	r3, sp, #40
 1920 000a 0993     		str	r3, [sp, #36]
 1921 000c 2300     		movs	r3, r4
 1922 000e 4033     		adds	r3, r3, #64
 1923 0010 0893     		str	r3, [sp, #32]
 1924 0012 0C3B     		subs	r3, r3, #12
 1925 0014 0793     		str	r3, [sp, #28]
 1926 0016 083B     		subs	r3, r3, #8
 1927 0018 0693     		str	r3, [sp, #24]
 1928 001a 083B     		subs	r3, r3, #8
 1929 001c 0593     		str	r3, [sp, #20]
 1930 001e 0BAB     		add	r3, sp, #44
 1931 0020 0493     		str	r3, [sp, #16]
 1932 0022 2300     		movs	r3, r4
 1933 0024 1C33     		adds	r3, r3, #28
 1934 0026 0393     		str	r3, [sp, #12]
 1935 0028 0CAB     		add	r3, sp, #48
 1936 002a 0293     		str	r3, [sp, #8]
 1937 002c 2300     		movs	r3, r4
 1938 002e 1433     		adds	r3, r3, #20
 1939 0030 0193     		str	r3, [sp, #4]
 1940 0032 3723     		movs	r3, #55
 1941 0034 6B44     		add	r3, r3, sp
 1942 0036 0093     		str	r3, [sp]
 1943 0038 2300     		movs	r3, r4
 1944 003a 0EAA     		add	r2, sp, #56
 1945 003c 1149     		ldr	r1, .L181
 1946              	.LVL220:
 1947 003e FFF7FEFF 		bl	minmea_scan
 1948              	.LVL221:
 1949 0042 051E     		subs	r5, r0, #0
 1950 0044 1BD0     		beq	.L179
 414:minmea.c      ****             type,
 415:minmea.c      ****             &frame->time,
 416:minmea.c      ****             &validity,
 417:minmea.c      ****             &frame->latitude, &latitude_direction,
 418:minmea.c      ****             &frame->longitude, &longitude_direction,
 419:minmea.c      ****             &frame->speed,
 420:minmea.c      ****             &frame->course,
 421:minmea.c      ****             &frame->date,
 422:minmea.c      ****             &frame->variation, &variation_direction))
 423:minmea.c      ****         return false;
 424:minmea.c      ****     if (strcmp(type+2, "RMC"))
 1951              		.loc 1 424 0
 1952 0046 1049     		ldr	r1, .L181+4
 1953 0048 3A20     		movs	r0, #58
 1954 004a 6844     		add	r0, r0, sp
 1955 004c FFF7FEFF 		bl	strcmp
 1956              	.LVL222:
 1957 0050 0028     		cmp	r0, #0
 1958 0052 13D1     		bne	.L180
 425:minmea.c      ****         return false;
 426:minmea.c      **** 
 427:minmea.c      ****     frame->valid = (validity == 'A');
 1959              		.loc 1 427 0
 1960 0054 3723     		movs	r3, #55
ARM GAS  C:\Users\armst\AppData\Local\Temp\ccFg2asa.s 			page 49


 1961 0056 6B44     		add	r3, r3, sp
 1962 0058 1B78     		ldrb	r3, [r3]
 1963 005a 413B     		subs	r3, r3, #65
 1964 005c 5942     		rsbs	r1, r3, #0
 1965 005e 5941     		adcs	r1, r1, r3
 1966 0060 2174     		strb	r1, [r4, #16]
 428:minmea.c      ****     frame->latitude.value *= latitude_direction;
 1967              		.loc 1 428 0
 1968 0062 0C9B     		ldr	r3, [sp, #48]
 1969 0064 6269     		ldr	r2, [r4, #20]
 1970 0066 5343     		muls	r3, r2
 1971 0068 6361     		str	r3, [r4, #20]
 429:minmea.c      ****     frame->longitude.value *= longitude_direction;
 1972              		.loc 1 429 0
 1973 006a 0B9B     		ldr	r3, [sp, #44]
 1974 006c E269     		ldr	r2, [r4, #28]
 1975 006e 5343     		muls	r3, r2
 1976 0070 E361     		str	r3, [r4, #28]
 430:minmea.c      ****     frame->variation.value *= variation_direction;
 1977              		.loc 1 430 0
 1978 0072 0A9B     		ldr	r3, [sp, #40]
 1979 0074 226C     		ldr	r2, [r4, #64]
 1980 0076 5343     		muls	r3, r2
 1981 0078 2364     		str	r3, [r4, #64]
 431:minmea.c      **** 
 432:minmea.c      ****     return true;
 1982              		.loc 1 432 0
 1983 007a 00E0     		b	.L179
 1984              	.L180:
 425:minmea.c      **** 
 1985              		.loc 1 425 0
 1986 007c 0025     		movs	r5, #0
 1987              	.L179:
 433:minmea.c      **** }
 1988              		.loc 1 433 0
 1989 007e 2800     		movs	r0, r5
 1990 0080 11B0     		add	sp, sp, #68
 1991              		@ sp needed
 1992              	.LVL223:
 1993 0082 30BD     		pop	{r4, r5, pc}
 1994              	.L182:
 1995              		.align	2
 1996              	.L181:
 1997 0084 34000000 		.word	.LC27
 1998 0088 1C000000 		.word	.LC18
 1999              		.cfi_endproc
 2000              	.LFE11:
 2001              		.size	minmea_parse_rmc, .-minmea_parse_rmc
 2002              		.section	.text.minmea_parse_gga,"ax",%progbits
 2003              		.align	2
 2004              		.global	minmea_parse_gga
 2005              		.code	16
 2006              		.thumb_func
 2007              		.type	minmea_parse_gga, %function
 2008              	minmea_parse_gga:
 2009              	.LFB12:
 434:minmea.c      **** 
ARM GAS  C:\Users\armst\AppData\Local\Temp\ccFg2asa.s 			page 50


 435:minmea.c      **** bool minmea_parse_gga(struct minmea_sentence_gga *frame, const char *sentence)
 436:minmea.c      **** {
 2010              		.loc 1 436 0
 2011              		.cfi_startproc
 2012              		@ args = 0, pretend = 0, frame = 16
 2013              		@ frame_needed = 0, uses_anonymous_args = 0
 2014              	.LVL224:
 2015 0000 30B5     		push	{r4, r5, lr}
 2016              		.cfi_def_cfa_offset 12
 2017              		.cfi_offset 4, -12
 2018              		.cfi_offset 5, -8
 2019              		.cfi_offset 14, -4
 2020 0002 91B0     		sub	sp, sp, #68
 2021              		.cfi_def_cfa_offset 80
 2022 0004 0400     		movs	r4, r0
 2023 0006 0800     		movs	r0, r1
 2024              	.LVL225:
 437:minmea.c      ****     // $GPGGA,123519,4807.038,N,01131.000,E,1,08,0.9,545.4,M,46.9,M,,*47
 438:minmea.c      ****     char type[6];
 439:minmea.c      ****     int latitude_direction;
 440:minmea.c      ****     int longitude_direction;
 441:minmea.c      **** 
 442:minmea.c      ****     if (!minmea_scan(sentence, "tTfdfdiiffcfcf_",
 2025              		.loc 1 442 0
 2026 0008 2300     		movs	r3, r4
 2027 000a 4833     		adds	r3, r3, #72
 2028 000c 0B93     		str	r3, [sp, #44]
 2029 000e 043B     		subs	r3, r3, #4
 2030 0010 0A93     		str	r3, [sp, #40]
 2031 0012 083B     		subs	r3, r3, #8
 2032 0014 0993     		str	r3, [sp, #36]
 2033 0016 043B     		subs	r3, r3, #4
 2034 0018 0893     		str	r3, [sp, #32]
 2035 001a 083B     		subs	r3, r3, #8
 2036 001c 0793     		str	r3, [sp, #28]
 2037 001e 083B     		subs	r3, r3, #8
 2038 0020 0693     		str	r3, [sp, #24]
 2039 0022 043B     		subs	r3, r3, #4
 2040 0024 0593     		str	r3, [sp, #20]
 2041 0026 043B     		subs	r3, r3, #4
 2042 0028 0493     		str	r3, [sp, #16]
 2043 002a 0CAB     		add	r3, sp, #48
 2044 002c 0393     		str	r3, [sp, #12]
 2045 002e 2300     		movs	r3, r4
 2046 0030 1833     		adds	r3, r3, #24
 2047 0032 0293     		str	r3, [sp, #8]
 2048 0034 0DAB     		add	r3, sp, #52
 2049 0036 0193     		str	r3, [sp, #4]
 2050 0038 2300     		movs	r3, r4
 2051 003a 1033     		adds	r3, r3, #16
 2052 003c 0093     		str	r3, [sp]
 2053 003e 2300     		movs	r3, r4
 2054 0040 0EAA     		add	r2, sp, #56
 2055 0042 0C49     		ldr	r1, .L186
 2056              	.LVL226:
 2057 0044 FFF7FEFF 		bl	minmea_scan
 2058              	.LVL227:
ARM GAS  C:\Users\armst\AppData\Local\Temp\ccFg2asa.s 			page 51


 2059 0048 051E     		subs	r5, r0, #0
 2060 004a 10D0     		beq	.L184
 443:minmea.c      ****             type,
 444:minmea.c      ****             &frame->time,
 445:minmea.c      ****             &frame->latitude, &latitude_direction,
 446:minmea.c      ****             &frame->longitude, &longitude_direction,
 447:minmea.c      ****             &frame->fix_quality,
 448:minmea.c      ****             &frame->satellites_tracked,
 449:minmea.c      ****             &frame->hdop,
 450:minmea.c      ****             &frame->altitude, &frame->altitude_units,
 451:minmea.c      ****             &frame->height, &frame->height_units,
 452:minmea.c      ****             &frame->dgps_age))
 453:minmea.c      ****         return false;
 454:minmea.c      ****     if (strcmp(type+2, "GGA"))
 2061              		.loc 1 454 0
 2062 004c 0A49     		ldr	r1, .L186+4
 2063 004e 3A20     		movs	r0, #58
 2064 0050 6844     		add	r0, r0, sp
 2065 0052 FFF7FEFF 		bl	strcmp
 2066              	.LVL228:
 2067 0056 0028     		cmp	r0, #0
 2068 0058 08D1     		bne	.L185
 455:minmea.c      ****         return false;
 456:minmea.c      **** 
 457:minmea.c      ****     frame->latitude.value *= latitude_direction;
 2069              		.loc 1 457 0
 2070 005a 0D9B     		ldr	r3, [sp, #52]
 2071 005c 2269     		ldr	r2, [r4, #16]
 2072 005e 5343     		muls	r3, r2
 2073 0060 2361     		str	r3, [r4, #16]
 458:minmea.c      ****     frame->longitude.value *= longitude_direction;
 2074              		.loc 1 458 0
 2075 0062 0C9B     		ldr	r3, [sp, #48]
 2076 0064 A269     		ldr	r2, [r4, #24]
 2077 0066 5343     		muls	r3, r2
 2078 0068 A361     		str	r3, [r4, #24]
 459:minmea.c      **** 
 460:minmea.c      ****     return true;
 2079              		.loc 1 460 0
 2080 006a 00E0     		b	.L184
 2081              	.L185:
 455:minmea.c      **** 
 2082              		.loc 1 455 0
 2083 006c 0025     		movs	r5, #0
 2084              	.L184:
 461:minmea.c      **** }
 2085              		.loc 1 461 0
 2086 006e 2800     		movs	r0, r5
 2087 0070 11B0     		add	sp, sp, #68
 2088              		@ sp needed
 2089              	.LVL229:
 2090 0072 30BD     		pop	{r4, r5, pc}
 2091              	.L187:
 2092              		.align	2
 2093              	.L186:
 2094 0074 44000000 		.word	.LC30
 2095 0078 08000000 		.word	.LC8
ARM GAS  C:\Users\armst\AppData\Local\Temp\ccFg2asa.s 			page 52


 2096              		.cfi_endproc
 2097              	.LFE12:
 2098              		.size	minmea_parse_gga, .-minmea_parse_gga
 2099              		.section	.text.minmea_parse_gsa,"ax",%progbits
 2100              		.align	2
 2101              		.global	minmea_parse_gsa
 2102              		.code	16
 2103              		.thumb_func
 2104              		.type	minmea_parse_gsa, %function
 2105              	minmea_parse_gsa:
 2106              	.LFB13:
 462:minmea.c      **** 
 463:minmea.c      **** bool minmea_parse_gsa(struct minmea_sentence_gsa *frame, const char *sentence)
 464:minmea.c      **** {
 2107              		.loc 1 464 0
 2108              		.cfi_startproc
 2109              		@ args = 0, pretend = 0, frame = 8
 2110              		@ frame_needed = 0, uses_anonymous_args = 0
 2111              	.LVL230:
 2112 0000 10B5     		push	{r4, lr}
 2113              		.cfi_def_cfa_offset 8
 2114              		.cfi_offset 4, -8
 2115              		.cfi_offset 14, -4
 2116 0002 92B0     		sub	sp, sp, #72
 2117              		.cfi_def_cfa_offset 80
 2118 0004 0300     		movs	r3, r0
 2119 0006 0800     		movs	r0, r1
 2120              	.LVL231:
 465:minmea.c      ****     // $GPGSA,A,3,04,05,,09,12,,,24,,,,,2.5,1.3,2.1*39
 466:minmea.c      ****     char type[6];
 467:minmea.c      **** 
 468:minmea.c      ****     if (!minmea_scan(sentence, "tciiiiiiiiiiiiifff",
 2121              		.loc 1 468 0
 2122 0008 1A00     		movs	r2, r3
 2123 000a 4832     		adds	r2, r2, #72
 2124 000c 0F92     		str	r2, [sp, #60]
 2125 000e 083A     		subs	r2, r2, #8
 2126 0010 0E92     		str	r2, [sp, #56]
 2127 0012 083A     		subs	r2, r2, #8
 2128 0014 0D92     		str	r2, [sp, #52]
 2129 0016 043A     		subs	r2, r2, #4
 2130 0018 0C92     		str	r2, [sp, #48]
 2131 001a 043A     		subs	r2, r2, #4
 2132 001c 0B92     		str	r2, [sp, #44]
 2133 001e 043A     		subs	r2, r2, #4
 2134 0020 0A92     		str	r2, [sp, #40]
 2135 0022 043A     		subs	r2, r2, #4
 2136 0024 0992     		str	r2, [sp, #36]
 2137 0026 043A     		subs	r2, r2, #4
 2138 0028 0892     		str	r2, [sp, #32]
 2139 002a 043A     		subs	r2, r2, #4
 2140 002c 0792     		str	r2, [sp, #28]
 2141 002e 043A     		subs	r2, r2, #4
 2142 0030 0692     		str	r2, [sp, #24]
 2143 0032 043A     		subs	r2, r2, #4
 2144 0034 0592     		str	r2, [sp, #20]
 2145 0036 043A     		subs	r2, r2, #4
ARM GAS  C:\Users\armst\AppData\Local\Temp\ccFg2asa.s 			page 53


 2146 0038 0492     		str	r2, [sp, #16]
 2147 003a 043A     		subs	r2, r2, #4
 2148 003c 0392     		str	r2, [sp, #12]
 2149 003e 043A     		subs	r2, r2, #4
 2150 0040 0292     		str	r2, [sp, #8]
 2151 0042 043A     		subs	r2, r2, #4
 2152 0044 0192     		str	r2, [sp, #4]
 2153 0046 1A1D     		adds	r2, r3, #4
 2154 0048 0092     		str	r2, [sp]
 2155 004a 10AA     		add	r2, sp, #64
 2156 004c 0749     		ldr	r1, .L190
 2157              	.LVL232:
 2158 004e FFF7FEFF 		bl	minmea_scan
 2159              	.LVL233:
 2160 0052 041E     		subs	r4, r0, #0
 2161 0054 07D0     		beq	.L189
 469:minmea.c      ****             type,
 470:minmea.c      ****             &frame->mode,
 471:minmea.c      ****             &frame->fix_type,
 472:minmea.c      ****             &frame->sats[0],
 473:minmea.c      ****             &frame->sats[1],
 474:minmea.c      ****             &frame->sats[2],
 475:minmea.c      ****             &frame->sats[3],
 476:minmea.c      ****             &frame->sats[4],
 477:minmea.c      ****             &frame->sats[5],
 478:minmea.c      ****             &frame->sats[6],
 479:minmea.c      ****             &frame->sats[7],
 480:minmea.c      ****             &frame->sats[8],
 481:minmea.c      ****             &frame->sats[9],
 482:minmea.c      ****             &frame->sats[10],
 483:minmea.c      ****             &frame->sats[11],
 484:minmea.c      ****             &frame->pdop,
 485:minmea.c      ****             &frame->hdop,
 486:minmea.c      ****             &frame->vdop))
 487:minmea.c      ****         return false;
 488:minmea.c      ****     if (strcmp(type+2, "GSA"))
 2162              		.loc 1 488 0
 2163 0056 0649     		ldr	r1, .L190+4
 2164 0058 4220     		movs	r0, #66
 2165 005a 6844     		add	r0, r0, sp
 2166 005c FFF7FEFF 		bl	strcmp
 2167              	.LVL234:
 2168 0060 0028     		cmp	r0, #0
 2169 0062 00D0     		beq	.L189
 489:minmea.c      ****         return false;
 2170              		.loc 1 489 0
 2171 0064 0024     		movs	r4, #0
 2172              	.L189:
 490:minmea.c      **** 
 491:minmea.c      ****     return true;
 492:minmea.c      **** }
 2173              		.loc 1 492 0
 2174 0066 2000     		movs	r0, r4
 2175 0068 12B0     		add	sp, sp, #72
 2176              		@ sp needed
 2177 006a 10BD     		pop	{r4, pc}
 2178              	.L191:
ARM GAS  C:\Users\armst\AppData\Local\Temp\ccFg2asa.s 			page 54


 2179              		.align	2
 2180              	.L190:
 2181 006c 54000000 		.word	.LC33
 2182 0070 10000000 		.word	.LC12
 2183              		.cfi_endproc
 2184              	.LFE13:
 2185              		.size	minmea_parse_gsa, .-minmea_parse_gsa
 2186              		.section	.text.minmea_parse_gll,"ax",%progbits
 2187              		.align	2
 2188              		.global	minmea_parse_gll
 2189              		.code	16
 2190              		.thumb_func
 2191              		.type	minmea_parse_gll, %function
 2192              	minmea_parse_gll:
 2193              	.LFB14:
 493:minmea.c      **** 
 494:minmea.c      **** bool minmea_parse_gll(struct minmea_sentence_gll *frame, const char *sentence)
 495:minmea.c      **** {
 2194              		.loc 1 495 0
 2195              		.cfi_startproc
 2196              		@ args = 0, pretend = 0, frame = 16
 2197              		@ frame_needed = 0, uses_anonymous_args = 0
 2198              	.LVL235:
 2199 0000 30B5     		push	{r4, r5, lr}
 2200              		.cfi_def_cfa_offset 12
 2201              		.cfi_offset 4, -12
 2202              		.cfi_offset 5, -8
 2203              		.cfi_offset 14, -4
 2204 0002 8BB0     		sub	sp, sp, #44
 2205              		.cfi_def_cfa_offset 56
 2206 0004 0400     		movs	r4, r0
 2207 0006 0800     		movs	r0, r1
 2208              	.LVL236:
 496:minmea.c      ****     // $GPGLL,3723.2475,N,12158.3416,W,161229.487,A,A*41$;
 497:minmea.c      ****     char type[6];
 498:minmea.c      ****     int latitude_direction;
 499:minmea.c      ****     int longitude_direction;
 500:minmea.c      **** 
 501:minmea.c      ****     if (!minmea_scan(sentence, "tfdfdTc;c",
 2209              		.loc 1 501 0
 2210 0008 2300     		movs	r3, r4
 2211 000a 2133     		adds	r3, r3, #33
 2212 000c 0593     		str	r3, [sp, #20]
 2213 000e 013B     		subs	r3, r3, #1
 2214 0010 0493     		str	r3, [sp, #16]
 2215 0012 103B     		subs	r3, r3, #16
 2216 0014 0393     		str	r3, [sp, #12]
 2217 0016 06AB     		add	r3, sp, #24
 2218 0018 0293     		str	r3, [sp, #8]
 2219 001a 2300     		movs	r3, r4
 2220 001c 0833     		adds	r3, r3, #8
 2221 001e 0193     		str	r3, [sp, #4]
 2222 0020 07AB     		add	r3, sp, #28
 2223 0022 0093     		str	r3, [sp]
 2224 0024 2300     		movs	r3, r4
 2225 0026 08AA     		add	r2, sp, #32
 2226 0028 0C49     		ldr	r1, .L195
ARM GAS  C:\Users\armst\AppData\Local\Temp\ccFg2asa.s 			page 55


 2227              	.LVL237:
 2228 002a FFF7FEFF 		bl	minmea_scan
 2229              	.LVL238:
 2230 002e 051E     		subs	r5, r0, #0
 2231 0030 10D0     		beq	.L193
 502:minmea.c      ****             type,
 503:minmea.c      ****             &frame->latitude, &latitude_direction,
 504:minmea.c      ****             &frame->longitude, &longitude_direction,
 505:minmea.c      ****             &frame->time,
 506:minmea.c      ****             &frame->status,
 507:minmea.c      ****             &frame->mode))
 508:minmea.c      ****         return false;
 509:minmea.c      ****     if (strcmp(type+2, "GLL"))
 2232              		.loc 1 509 0
 2233 0032 0B49     		ldr	r1, .L195+4
 2234 0034 2220     		movs	r0, #34
 2235 0036 6844     		add	r0, r0, sp
 2236 0038 FFF7FEFF 		bl	strcmp
 2237              	.LVL239:
 2238 003c 0028     		cmp	r0, #0
 2239 003e 08D1     		bne	.L194
 510:minmea.c      ****         return false;
 511:minmea.c      **** 
 512:minmea.c      ****     frame->latitude.value *= latitude_direction;
 2240              		.loc 1 512 0
 2241 0040 079B     		ldr	r3, [sp, #28]
 2242 0042 2268     		ldr	r2, [r4]
 2243 0044 5343     		muls	r3, r2
 2244 0046 2360     		str	r3, [r4]
 513:minmea.c      ****     frame->longitude.value *= longitude_direction;
 2245              		.loc 1 513 0
 2246 0048 069B     		ldr	r3, [sp, #24]
 2247 004a A268     		ldr	r2, [r4, #8]
 2248 004c 5343     		muls	r3, r2
 2249 004e A360     		str	r3, [r4, #8]
 514:minmea.c      **** 
 515:minmea.c      ****     return true;
 2250              		.loc 1 515 0
 2251 0050 00E0     		b	.L193
 2252              	.L194:
 510:minmea.c      **** 
 2253              		.loc 1 510 0
 2254 0052 0025     		movs	r5, #0
 2255              	.L193:
 516:minmea.c      **** }
 2256              		.loc 1 516 0
 2257 0054 2800     		movs	r0, r5
 2258 0056 0BB0     		add	sp, sp, #44
 2259              		@ sp needed
 2260              	.LVL240:
 2261 0058 30BD     		pop	{r4, r5, pc}
 2262              	.L196:
 2263 005a C046     		.align	2
 2264              	.L195:
 2265 005c 68000000 		.word	.LC36
 2266 0060 0C000000 		.word	.LC10
 2267              		.cfi_endproc
ARM GAS  C:\Users\armst\AppData\Local\Temp\ccFg2asa.s 			page 56


 2268              	.LFE14:
 2269              		.size	minmea_parse_gll, .-minmea_parse_gll
 2270              		.section	.text.minmea_parse_gst,"ax",%progbits
 2271              		.align	2
 2272              		.global	minmea_parse_gst
 2273              		.code	16
 2274              		.thumb_func
 2275              		.type	minmea_parse_gst, %function
 2276              	minmea_parse_gst:
 2277              	.LFB15:
 517:minmea.c      **** 
 518:minmea.c      **** bool minmea_parse_gst(struct minmea_sentence_gst *frame, const char *sentence)
 519:minmea.c      **** {
 2278              		.loc 1 519 0
 2279              		.cfi_startproc
 2280              		@ args = 0, pretend = 0, frame = 8
 2281              		@ frame_needed = 0, uses_anonymous_args = 0
 2282              	.LVL241:
 2283 0000 10B5     		push	{r4, lr}
 2284              		.cfi_def_cfa_offset 8
 2285              		.cfi_offset 4, -8
 2286              		.cfi_offset 14, -4
 2287 0002 8AB0     		sub	sp, sp, #40
 2288              		.cfi_def_cfa_offset 48
 2289 0004 0300     		movs	r3, r0
 2290 0006 0800     		movs	r0, r1
 2291              	.LVL242:
 520:minmea.c      ****     // $GPGST,024603.00,3.2,6.6,4.7,47.3,5.8,5.6,22.0*58
 521:minmea.c      ****     char type[6];
 522:minmea.c      **** 
 523:minmea.c      ****     if (!minmea_scan(sentence, "tTfffffff",
 2292              		.loc 1 523 0
 2293 0008 1A00     		movs	r2, r3
 2294 000a 4032     		adds	r2, r2, #64
 2295 000c 0692     		str	r2, [sp, #24]
 2296 000e 083A     		subs	r2, r2, #8
 2297 0010 0592     		str	r2, [sp, #20]
 2298 0012 083A     		subs	r2, r2, #8
 2299 0014 0492     		str	r2, [sp, #16]
 2300 0016 083A     		subs	r2, r2, #8
 2301 0018 0392     		str	r2, [sp, #12]
 2302 001a 083A     		subs	r2, r2, #8
 2303 001c 0292     		str	r2, [sp, #8]
 2304 001e 083A     		subs	r2, r2, #8
 2305 0020 0192     		str	r2, [sp, #4]
 2306 0022 083A     		subs	r2, r2, #8
 2307 0024 0092     		str	r2, [sp]
 2308 0026 08AA     		add	r2, sp, #32
 2309 0028 0749     		ldr	r1, .L199
 2310              	.LVL243:
 2311 002a FFF7FEFF 		bl	minmea_scan
 2312              	.LVL244:
 2313 002e 041E     		subs	r4, r0, #0
 2314 0030 07D0     		beq	.L198
 524:minmea.c      ****             type,
 525:minmea.c      ****             &frame->time,
 526:minmea.c      ****             &frame->rms_deviation,
ARM GAS  C:\Users\armst\AppData\Local\Temp\ccFg2asa.s 			page 57


 527:minmea.c      ****             &frame->semi_major_deviation,
 528:minmea.c      ****             &frame->semi_minor_deviation,
 529:minmea.c      ****             &frame->semi_major_orientation,
 530:minmea.c      ****             &frame->latitude_error_deviation,
 531:minmea.c      ****             &frame->longitude_error_deviation,
 532:minmea.c      ****             &frame->altitude_error_deviation))
 533:minmea.c      ****         return false;
 534:minmea.c      ****     if (strcmp(type+2, "GST"))
 2315              		.loc 1 534 0
 2316 0032 0649     		ldr	r1, .L199+4
 2317 0034 2220     		movs	r0, #34
 2318 0036 6844     		add	r0, r0, sp
 2319 0038 FFF7FEFF 		bl	strcmp
 2320              	.LVL245:
 2321 003c 0028     		cmp	r0, #0
 2322 003e 00D0     		beq	.L198
 535:minmea.c      ****         return false;
 2323              		.loc 1 535 0
 2324 0040 0024     		movs	r4, #0
 2325              	.L198:
 536:minmea.c      **** 
 537:minmea.c      ****     return true;
 538:minmea.c      **** }
 2326              		.loc 1 538 0
 2327 0042 2000     		movs	r0, r4
 2328 0044 0AB0     		add	sp, sp, #40
 2329              		@ sp needed
 2330 0046 10BD     		pop	{r4, pc}
 2331              	.L200:
 2332              		.align	2
 2333              	.L199:
 2334 0048 74000000 		.word	.LC39
 2335 004c 14000000 		.word	.LC14
 2336              		.cfi_endproc
 2337              	.LFE15:
 2338              		.size	minmea_parse_gst, .-minmea_parse_gst
 2339              		.section	.text.minmea_parse_gsv,"ax",%progbits
 2340              		.align	2
 2341              		.global	minmea_parse_gsv
 2342              		.code	16
 2343              		.thumb_func
 2344              		.type	minmea_parse_gsv, %function
 2345              	minmea_parse_gsv:
 2346              	.LFB16:
 539:minmea.c      **** 
 540:minmea.c      **** bool minmea_parse_gsv(struct minmea_sentence_gsv *frame, const char *sentence)
 541:minmea.c      **** {
 2347              		.loc 1 541 0
 2348              		.cfi_startproc
 2349              		@ args = 0, pretend = 0, frame = 8
 2350              		@ frame_needed = 0, uses_anonymous_args = 0
 2351              	.LVL246:
 2352 0000 10B5     		push	{r4, lr}
 2353              		.cfi_def_cfa_offset 8
 2354              		.cfi_offset 4, -8
 2355              		.cfi_offset 14, -4
 2356 0002 94B0     		sub	sp, sp, #80
ARM GAS  C:\Users\armst\AppData\Local\Temp\ccFg2asa.s 			page 58


 2357              		.cfi_def_cfa_offset 88
 2358 0004 0300     		movs	r3, r0
 2359 0006 0800     		movs	r0, r1
 2360              	.LVL247:
 542:minmea.c      ****     // $GPGSV,3,1,11,03,03,111,00,04,15,270,00,06,01,010,00,13,06,292,00*74
 543:minmea.c      ****     // $GPGSV,3,3,11,22,42,067,42,24,14,311,43,27,05,244,00,,,,*4D
 544:minmea.c      ****     // $GPGSV,4,2,11,08,51,203,30,09,45,215,28*75
 545:minmea.c      ****     // $GPGSV,4,4,13,39,31,170,27*40
 546:minmea.c      ****     // $GPGSV,4,4,13*7B
 547:minmea.c      ****     char type[6];
 548:minmea.c      **** 
 549:minmea.c      ****     if (!minmea_scan(sentence, "tiii;iiiiiiiiiiiiiiii",
 2361              		.loc 1 549 0
 2362 0008 1A00     		movs	r2, r3
 2363 000a 4832     		adds	r2, r2, #72
 2364 000c 1192     		str	r2, [sp, #68]
 2365 000e 043A     		subs	r2, r2, #4
 2366 0010 1092     		str	r2, [sp, #64]
 2367 0012 043A     		subs	r2, r2, #4
 2368 0014 0F92     		str	r2, [sp, #60]
 2369 0016 043A     		subs	r2, r2, #4
 2370 0018 0E92     		str	r2, [sp, #56]
 2371 001a 043A     		subs	r2, r2, #4
 2372 001c 0D92     		str	r2, [sp, #52]
 2373 001e 043A     		subs	r2, r2, #4
 2374 0020 0C92     		str	r2, [sp, #48]
 2375 0022 043A     		subs	r2, r2, #4
 2376 0024 0B92     		str	r2, [sp, #44]
 2377 0026 043A     		subs	r2, r2, #4
 2378 0028 0A92     		str	r2, [sp, #40]
 2379 002a 043A     		subs	r2, r2, #4
 2380 002c 0992     		str	r2, [sp, #36]
 2381 002e 043A     		subs	r2, r2, #4
 2382 0030 0892     		str	r2, [sp, #32]
 2383 0032 043A     		subs	r2, r2, #4
 2384 0034 0792     		str	r2, [sp, #28]
 2385 0036 043A     		subs	r2, r2, #4
 2386 0038 0692     		str	r2, [sp, #24]
 2387 003a 043A     		subs	r2, r2, #4
 2388 003c 0592     		str	r2, [sp, #20]
 2389 003e 043A     		subs	r2, r2, #4
 2390 0040 0492     		str	r2, [sp, #16]
 2391 0042 043A     		subs	r2, r2, #4
 2392 0044 0392     		str	r2, [sp, #12]
 2393 0046 043A     		subs	r2, r2, #4
 2394 0048 0292     		str	r2, [sp, #8]
 2395 004a 043A     		subs	r2, r2, #4
 2396 004c 0192     		str	r2, [sp, #4]
 2397 004e 1A1D     		adds	r2, r3, #4
 2398 0050 0092     		str	r2, [sp]
 2399 0052 12AA     		add	r2, sp, #72
 2400 0054 0749     		ldr	r1, .L203
 2401              	.LVL248:
 2402 0056 FFF7FEFF 		bl	minmea_scan
 2403              	.LVL249:
 2404 005a 041E     		subs	r4, r0, #0
 2405 005c 07D0     		beq	.L202
ARM GAS  C:\Users\armst\AppData\Local\Temp\ccFg2asa.s 			page 59


 550:minmea.c      ****             type,
 551:minmea.c      ****             &frame->total_msgs,
 552:minmea.c      ****             &frame->msg_nr,
 553:minmea.c      ****             &frame->total_sats,
 554:minmea.c      ****             &frame->sats[0].nr,
 555:minmea.c      ****             &frame->sats[0].elevation,
 556:minmea.c      ****             &frame->sats[0].azimuth,
 557:minmea.c      ****             &frame->sats[0].snr,
 558:minmea.c      ****             &frame->sats[1].nr,
 559:minmea.c      ****             &frame->sats[1].elevation,
 560:minmea.c      ****             &frame->sats[1].azimuth,
 561:minmea.c      ****             &frame->sats[1].snr,
 562:minmea.c      ****             &frame->sats[2].nr,
 563:minmea.c      ****             &frame->sats[2].elevation,
 564:minmea.c      ****             &frame->sats[2].azimuth,
 565:minmea.c      ****             &frame->sats[2].snr,
 566:minmea.c      ****             &frame->sats[3].nr,
 567:minmea.c      ****             &frame->sats[3].elevation,
 568:minmea.c      ****             &frame->sats[3].azimuth,
 569:minmea.c      ****             &frame->sats[3].snr
 570:minmea.c      ****             )) {
 571:minmea.c      ****         return false;
 572:minmea.c      ****     }
 573:minmea.c      ****     if (strcmp(type+2, "GSV"))
 2406              		.loc 1 573 0
 2407 005e 0649     		ldr	r1, .L203+4
 2408 0060 4A20     		movs	r0, #74
 2409 0062 6844     		add	r0, r0, sp
 2410 0064 FFF7FEFF 		bl	strcmp
 2411              	.LVL250:
 2412 0068 0028     		cmp	r0, #0
 2413 006a 00D0     		beq	.L202
 574:minmea.c      ****         return false;
 2414              		.loc 1 574 0
 2415 006c 0024     		movs	r4, #0
 2416              	.L202:
 575:minmea.c      **** 
 576:minmea.c      ****     return true;
 577:minmea.c      **** }
 2417              		.loc 1 577 0
 2418 006e 2000     		movs	r0, r4
 2419 0070 14B0     		add	sp, sp, #80
 2420              		@ sp needed
 2421 0072 10BD     		pop	{r4, pc}
 2422              	.L204:
 2423              		.align	2
 2424              	.L203:
 2425 0074 80000000 		.word	.LC42
 2426 0078 18000000 		.word	.LC16
 2427              		.cfi_endproc
 2428              	.LFE16:
 2429              		.size	minmea_parse_gsv, .-minmea_parse_gsv
 2430              		.section	.text.minmea_parse_vtg,"ax",%progbits
 2431              		.align	2
 2432              		.global	minmea_parse_vtg
 2433              		.code	16
 2434              		.thumb_func
ARM GAS  C:\Users\armst\AppData\Local\Temp\ccFg2asa.s 			page 60


 2435              		.type	minmea_parse_vtg, %function
 2436              	minmea_parse_vtg:
 2437              	.LFB17:
 578:minmea.c      **** 
 579:minmea.c      **** bool minmea_parse_vtg(struct minmea_sentence_vtg *frame, const char *sentence)
 580:minmea.c      **** {
 2438              		.loc 1 580 0
 2439              		.cfi_startproc
 2440              		@ args = 0, pretend = 0, frame = 16
 2441              		@ frame_needed = 0, uses_anonymous_args = 0
 2442              	.LVL251:
 2443 0000 30B5     		push	{r4, r5, lr}
 2444              		.cfi_def_cfa_offset 12
 2445              		.cfi_offset 4, -12
 2446              		.cfi_offset 5, -8
 2447              		.cfi_offset 14, -4
 2448 0002 8DB0     		sub	sp, sp, #52
 2449              		.cfi_def_cfa_offset 64
 2450 0004 0400     		movs	r4, r0
 2451 0006 0800     		movs	r0, r1
 2452              	.LVL252:
 581:minmea.c      ****     // $GPVTG,054.7,T,034.4,M,005.5,N,010.2,K*48
 582:minmea.c      ****     // $GPVTG,156.1,T,140.9,M,0.0,N,0.0,K*41
 583:minmea.c      ****     // $GPVTG,096.5,T,083.5,M,0.0,N,0.0,K,D*22
 584:minmea.c      ****     // $GPVTG,188.36,T,,M,0.820,N,1.519,K,A*3F
 585:minmea.c      ****     char type[6];
 586:minmea.c      ****     char c_true, c_magnetic, c_knots, c_kph, c_faa_mode;
 587:minmea.c      **** 
 588:minmea.c      ****     if (!minmea_scan(sentence, "t;fcfcfcfcc",
 2453              		.loc 1 588 0
 2454 0008 2323     		movs	r3, #35
 2455 000a 6B44     		add	r3, r3, sp
 2456 000c 0793     		str	r3, [sp, #28]
 2457 000e 09AB     		add	r3, sp, #36
 2458 0010 0693     		str	r3, [sp, #24]
 2459 0012 2300     		movs	r3, r4
 2460 0014 1833     		adds	r3, r3, #24
 2461 0016 0593     		str	r3, [sp, #20]
 2462 0018 2523     		movs	r3, #37
 2463 001a 6B44     		add	r3, r3, sp
 2464 001c 0493     		str	r3, [sp, #16]
 2465 001e 2300     		movs	r3, r4
 2466 0020 1033     		adds	r3, r3, #16
 2467 0022 0393     		str	r3, [sp, #12]
 2468 0024 2623     		movs	r3, #38
 2469 0026 6B44     		add	r3, r3, sp
 2470 0028 0293     		str	r3, [sp, #8]
 2471 002a 2300     		movs	r3, r4
 2472 002c 0833     		adds	r3, r3, #8
 2473 002e 0193     		str	r3, [sp, #4]
 2474 0030 2723     		movs	r3, #39
 2475 0032 6B44     		add	r3, r3, sp
 2476 0034 0093     		str	r3, [sp]
 2477 0036 2300     		movs	r3, r4
 2478 0038 0AAA     		add	r2, sp, #40
 2479 003a 1849     		ldr	r1, .L212
 2480              	.LVL253:
ARM GAS  C:\Users\armst\AppData\Local\Temp\ccFg2asa.s 			page 61


 2481 003c FFF7FEFF 		bl	minmea_scan
 2482              	.LVL254:
 2483 0040 051E     		subs	r5, r0, #0
 2484 0042 28D0     		beq	.L206
 589:minmea.c      ****             type,
 590:minmea.c      ****             &frame->true_track_degrees,
 591:minmea.c      ****             &c_true,
 592:minmea.c      ****             &frame->magnetic_track_degrees,
 593:minmea.c      ****             &c_magnetic,
 594:minmea.c      ****             &frame->speed_knots,
 595:minmea.c      ****             &c_knots,
 596:minmea.c      ****             &frame->speed_kph,
 597:minmea.c      ****             &c_kph,
 598:minmea.c      ****             &c_faa_mode))
 599:minmea.c      ****         return false;
 600:minmea.c      ****     if (strcmp(type+2, "VTG"))
 2485              		.loc 1 600 0
 2486 0044 1649     		ldr	r1, .L212+4
 2487 0046 2A20     		movs	r0, #42
 2488 0048 6844     		add	r0, r0, sp
 2489 004a FFF7FEFF 		bl	strcmp
 2490              	.LVL255:
 2491 004e 0028     		cmp	r0, #0
 2492 0050 20D1     		bne	.L211
 601:minmea.c      ****         return false;
 602:minmea.c      ****     // values are only valid with the accompanying characters
 603:minmea.c      ****     if (c_true != 'T')
 2493              		.loc 1 603 0
 2494 0052 2723     		movs	r3, #39
 2495 0054 6B44     		add	r3, r3, sp
 2496 0056 1B78     		ldrb	r3, [r3]
 2497 0058 542B     		cmp	r3, #84
 2498 005a 01D0     		beq	.L207
 604:minmea.c      ****         frame->true_track_degrees.scale = 0;
 2499              		.loc 1 604 0
 2500 005c 0023     		movs	r3, #0
 2501 005e 6360     		str	r3, [r4, #4]
 2502              	.L207:
 605:minmea.c      ****     if (c_magnetic != 'M')
 2503              		.loc 1 605 0
 2504 0060 2623     		movs	r3, #38
 2505 0062 6B44     		add	r3, r3, sp
 2506 0064 1B78     		ldrb	r3, [r3]
 2507 0066 4D2B     		cmp	r3, #77
 2508 0068 01D0     		beq	.L208
 606:minmea.c      ****         frame->magnetic_track_degrees.scale = 0;
 2509              		.loc 1 606 0
 2510 006a 0023     		movs	r3, #0
 2511 006c E360     		str	r3, [r4, #12]
 2512              	.L208:
 607:minmea.c      ****     if (c_knots != 'N')
 2513              		.loc 1 607 0
 2514 006e 2523     		movs	r3, #37
 2515 0070 6B44     		add	r3, r3, sp
 2516 0072 1B78     		ldrb	r3, [r3]
 2517 0074 4E2B     		cmp	r3, #78
 2518 0076 01D0     		beq	.L209
ARM GAS  C:\Users\armst\AppData\Local\Temp\ccFg2asa.s 			page 62


 608:minmea.c      ****         frame->speed_knots.scale = 0;
 2519              		.loc 1 608 0
 2520 0078 0023     		movs	r3, #0
 2521 007a 6361     		str	r3, [r4, #20]
 2522              	.L209:
 609:minmea.c      ****     if (c_kph != 'K')
 2523              		.loc 1 609 0
 2524 007c 09AB     		add	r3, sp, #36
 2525 007e 1B78     		ldrb	r3, [r3]
 2526 0080 4B2B     		cmp	r3, #75
 2527 0082 01D0     		beq	.L210
 610:minmea.c      ****         frame->speed_kph.scale = 0;
 2528              		.loc 1 610 0
 2529 0084 0023     		movs	r3, #0
 2530 0086 E361     		str	r3, [r4, #28]
 2531              	.L210:
 611:minmea.c      ****     frame->faa_mode = (enum minmea_faa_mode)c_faa_mode;
 2532              		.loc 1 611 0
 2533 0088 2323     		movs	r3, #35
 2534 008a 6B44     		add	r3, r3, sp
 2535 008c 1A78     		ldrb	r2, [r3]
 2536 008e 2023     		movs	r3, #32
 2537 0090 E254     		strb	r2, [r4, r3]
 612:minmea.c      **** 
 613:minmea.c      ****     return true;
 2538              		.loc 1 613 0
 2539 0092 00E0     		b	.L206
 2540              	.L211:
 601:minmea.c      ****     // values are only valid with the accompanying characters
 2541              		.loc 1 601 0
 2542 0094 0025     		movs	r5, #0
 2543              	.L206:
 614:minmea.c      **** }
 2544              		.loc 1 614 0
 2545 0096 2800     		movs	r0, r5
 2546 0098 0DB0     		add	sp, sp, #52
 2547              		@ sp needed
 2548              	.LVL256:
 2549 009a 30BD     		pop	{r4, r5, pc}
 2550              	.L213:
 2551              		.align	2
 2552              	.L212:
 2553 009c 98000000 		.word	.LC45
 2554 00a0 20000000 		.word	.LC20
 2555              		.cfi_endproc
 2556              	.LFE17:
 2557              		.size	minmea_parse_vtg, .-minmea_parse_vtg
 2558              		.section	.text.minmea_parse_zda,"ax",%progbits
 2559              		.align	2
 2560              		.global	minmea_parse_zda
 2561              		.code	16
 2562              		.thumb_func
 2563              		.type	minmea_parse_zda, %function
 2564              	minmea_parse_zda:
 2565              	.LFB18:
 615:minmea.c      **** 
 616:minmea.c      **** bool minmea_parse_zda(struct minmea_sentence_zda *frame, const char *sentence)
ARM GAS  C:\Users\armst\AppData\Local\Temp\ccFg2asa.s 			page 63


 617:minmea.c      **** {
 2566              		.loc 1 617 0
 2567              		.cfi_startproc
 2568              		@ args = 0, pretend = 0, frame = 8
 2569              		@ frame_needed = 0, uses_anonymous_args = 0
 2570              	.LVL257:
 2571 0000 30B5     		push	{r4, r5, lr}
 2572              		.cfi_def_cfa_offset 12
 2573              		.cfi_offset 4, -12
 2574              		.cfi_offset 5, -8
 2575              		.cfi_offset 14, -4
 2576 0002 89B0     		sub	sp, sp, #36
 2577              		.cfi_def_cfa_offset 48
 2578 0004 0400     		movs	r4, r0
 2579 0006 0800     		movs	r0, r1
 2580              	.LVL258:
 618:minmea.c      ****   // $GPZDA,201530.00,04,07,2002,00,00*60
 619:minmea.c      ****   char type[6];
 620:minmea.c      **** 
 621:minmea.c      ****   if(!minmea_scan(sentence, "tTiiiii",
 2581              		.loc 1 621 0
 2582 0008 2300     		movs	r3, r4
 2583 000a 2033     		adds	r3, r3, #32
 2584 000c 0493     		str	r3, [sp, #16]
 2585 000e 043B     		subs	r3, r3, #4
 2586 0010 0393     		str	r3, [sp, #12]
 2587 0012 043B     		subs	r3, r3, #4
 2588 0014 0293     		str	r3, [sp, #8]
 2589 0016 043B     		subs	r3, r3, #4
 2590 0018 0193     		str	r3, [sp, #4]
 2591 001a 043B     		subs	r3, r3, #4
 2592 001c 0093     		str	r3, [sp]
 2593 001e 2300     		movs	r3, r4
 2594 0020 06AA     		add	r2, sp, #24
 2595 0022 1049     		ldr	r1, .L219
 2596              	.LVL259:
 2597 0024 FFF7FEFF 		bl	minmea_scan
 2598              	.LVL260:
 2599 0028 051E     		subs	r5, r0, #0
 2600 002a 18D0     		beq	.L215
 622:minmea.c      ****           type,
 623:minmea.c      ****           &frame->time,
 624:minmea.c      ****           &frame->date.day,
 625:minmea.c      ****           &frame->date.month,
 626:minmea.c      ****           &frame->date.year,
 627:minmea.c      ****           &frame->hour_offset,
 628:minmea.c      ****           &frame->minute_offset))
 629:minmea.c      ****       return false;
 630:minmea.c      ****   if (strcmp(type+2, "ZDA"))
 2601              		.loc 1 630 0
 2602 002c 0E49     		ldr	r1, .L219+4
 2603 002e 1A20     		movs	r0, #26
 2604 0030 6844     		add	r0, r0, sp
 2605 0032 FFF7FEFF 		bl	strcmp
 2606              	.LVL261:
 2607 0036 0028     		cmp	r0, #0
 2608 0038 0CD1     		bne	.L216
ARM GAS  C:\Users\armst\AppData\Local\Temp\ccFg2asa.s 			page 64


 631:minmea.c      ****       return false;
 632:minmea.c      **** 
 633:minmea.c      ****   // check offsets
 634:minmea.c      ****   if (abs(frame->hour_offset) > 13 ||
 2609              		.loc 1 634 0
 2610 003a E369     		ldr	r3, [r4, #28]
 2611 003c DA17     		asrs	r2, r3, #31
 2612 003e 9B18     		adds	r3, r3, r2
 2613 0040 5340     		eors	r3, r2
 2614 0042 0D2B     		cmp	r3, #13
 2615 0044 08DC     		bgt	.L217
 635:minmea.c      ****       frame->minute_offset > 59 ||
 2616              		.loc 1 635 0 discriminator 1
 2617 0046 236A     		ldr	r3, [r4, #32]
 634:minmea.c      ****       frame->minute_offset > 59 ||
 2618              		.loc 1 634 0 discriminator 1
 2619 0048 3B2B     		cmp	r3, #59
 2620 004a 07DC     		bgt	.L218
 2621              		.loc 1 635 0
 2622 004c 002B     		cmp	r3, #0
 2623 004e 06DA     		bge	.L215
 636:minmea.c      ****       frame->minute_offset < 0)
 637:minmea.c      ****       return false;
 2624              		.loc 1 637 0
 2625 0050 0025     		movs	r5, #0
 2626 0052 04E0     		b	.L215
 2627              	.L216:
 631:minmea.c      **** 
 2628              		.loc 1 631 0
 2629 0054 0025     		movs	r5, #0
 2630 0056 02E0     		b	.L215
 2631              	.L217:
 2632              		.loc 1 637 0
 2633 0058 0025     		movs	r5, #0
 2634 005a 00E0     		b	.L215
 2635              	.L218:
 2636 005c 0025     		movs	r5, #0
 2637              	.L215:
 638:minmea.c      **** 
 639:minmea.c      ****   return true;
 640:minmea.c      **** }
 2638              		.loc 1 640 0
 2639 005e 2800     		movs	r0, r5
 2640 0060 09B0     		add	sp, sp, #36
 2641              		@ sp needed
 2642              	.LVL262:
 2643 0062 30BD     		pop	{r4, r5, pc}
 2644              	.L220:
 2645              		.align	2
 2646              	.L219:
 2647 0064 A4000000 		.word	.LC48
 2648 0068 24000000 		.word	.LC22
 2649              		.cfi_endproc
 2650              	.LFE18:
 2651              		.size	minmea_parse_zda, .-minmea_parse_zda
 2652              		.section	.text.minmea_getdatetime,"ax",%progbits
 2653              		.align	2
ARM GAS  C:\Users\armst\AppData\Local\Temp\ccFg2asa.s 			page 65


 2654              		.global	minmea_getdatetime
 2655              		.code	16
 2656              		.thumb_func
 2657              		.type	minmea_getdatetime, %function
 2658              	minmea_getdatetime:
 2659              	.LFB19:
 641:minmea.c      **** 
 642:minmea.c      **** int minmea_getdatetime(struct tm *tm, const struct minmea_date *date, const struct minmea_time *tim
 643:minmea.c      **** {
 2660              		.loc 1 643 0
 2661              		.cfi_startproc
 2662              		@ args = 0, pretend = 0, frame = 0
 2663              		@ frame_needed = 0, uses_anonymous_args = 0
 2664              	.LVL263:
 2665 0000 70B5     		push	{r4, r5, r6, lr}
 2666              		.cfi_def_cfa_offset 16
 2667              		.cfi_offset 4, -16
 2668              		.cfi_offset 5, -12
 2669              		.cfi_offset 6, -8
 2670              		.cfi_offset 14, -4
 2671 0002 0400     		movs	r4, r0
 2672 0004 0D00     		movs	r5, r1
 2673 0006 1600     		movs	r6, r2
 644:minmea.c      ****     if (date->year == -1 || time_->hours == -1)
 2674              		.loc 1 644 0
 2675 0008 8868     		ldr	r0, [r1, #8]
 2676              	.LVL264:
 2677 000a 431C     		adds	r3, r0, #1
 2678 000c 22D0     		beq	.L222
 2679              		.loc 1 644 0 is_stmt 0 discriminator 1
 2680 000e 1068     		ldr	r0, [r2]
 2681 0010 431C     		adds	r3, r0, #1
 2682 0012 1FD0     		beq	.L222
 645:minmea.c      ****         return -1;
 646:minmea.c      **** 
 647:minmea.c      ****     memset(tm, 0, sizeof(*tm));
 2683              		.loc 1 647 0 is_stmt 1
 2684 0014 2422     		movs	r2, #36
 2685              	.LVL265:
 2686 0016 0021     		movs	r1, #0
 2687              	.LVL266:
 2688 0018 2000     		movs	r0, r4
 2689 001a FFF7FEFF 		bl	memset
 2690              	.LVL267:
 648:minmea.c      ****     if (date->year < 80) {
 2691              		.loc 1 648 0
 2692 001e AB68     		ldr	r3, [r5, #8]
 2693 0020 4F2B     		cmp	r3, #79
 2694 0022 02DC     		bgt	.L223
 649:minmea.c      ****         tm->tm_year = 2000 + date->year - 1900; // 2000-2079
 2695              		.loc 1 649 0
 2696 0024 6433     		adds	r3, r3, #100
 2697 0026 6361     		str	r3, [r4, #20]
 2698 0028 08E0     		b	.L224
 2699              	.L223:
 650:minmea.c      ****     } else if (date->year >= 1900) {
 2700              		.loc 1 650 0
ARM GAS  C:\Users\armst\AppData\Local\Temp\ccFg2asa.s 			page 66


 2701 002a 0B4A     		ldr	r2, .L226
 2702 002c 9342     		cmp	r3, r2
 2703 002e 04DD     		ble	.L225
 651:minmea.c      ****         tm->tm_year = date->year - 1900;        // 4 digit year, use directly
 2704              		.loc 1 651 0
 2705 0030 0A4A     		ldr	r2, .L226+4
 2706 0032 9446     		mov	ip, r2
 2707 0034 6344     		add	r3, r3, ip
 2708 0036 6361     		str	r3, [r4, #20]
 2709 0038 00E0     		b	.L224
 2710              	.L225:
 652:minmea.c      ****     } else {
 653:minmea.c      ****         tm->tm_year = date->year;               // 1980-1999
 2711              		.loc 1 653 0
 2712 003a 6361     		str	r3, [r4, #20]
 2713              	.L224:
 654:minmea.c      ****     }
 655:minmea.c      ****     tm->tm_mon = date->month - 1;
 2714              		.loc 1 655 0
 2715 003c 6B68     		ldr	r3, [r5, #4]
 2716 003e 013B     		subs	r3, r3, #1
 2717 0040 2361     		str	r3, [r4, #16]
 656:minmea.c      ****     tm->tm_mday = date->day;
 2718              		.loc 1 656 0
 2719 0042 2B68     		ldr	r3, [r5]
 2720 0044 E360     		str	r3, [r4, #12]
 657:minmea.c      ****     tm->tm_hour = time_->hours;
 2721              		.loc 1 657 0
 2722 0046 3368     		ldr	r3, [r6]
 2723 0048 A360     		str	r3, [r4, #8]
 658:minmea.c      ****     tm->tm_min = time_->minutes;
 2724              		.loc 1 658 0
 2725 004a 7368     		ldr	r3, [r6, #4]
 2726 004c 6360     		str	r3, [r4, #4]
 659:minmea.c      ****     tm->tm_sec = time_->seconds;
 2727              		.loc 1 659 0
 2728 004e B368     		ldr	r3, [r6, #8]
 2729 0050 2360     		str	r3, [r4]
 660:minmea.c      **** 
 661:minmea.c      ****     return 0;
 2730              		.loc 1 661 0
 2731 0052 0020     		movs	r0, #0
 2732              	.L222:
 662:minmea.c      **** }
 2733              		.loc 1 662 0
 2734              		@ sp needed
 2735              	.LVL268:
 2736              	.LVL269:
 2737              	.LVL270:
 2738 0054 70BD     		pop	{r4, r5, r6, pc}
 2739              	.L227:
 2740 0056 C046     		.align	2
 2741              	.L226:
 2742 0058 6B070000 		.word	1899
 2743 005c 94F8FFFF 		.word	-1900
 2744              		.cfi_endproc
 2745              	.LFE19:
ARM GAS  C:\Users\armst\AppData\Local\Temp\ccFg2asa.s 			page 67


 2746              		.size	minmea_getdatetime, .-minmea_getdatetime
 2747              		.section	.rodata.str1.4,"aMS",%progbits,1
 2748              		.align	2
 2749              	.LC3:
 2750 0000 7400     		.ascii	"t\000"
 2751 0002 0000     		.space	2
 2752              	.LC6:
 2753 0004 47425300 		.ascii	"GBS\000"
 2754              	.LC8:
 2755 0008 47474100 		.ascii	"GGA\000"
 2756              	.LC10:
 2757 000c 474C4C00 		.ascii	"GLL\000"
 2758              	.LC12:
 2759 0010 47534100 		.ascii	"GSA\000"
 2760              	.LC14:
 2761 0014 47535400 		.ascii	"GST\000"
 2762              	.LC16:
 2763 0018 47535600 		.ascii	"GSV\000"
 2764              	.LC18:
 2765 001c 524D4300 		.ascii	"RMC\000"
 2766              	.LC20:
 2767 0020 56544700 		.ascii	"VTG\000"
 2768              	.LC22:
 2769 0024 5A444100 		.ascii	"ZDA\000"
 2770              	.LC24:
 2771 0028 74546666 		.ascii	"tTfffifff\000"
 2771      66696666 
 2771      6600
 2772 0032 0000     		.space	2
 2773              	.LC27:
 2774 0034 74546366 		.ascii	"tTcfdfdffDfd\000"
 2774      64666466 
 2774      66446664 
 2774      00
 2775 0041 000000   		.space	3
 2776              	.LC30:
 2777 0044 74546664 		.ascii	"tTfdfdiiffcfcf_\000"
 2777      66646969 
 2777      66666366 
 2777      63665F00 
 2778              	.LC33:
 2779 0054 74636969 		.ascii	"tciiiiiiiiiiiiifff\000"
 2779      69696969 
 2779      69696969 
 2779      69696966 
 2779      666600
 2780 0067 00       		.space	1
 2781              	.LC36:
 2782 0068 74666466 		.ascii	"tfdfdTc;c\000"
 2782      6454633B 
 2782      6300
 2783 0072 0000     		.space	2
 2784              	.LC39:
 2785 0074 74546666 		.ascii	"tTfffffff\000"
 2785      66666666 
 2785      6600
 2786 007e 0000     		.space	2
ARM GAS  C:\Users\armst\AppData\Local\Temp\ccFg2asa.s 			page 68


 2787              	.LC42:
 2788 0080 74696969 		.ascii	"tiii;iiiiiiiiiiiiiiii\000"
 2788      3B696969 
 2788      69696969 
 2788      69696969 
 2788      69696969 
 2789 0096 0000     		.space	2
 2790              	.LC45:
 2791 0098 743B6663 		.ascii	"t;fcfcfcfcc\000"
 2791      66636663 
 2791      66636300 
 2792              	.LC48:
 2793 00a4 74546969 		.ascii	"tTiiiii\000"
 2793      69696900 
 2794              		.text
 2795              	.Letext0:
 2796              		.file 3 "c:\\program files (x86)\\cypress\\psoc creator\\4.4\\psoc creator\\import\\gnu\\arm\\5.4.
 2797              		.file 4 "c:\\program files (x86)\\cypress\\psoc creator\\4.4\\psoc creator\\import\\gnu\\arm\\5.4.
 2798              		.file 5 "c:\\program files (x86)\\cypress\\psoc creator\\4.4\\psoc creator\\import\\gnu\\arm\\5.4.
 2799              		.file 6 "c:\\program files (x86)\\cypress\\psoc creator\\4.4\\psoc creator\\import\\gnu\\arm\\5.4.
 2800              		.file 7 "<built-in>"
 2801              		.file 8 "c:\\program files (x86)\\cypress\\psoc creator\\4.4\\psoc creator\\import\\gnu\\arm\\5.4.
 2802              		.file 9 "c:\\program files (x86)\\cypress\\psoc creator\\4.4\\psoc creator\\import\\gnu\\arm\\5.4.
 2803              		.file 10 "c:\\program files (x86)\\cypress\\psoc creator\\4.4\\psoc creator\\import\\gnu\\arm\\5.4
 2804              		.file 11 "c:\\program files (x86)\\cypress\\psoc creator\\4.4\\psoc creator\\import\\gnu\\arm\\5.4
 2805              		.section	.debug_info,"",%progbits
 2806              	.Ldebug_info0:
 2807 0000 DB170000 		.4byte	0x17db
 2808 0004 0400     		.2byte	0x4
 2809 0006 00000000 		.4byte	.Ldebug_abbrev0
 2810 000a 04       		.byte	0x4
 2811 000b 01       		.uleb128 0x1
 2812 000c C4010000 		.4byte	.LASF172
 2813 0010 0C       		.byte	0xc
 2814 0011 56090000 		.4byte	.LASF173
 2815 0015 B6020000 		.4byte	.LASF174
 2816 0019 48010000 		.4byte	.Ldebug_ranges0+0x148
 2817 001d 00000000 		.4byte	0
 2818 0021 00000000 		.4byte	.Ldebug_line0
 2819 0025 02       		.uleb128 0x2
 2820 0026 01       		.byte	0x1
 2821 0027 06       		.byte	0x6
 2822 0028 83080000 		.4byte	.LASF0
 2823 002c 03       		.uleb128 0x3
 2824 002d 36070000 		.4byte	.LASF5
 2825 0031 03       		.byte	0x3
 2826 0032 1D       		.byte	0x1d
 2827 0033 37000000 		.4byte	0x37
 2828 0037 02       		.uleb128 0x2
 2829 0038 01       		.byte	0x1
 2830 0039 08       		.byte	0x8
 2831 003a FD070000 		.4byte	.LASF1
 2832 003e 02       		.uleb128 0x2
 2833 003f 02       		.byte	0x2
 2834 0040 05       		.byte	0x5
 2835 0041 BB060000 		.4byte	.LASF2
 2836 0045 02       		.uleb128 0x2
ARM GAS  C:\Users\armst\AppData\Local\Temp\ccFg2asa.s 			page 69


 2837 0046 02       		.byte	0x2
 2838 0047 07       		.byte	0x7
 2839 0048 8F080000 		.4byte	.LASF3
 2840 004c 02       		.uleb128 0x2
 2841 004d 04       		.byte	0x4
 2842 004e 05       		.byte	0x5
 2843 004f C5060000 		.4byte	.LASF4
 2844 0053 03       		.uleb128 0x3
 2845 0054 0B080000 		.4byte	.LASF6
 2846 0058 03       		.byte	0x3
 2847 0059 41       		.byte	0x41
 2848 005a 5E000000 		.4byte	0x5e
 2849 005e 02       		.uleb128 0x2
 2850 005f 04       		.byte	0x4
 2851 0060 07       		.byte	0x7
 2852 0061 AF070000 		.4byte	.LASF7
 2853 0065 02       		.uleb128 0x2
 2854 0066 08       		.byte	0x8
 2855 0067 05       		.byte	0x5
 2856 0068 2E050000 		.4byte	.LASF8
 2857 006c 02       		.uleb128 0x2
 2858 006d 08       		.byte	0x8
 2859 006e 07       		.byte	0x7
 2860 006f 88020000 		.4byte	.LASF9
 2861 0073 03       		.uleb128 0x3
 2862 0074 BE000000 		.4byte	.LASF10
 2863 0078 03       		.byte	0x3
 2864 0079 A8       		.byte	0xa8
 2865 007a 4C000000 		.4byte	0x4c
 2866 007e 04       		.uleb128 0x4
 2867 007f 04       		.byte	0x4
 2868 0080 05       		.byte	0x5
 2869 0081 696E7400 		.ascii	"int\000"
 2870 0085 02       		.uleb128 0x2
 2871 0086 04       		.byte	0x4
 2872 0087 07       		.byte	0x7
 2873 0088 83000000 		.4byte	.LASF11
 2874 008c 02       		.uleb128 0x2
 2875 008d 08       		.byte	0x8
 2876 008e 04       		.byte	0x4
 2877 008f 5C060000 		.4byte	.LASF12
 2878 0093 03       		.uleb128 0x3
 2879 0094 90040000 		.4byte	.LASF13
 2880 0098 04       		.byte	0x4
 2881 0099 18       		.byte	0x18
 2882 009a 2C000000 		.4byte	0x2c
 2883 009e 03       		.uleb128 0x3
 2884 009f 74010000 		.4byte	.LASF14
 2885 00a3 04       		.byte	0x4
 2886 00a4 30       		.byte	0x30
 2887 00a5 53000000 		.4byte	0x53
 2888 00a9 03       		.uleb128 0x3
 2889 00aa C8070000 		.4byte	.LASF15
 2890 00ae 05       		.byte	0x5
 2891 00af 21       		.byte	0x21
 2892 00b0 73000000 		.4byte	0x73
 2893 00b4 02       		.uleb128 0x2
ARM GAS  C:\Users\armst\AppData\Local\Temp\ccFg2asa.s 			page 70


 2894 00b5 04       		.byte	0x4
 2895 00b6 07       		.byte	0x7
 2896 00b7 9D070000 		.4byte	.LASF16
 2897 00bb 05       		.uleb128 0x5
 2898 00bc 04       		.byte	0x4
 2899 00bd 06       		.uleb128 0x6
 2900 00be 8E070000 		.4byte	.LASF18
 2901 00c2 04       		.byte	0x4
 2902 00c3 07       		.byte	0x7
 2903 00c4 00       		.byte	0
 2904 00c5 D4000000 		.4byte	0xd4
 2905 00c9 07       		.uleb128 0x7
 2906 00ca 8B050000 		.4byte	.LASF175
 2907 00ce BB000000 		.4byte	0xbb
 2908 00d2 00       		.byte	0
 2909 00d3 00       		.byte	0
 2910 00d4 08       		.uleb128 0x8
 2911 00d5 04       		.byte	0x4
 2912 00d6 DA000000 		.4byte	0xda
 2913 00da 02       		.uleb128 0x2
 2914 00db 01       		.byte	0x1
 2915 00dc 08       		.byte	0x8
 2916 00dd FD030000 		.4byte	.LASF17
 2917 00e1 08       		.uleb128 0x8
 2918 00e2 04       		.byte	0x4
 2919 00e3 E7000000 		.4byte	0xe7
 2920 00e7 09       		.uleb128 0x9
 2921 00e8 DA000000 		.4byte	0xda
 2922 00ec 0A       		.uleb128 0xa
 2923 00ed 746D00   		.ascii	"tm\000"
 2924 00f0 24       		.byte	0x24
 2925 00f1 06       		.byte	0x6
 2926 00f2 21       		.byte	0x21
 2927 00f3 64010000 		.4byte	0x164
 2928 00f7 0B       		.uleb128 0xb
 2929 00f8 A2080000 		.4byte	.LASF19
 2930 00fc 06       		.byte	0x6
 2931 00fd 23       		.byte	0x23
 2932 00fe 7E000000 		.4byte	0x7e
 2933 0102 00       		.byte	0
 2934 0103 0B       		.uleb128 0xb
 2935 0104 DB070000 		.4byte	.LASF20
 2936 0108 06       		.byte	0x6
 2937 0109 24       		.byte	0x24
 2938 010a 7E000000 		.4byte	0x7e
 2939 010e 04       		.byte	0x4
 2940 010f 0B       		.uleb128 0xb
 2941 0110 7B080000 		.4byte	.LASF21
 2942 0114 06       		.byte	0x6
 2943 0115 25       		.byte	0x25
 2944 0116 7E000000 		.4byte	0x7e
 2945 011a 08       		.byte	0x8
 2946 011b 0B       		.uleb128 0xb
 2947 011c B0000000 		.4byte	.LASF22
 2948 0120 06       		.byte	0x6
 2949 0121 26       		.byte	0x26
 2950 0122 7E000000 		.4byte	0x7e
ARM GAS  C:\Users\armst\AppData\Local\Temp\ccFg2asa.s 			page 71


 2951 0126 0C       		.byte	0xc
 2952 0127 0B       		.uleb128 0xb
 2953 0128 8A010000 		.4byte	.LASF23
 2954 012c 06       		.byte	0x6
 2955 012d 27       		.byte	0x27
 2956 012e 7E000000 		.4byte	0x7e
 2957 0132 10       		.byte	0x10
 2958 0133 0B       		.uleb128 0xb
 2959 0134 47040000 		.4byte	.LASF24
 2960 0138 06       		.byte	0x6
 2961 0139 28       		.byte	0x28
 2962 013a 7E000000 		.4byte	0x7e
 2963 013e 14       		.byte	0x14
 2964 013f 0B       		.uleb128 0xb
 2965 0140 59080000 		.4byte	.LASF25
 2966 0144 06       		.byte	0x6
 2967 0145 29       		.byte	0x29
 2968 0146 7E000000 		.4byte	0x7e
 2969 014a 18       		.byte	0x18
 2970 014b 0B       		.uleb128 0xb
 2971 014c 63000000 		.4byte	.LASF26
 2972 0150 06       		.byte	0x6
 2973 0151 2A       		.byte	0x2a
 2974 0152 7E000000 		.4byte	0x7e
 2975 0156 1C       		.byte	0x1c
 2976 0157 0B       		.uleb128 0xb
 2977 0158 C4080000 		.4byte	.LASF27
 2978 015c 06       		.byte	0x6
 2979 015d 2B       		.byte	0x2b
 2980 015e 7E000000 		.4byte	0x7e
 2981 0162 20       		.byte	0x20
 2982 0163 00       		.byte	0
 2983 0164 02       		.uleb128 0x2
 2984 0165 08       		.byte	0x8
 2985 0166 04       		.byte	0x4
 2986 0167 ED080000 		.4byte	.LASF28
 2987 016b 02       		.uleb128 0x2
 2988 016c 04       		.byte	0x4
 2989 016d 04       		.byte	0x4
 2990 016e A5010000 		.4byte	.LASF29
 2991 0172 0C       		.uleb128 0xc
 2992 0173 22010000 		.4byte	.LASF79
 2993 0177 01       		.byte	0x1
 2994 0178 25000000 		.4byte	0x25
 2995 017c 02       		.byte	0x2
 2996 017d 1E       		.byte	0x1e
 2997 017e C5010000 		.4byte	0x1c5
 2998 0182 0D       		.uleb128 0xd
 2999 0183 74000000 		.4byte	.LASF30
 3000 0187 7F       		.sleb128 -1
 3001 0188 0E       		.uleb128 0xe
 3002 0189 20030000 		.4byte	.LASF31
 3003 018d 00       		.byte	0
 3004 018e 0E       		.uleb128 0xe
 3005 018f 95030000 		.4byte	.LASF32
 3006 0193 01       		.byte	0x1
 3007 0194 0E       		.uleb128 0xe
ARM GAS  C:\Users\armst\AppData\Local\Temp\ccFg2asa.s 			page 72


 3008 0195 A7060000 		.4byte	.LASF33
 3009 0199 02       		.byte	0x2
 3010 019a 0E       		.uleb128 0xe
 3011 019b 00000000 		.4byte	.LASF34
 3012 019f 03       		.byte	0x3
 3013 01a0 0E       		.uleb128 0xe
 3014 01a1 7C040000 		.4byte	.LASF35
 3015 01a5 04       		.byte	0x4
 3016 01a6 0E       		.uleb128 0xe
 3017 01a7 AD040000 		.4byte	.LASF36
 3018 01ab 05       		.byte	0x5
 3019 01ac 0E       		.uleb128 0xe
 3020 01ad C1040000 		.4byte	.LASF37
 3021 01b1 06       		.byte	0x6
 3022 01b2 0E       		.uleb128 0xe
 3023 01b3 0C040000 		.4byte	.LASF38
 3024 01b7 07       		.byte	0x7
 3025 01b8 0E       		.uleb128 0xe
 3026 01b9 D5040000 		.4byte	.LASF39
 3027 01bd 08       		.byte	0x8
 3028 01be 0E       		.uleb128 0xe
 3029 01bf 14000000 		.4byte	.LASF40
 3030 01c3 09       		.byte	0x9
 3031 01c4 00       		.byte	0
 3032 01c5 06       		.uleb128 0x6
 3033 01c6 CE000000 		.4byte	.LASF41
 3034 01ca 08       		.byte	0x8
 3035 01cb 02       		.byte	0x2
 3036 01cc 2C       		.byte	0x2c
 3037 01cd EA010000 		.4byte	0x1ea
 3038 01d1 0B       		.uleb128 0xb
 3039 01d2 1A030000 		.4byte	.LASF42
 3040 01d6 02       		.byte	0x2
 3041 01d7 2D       		.byte	0x2d
 3042 01d8 A9000000 		.4byte	0xa9
 3043 01dc 00       		.byte	0
 3044 01dd 0B       		.uleb128 0xb
 3045 01de 9E050000 		.4byte	.LASF43
 3046 01e2 02       		.byte	0x2
 3047 01e3 2E       		.byte	0x2e
 3048 01e4 A9000000 		.4byte	0xa9
 3049 01e8 04       		.byte	0x4
 3050 01e9 00       		.byte	0
 3051 01ea 06       		.uleb128 0x6
 3052 01eb 40070000 		.4byte	.LASF44
 3053 01ef 0C       		.byte	0xc
 3054 01f0 02       		.byte	0x2
 3055 01f1 31       		.byte	0x31
 3056 01f2 1B020000 		.4byte	0x21b
 3057 01f6 0F       		.uleb128 0xf
 3058 01f7 64617900 		.ascii	"day\000"
 3059 01fb 02       		.byte	0x2
 3060 01fc 32       		.byte	0x32
 3061 01fd 7E000000 		.4byte	0x7e
 3062 0201 00       		.byte	0
 3063 0202 0B       		.uleb128 0xb
 3064 0203 78030000 		.4byte	.LASF45
ARM GAS  C:\Users\armst\AppData\Local\Temp\ccFg2asa.s 			page 73


 3065 0207 02       		.byte	0x2
 3066 0208 33       		.byte	0x33
 3067 0209 7E000000 		.4byte	0x7e
 3068 020d 04       		.byte	0x4
 3069 020e 0B       		.uleb128 0xb
 3070 020f D6070000 		.4byte	.LASF46
 3071 0213 02       		.byte	0x2
 3072 0214 34       		.byte	0x34
 3073 0215 7E000000 		.4byte	0x7e
 3074 0219 08       		.byte	0x8
 3075 021a 00       		.byte	0
 3076 021b 06       		.uleb128 0x6
 3077 021c DA060000 		.4byte	.LASF47
 3078 0220 10       		.byte	0x10
 3079 0221 02       		.byte	0x2
 3080 0222 37       		.byte	0x37
 3081 0223 58020000 		.4byte	0x258
 3082 0227 0B       		.uleb128 0xb
 3083 0228 30070000 		.4byte	.LASF48
 3084 022c 02       		.byte	0x2
 3085 022d 38       		.byte	0x38
 3086 022e 7E000000 		.4byte	0x7e
 3087 0232 00       		.byte	0
 3088 0233 0B       		.uleb128 0xb
 3089 0234 06070000 		.4byte	.LASF49
 3090 0238 02       		.byte	0x2
 3091 0239 39       		.byte	0x39
 3092 023a 7E000000 		.4byte	0x7e
 3093 023e 04       		.byte	0x4
 3094 023f 0B       		.uleb128 0xb
 3095 0240 D9050000 		.4byte	.LASF50
 3096 0244 02       		.byte	0x2
 3097 0245 3A       		.byte	0x3a
 3098 0246 7E000000 		.4byte	0x7e
 3099 024a 08       		.byte	0x8
 3100 024b 0B       		.uleb128 0xb
 3101 024c 1C080000 		.4byte	.LASF51
 3102 0250 02       		.byte	0x2
 3103 0251 3B       		.byte	0x3b
 3104 0252 7E000000 		.4byte	0x7e
 3105 0256 0C       		.byte	0xc
 3106 0257 00       		.byte	0
 3107 0258 06       		.uleb128 0x6
 3108 0259 91010000 		.4byte	.LASF52
 3109 025d 44       		.byte	0x44
 3110 025e 02       		.byte	0x2
 3111 025f 3E       		.byte	0x3e
 3112 0260 C5020000 		.4byte	0x2c5
 3113 0264 0B       		.uleb128 0xb
 3114 0265 0F030000 		.4byte	.LASF53
 3115 0269 02       		.byte	0x2
 3116 026a 3F       		.byte	0x3f
 3117 026b 1B020000 		.4byte	0x21b
 3118 026f 00       		.byte	0
 3119 0270 0B       		.uleb128 0xb
 3120 0271 2D000000 		.4byte	.LASF54
 3121 0275 02       		.byte	0x2
ARM GAS  C:\Users\armst\AppData\Local\Temp\ccFg2asa.s 			page 74


 3122 0276 40       		.byte	0x40
 3123 0277 C5010000 		.4byte	0x1c5
 3124 027b 10       		.byte	0x10
 3125 027c 0B       		.uleb128 0xb
 3126 027d 9F040000 		.4byte	.LASF55
 3127 0281 02       		.byte	0x2
 3128 0282 41       		.byte	0x41
 3129 0283 C5010000 		.4byte	0x1c5
 3130 0287 18       		.byte	0x18
 3131 0288 0B       		.uleb128 0xb
 3132 0289 7D010000 		.4byte	.LASF56
 3133 028d 02       		.byte	0x2
 3134 028e 42       		.byte	0x42
 3135 028f C5010000 		.4byte	0x1c5
 3136 0293 20       		.byte	0x20
 3137 0294 0B       		.uleb128 0xb
 3138 0295 ED050000 		.4byte	.LASF57
 3139 0299 02       		.byte	0x2
 3140 029a 43       		.byte	0x43
 3141 029b 7E000000 		.4byte	0x7e
 3142 029f 28       		.byte	0x28
 3143 02a0 0B       		.uleb128 0xb
 3144 02a1 98070000 		.4byte	.LASF58
 3145 02a5 02       		.byte	0x2
 3146 02a6 44       		.byte	0x44
 3147 02a7 C5010000 		.4byte	0x1c5
 3148 02ab 2C       		.byte	0x2c
 3149 02ac 0B       		.uleb128 0xb
 3150 02ad 5C020000 		.4byte	.LASF59
 3151 02b1 02       		.byte	0x2
 3152 02b2 45       		.byte	0x45
 3153 02b3 C5010000 		.4byte	0x1c5
 3154 02b7 34       		.byte	0x34
 3155 02b8 0B       		.uleb128 0xb
 3156 02b9 C1070000 		.4byte	.LASF60
 3157 02bd 02       		.byte	0x2
 3158 02be 46       		.byte	0x46
 3159 02bf C5010000 		.4byte	0x1c5
 3160 02c3 3C       		.byte	0x3c
 3161 02c4 00       		.byte	0
 3162 02c5 06       		.uleb128 0x6
 3163 02c6 67080000 		.4byte	.LASF61
 3164 02ca 48       		.byte	0x48
 3165 02cb 02       		.byte	0x2
 3166 02cc 49       		.byte	0x49
 3167 02cd 32030000 		.4byte	0x332
 3168 02d1 0B       		.uleb128 0xb
 3169 02d2 0F030000 		.4byte	.LASF53
 3170 02d6 02       		.byte	0x2
 3171 02d7 4A       		.byte	0x4a
 3172 02d8 1B020000 		.4byte	0x21b
 3173 02dc 00       		.byte	0
 3174 02dd 0B       		.uleb128 0xb
 3175 02de 60050000 		.4byte	.LASF62
 3176 02e2 02       		.byte	0x2
 3177 02e3 4B       		.byte	0x4b
 3178 02e4 32030000 		.4byte	0x332
ARM GAS  C:\Users\armst\AppData\Local\Temp\ccFg2asa.s 			page 75


 3179 02e8 10       		.byte	0x10
 3180 02e9 0B       		.uleb128 0xb
 3181 02ea C4030000 		.4byte	.LASF63
 3182 02ee 02       		.byte	0x2
 3183 02ef 4C       		.byte	0x4c
 3184 02f0 C5010000 		.4byte	0x1c5
 3185 02f4 14       		.byte	0x14
 3186 02f5 0B       		.uleb128 0xb
 3187 02f6 F3030000 		.4byte	.LASF64
 3188 02fa 02       		.byte	0x2
 3189 02fb 4D       		.byte	0x4d
 3190 02fc C5010000 		.4byte	0x1c5
 3191 0300 1C       		.byte	0x1c
 3192 0301 0B       		.uleb128 0xb
 3193 0302 B8000000 		.4byte	.LASF65
 3194 0306 02       		.byte	0x2
 3195 0307 4E       		.byte	0x4e
 3196 0308 C5010000 		.4byte	0x1c5
 3197 030c 24       		.byte	0x24
 3198 030d 0B       		.uleb128 0xb
 3199 030e A1000000 		.4byte	.LASF66
 3200 0312 02       		.byte	0x2
 3201 0313 4F       		.byte	0x4f
 3202 0314 C5010000 		.4byte	0x1c5
 3203 0318 2C       		.byte	0x2c
 3204 0319 0B       		.uleb128 0xb
 3205 031a 77040000 		.4byte	.LASF67
 3206 031e 02       		.byte	0x2
 3207 031f 50       		.byte	0x50
 3208 0320 EA010000 		.4byte	0x1ea
 3209 0324 34       		.byte	0x34
 3210 0325 0B       		.uleb128 0xb
 3211 0326 02040000 		.4byte	.LASF68
 3212 032a 02       		.byte	0x2
 3213 032b 51       		.byte	0x51
 3214 032c C5010000 		.4byte	0x1c5
 3215 0330 40       		.byte	0x40
 3216 0331 00       		.byte	0
 3217 0332 02       		.uleb128 0x2
 3218 0333 01       		.byte	0x1
 3219 0334 02       		.byte	0x2
 3220 0335 72030000 		.4byte	.LASF69
 3221 0339 06       		.uleb128 0x6
 3222 033a E0000000 		.4byte	.LASF70
 3223 033e 50       		.byte	0x50
 3224 033f 02       		.byte	0x2
 3225 0340 54       		.byte	0x54
 3226 0341 CA030000 		.4byte	0x3ca
 3227 0345 0B       		.uleb128 0xb
 3228 0346 0F030000 		.4byte	.LASF53
 3229 034a 02       		.byte	0x2
 3230 034b 55       		.byte	0x55
 3231 034c 1B020000 		.4byte	0x21b
 3232 0350 00       		.byte	0
 3233 0351 0B       		.uleb128 0xb
 3234 0352 C4030000 		.4byte	.LASF63
 3235 0356 02       		.byte	0x2
ARM GAS  C:\Users\armst\AppData\Local\Temp\ccFg2asa.s 			page 76


 3236 0357 56       		.byte	0x56
 3237 0358 C5010000 		.4byte	0x1c5
 3238 035c 10       		.byte	0x10
 3239 035d 0B       		.uleb128 0xb
 3240 035e F3030000 		.4byte	.LASF64
 3241 0362 02       		.byte	0x2
 3242 0363 57       		.byte	0x57
 3243 0364 C5010000 		.4byte	0x1c5
 3244 0368 18       		.byte	0x18
 3245 0369 0B       		.uleb128 0xb
 3246 036a CE060000 		.4byte	.LASF71
 3247 036e 02       		.byte	0x2
 3248 036f 58       		.byte	0x58
 3249 0370 7E000000 		.4byte	0x7e
 3250 0374 20       		.byte	0x20
 3251 0375 0B       		.uleb128 0xb
 3252 0376 35010000 		.4byte	.LASF72
 3253 037a 02       		.byte	0x2
 3254 037b 59       		.byte	0x59
 3255 037c 7E000000 		.4byte	0x7e
 3256 0380 24       		.byte	0x24
 3257 0381 0B       		.uleb128 0xb
 3258 0382 3E030000 		.4byte	.LASF73
 3259 0386 02       		.byte	0x2
 3260 0387 5A       		.byte	0x5a
 3261 0388 C5010000 		.4byte	0x1c5
 3262 038c 28       		.byte	0x28
 3263 038d 0B       		.uleb128 0xb
 3264 038e AB050000 		.4byte	.LASF74
 3265 0392 02       		.byte	0x2
 3266 0393 5B       		.byte	0x5b
 3267 0394 C5010000 		.4byte	0x1c5
 3268 0398 30       		.byte	0x30
 3269 0399 0B       		.uleb128 0xb
 3270 039a F7060000 		.4byte	.LASF75
 3271 039e 02       		.byte	0x2
 3272 039f 5B       		.byte	0x5b
 3273 03a0 DA000000 		.4byte	0xda
 3274 03a4 38       		.byte	0x38
 3275 03a5 0B       		.uleb128 0xb
 3276 03a6 E1050000 		.4byte	.LASF76
 3277 03aa 02       		.byte	0x2
 3278 03ab 5C       		.byte	0x5c
 3279 03ac C5010000 		.4byte	0x1c5
 3280 03b0 3C       		.byte	0x3c
 3281 03b1 0B       		.uleb128 0xb
 3282 03b2 11060000 		.4byte	.LASF77
 3283 03b6 02       		.byte	0x2
 3284 03b7 5C       		.byte	0x5c
 3285 03b8 DA000000 		.4byte	0xda
 3286 03bc 44       		.byte	0x44
 3287 03bd 0B       		.uleb128 0xb
 3288 03be 6B000000 		.4byte	.LASF78
 3289 03c2 02       		.byte	0x2
 3290 03c3 5D       		.byte	0x5d
 3291 03c4 C5010000 		.4byte	0x1c5
 3292 03c8 48       		.byte	0x48
ARM GAS  C:\Users\armst\AppData\Local\Temp\ccFg2asa.s 			page 77


 3293 03c9 00       		.byte	0
 3294 03ca 0C       		.uleb128 0xc
 3295 03cb 4F040000 		.4byte	.LASF80
 3296 03cf 01       		.byte	0x1
 3297 03d0 37000000 		.4byte	0x37
 3298 03d4 02       		.byte	0x2
 3299 03d5 66       		.byte	0x66
 3300 03d6 05040000 		.4byte	0x405
 3301 03da 0E       		.uleb128 0xe
 3302 03db A9030000 		.4byte	.LASF81
 3303 03df 41       		.byte	0x41
 3304 03e0 0E       		.uleb128 0xe
 3305 03e1 D6030000 		.4byte	.LASF82
 3306 03e5 44       		.byte	0x44
 3307 03e6 0E       		.uleb128 0xe
 3308 03e7 74070000 		.4byte	.LASF83
 3309 03eb 45       		.byte	0x45
 3310 03ec 0E       		.uleb128 0xe
 3311 03ed 74050000 		.4byte	.LASF84
 3312 03f1 4D       		.byte	0x4d
 3313 03f2 0E       		.uleb128 0xe
 3314 03f3 3F080000 		.4byte	.LASF85
 3315 03f7 53       		.byte	0x53
 3316 03f8 0E       		.uleb128 0xe
 3317 03f9 5F090000 		.4byte	.LASF86
 3318 03fd 4E       		.byte	0x4e
 3319 03fe 0E       		.uleb128 0xe
 3320 03ff 4C070000 		.4byte	.LASF87
 3321 0403 50       		.byte	0x50
 3322 0404 00       		.byte	0
 3323 0405 06       		.uleb128 0x6
 3324 0406 E9040000 		.4byte	.LASF88
 3325 040a 24       		.byte	0x24
 3326 040b 02       		.byte	0x2
 3327 040c 70       		.byte	0x70
 3328 040d 4E040000 		.4byte	0x44e
 3329 0411 0B       		.uleb128 0xb
 3330 0412 C4030000 		.4byte	.LASF63
 3331 0416 02       		.byte	0x2
 3332 0417 71       		.byte	0x71
 3333 0418 C5010000 		.4byte	0x1c5
 3334 041c 00       		.byte	0
 3335 041d 0B       		.uleb128 0xb
 3336 041e F3030000 		.4byte	.LASF64
 3337 0422 02       		.byte	0x2
 3338 0423 72       		.byte	0x72
 3339 0424 C5010000 		.4byte	0x1c5
 3340 0428 08       		.byte	0x8
 3341 0429 0B       		.uleb128 0xb
 3342 042a 0F030000 		.4byte	.LASF53
 3343 042e 02       		.byte	0x2
 3344 042f 73       		.byte	0x73
 3345 0430 1B020000 		.4byte	0x21b
 3346 0434 10       		.byte	0x10
 3347 0435 0B       		.uleb128 0xb
 3348 0436 98040000 		.4byte	.LASF89
 3349 043a 02       		.byte	0x2
ARM GAS  C:\Users\armst\AppData\Local\Temp\ccFg2asa.s 			page 78


 3350 043b 74       		.byte	0x74
 3351 043c DA000000 		.4byte	0xda
 3352 0440 20       		.byte	0x20
 3353 0441 0B       		.uleb128 0xb
 3354 0442 DB000000 		.4byte	.LASF90
 3355 0446 02       		.byte	0x2
 3356 0447 75       		.byte	0x75
 3357 0448 DA000000 		.4byte	0xda
 3358 044c 21       		.byte	0x21
 3359 044d 00       		.byte	0
 3360 044e 06       		.uleb128 0x6
 3361 044f F4080000 		.4byte	.LASF91
 3362 0453 48       		.byte	0x48
 3363 0454 02       		.byte	0x2
 3364 0455 78       		.byte	0x78
 3365 0456 BB040000 		.4byte	0x4bb
 3366 045a 0B       		.uleb128 0xb
 3367 045b 0F030000 		.4byte	.LASF53
 3368 045f 02       		.byte	0x2
 3369 0460 79       		.byte	0x79
 3370 0461 1B020000 		.4byte	0x21b
 3371 0465 00       		.byte	0
 3372 0466 0B       		.uleb128 0xb
 3373 0467 39040000 		.4byte	.LASF92
 3374 046b 02       		.byte	0x2
 3375 046c 7A       		.byte	0x7a
 3376 046d C5010000 		.4byte	0x1c5
 3377 0471 10       		.byte	0x10
 3378 0472 0B       		.uleb128 0xb
 3379 0473 92060000 		.4byte	.LASF93
 3380 0477 02       		.byte	0x2
 3381 0478 7B       		.byte	0x7b
 3382 0479 C5010000 		.4byte	0x1c5
 3383 047d 18       		.byte	0x18
 3384 047e 0B       		.uleb128 0xb
 3385 047f 11050000 		.4byte	.LASF94
 3386 0483 02       		.byte	0x2
 3387 0484 7C       		.byte	0x7c
 3388 0485 C5010000 		.4byte	0x1c5
 3389 0489 20       		.byte	0x20
 3390 048a 0B       		.uleb128 0xb
 3391 048b 7E030000 		.4byte	.LASF95
 3392 048f 02       		.byte	0x2
 3393 0490 7D       		.byte	0x7d
 3394 0491 C5010000 		.4byte	0x1c5
 3395 0495 28       		.byte	0x28
 3396 0496 0B       		.uleb128 0xb
 3397 0497 20040000 		.4byte	.LASF96
 3398 049b 02       		.byte	0x2
 3399 049c 7E       		.byte	0x7e
 3400 049d C5010000 		.4byte	0x1c5
 3401 04a1 30       		.byte	0x30
 3402 04a2 0B       		.uleb128 0xb
 3403 04a3 48010000 		.4byte	.LASF97
 3404 04a7 02       		.byte	0x2
 3405 04a8 7F       		.byte	0x7f
 3406 04a9 C5010000 		.4byte	0x1c5
ARM GAS  C:\Users\armst\AppData\Local\Temp\ccFg2asa.s 			page 79


 3407 04ad 38       		.byte	0x38
 3408 04ae 0B       		.uleb128 0xb
 3409 04af AB010000 		.4byte	.LASF98
 3410 04b3 02       		.byte	0x2
 3411 04b4 80       		.byte	0x80
 3412 04b5 C5010000 		.4byte	0x1c5
 3413 04b9 40       		.byte	0x40
 3414 04ba 00       		.byte	0
 3415 04bb 06       		.uleb128 0x6
 3416 04bc B0080000 		.4byte	.LASF99
 3417 04c0 50       		.byte	0x50
 3418 04c1 02       		.byte	0x2
 3419 04c2 8E       		.byte	0x8e
 3420 04c3 10050000 		.4byte	0x510
 3421 04c7 0B       		.uleb128 0xb
 3422 04c8 DB000000 		.4byte	.LASF90
 3423 04cc 02       		.byte	0x2
 3424 04cd 8F       		.byte	0x8f
 3425 04ce DA000000 		.4byte	0xda
 3426 04d2 00       		.byte	0
 3427 04d3 0B       		.uleb128 0xb
 3428 04d4 CD080000 		.4byte	.LASF100
 3429 04d8 02       		.byte	0x2
 3430 04d9 90       		.byte	0x90
 3431 04da 7E000000 		.4byte	0x7e
 3432 04de 04       		.byte	0x4
 3433 04df 0B       		.uleb128 0xb
 3434 04e0 28000000 		.4byte	.LASF101
 3435 04e4 02       		.byte	0x2
 3436 04e5 91       		.byte	0x91
 3437 04e6 10050000 		.4byte	0x510
 3438 04ea 08       		.byte	0x8
 3439 04eb 0B       		.uleb128 0xb
 3440 04ec 7C020000 		.4byte	.LASF102
 3441 04f0 02       		.byte	0x2
 3442 04f1 92       		.byte	0x92
 3443 04f2 C5010000 		.4byte	0x1c5
 3444 04f6 38       		.byte	0x38
 3445 04f7 0B       		.uleb128 0xb
 3446 04f8 3E030000 		.4byte	.LASF73
 3447 04fc 02       		.byte	0x2
 3448 04fd 93       		.byte	0x93
 3449 04fe C5010000 		.4byte	0x1c5
 3450 0502 40       		.byte	0x40
 3451 0503 0B       		.uleb128 0xb
 3452 0504 E8050000 		.4byte	.LASF103
 3453 0508 02       		.byte	0x2
 3454 0509 94       		.byte	0x94
 3455 050a C5010000 		.4byte	0x1c5
 3456 050e 48       		.byte	0x48
 3457 050f 00       		.byte	0
 3458 0510 10       		.uleb128 0x10
 3459 0511 7E000000 		.4byte	0x7e
 3460 0515 20050000 		.4byte	0x520
 3461 0519 11       		.uleb128 0x11
 3462 051a B4000000 		.4byte	0xb4
 3463 051e 0B       		.byte	0xb
ARM GAS  C:\Users\armst\AppData\Local\Temp\ccFg2asa.s 			page 80


 3464 051f 00       		.byte	0
 3465 0520 06       		.uleb128 0x6
 3466 0521 4C000000 		.4byte	.LASF104
 3467 0525 10       		.byte	0x10
 3468 0526 02       		.byte	0x2
 3469 0527 97       		.byte	0x97
 3470 0528 5C050000 		.4byte	0x55c
 3471 052c 0F       		.uleb128 0xf
 3472 052d 6E7200   		.ascii	"nr\000"
 3473 0530 02       		.byte	0x2
 3474 0531 98       		.byte	0x98
 3475 0532 7E000000 		.4byte	0x7e
 3476 0536 00       		.byte	0
 3477 0537 0B       		.uleb128 0xb
 3478 0538 90000000 		.4byte	.LASF105
 3479 053c 02       		.byte	0x2
 3480 053d 99       		.byte	0x99
 3481 053e 7E000000 		.4byte	0x7e
 3482 0542 04       		.byte	0x4
 3483 0543 0B       		.uleb128 0xb
 3484 0544 37080000 		.4byte	.LASF106
 3485 0548 02       		.byte	0x2
 3486 0549 9A       		.byte	0x9a
 3487 054a 7E000000 		.4byte	0x7e
 3488 054e 08       		.byte	0x8
 3489 054f 0F       		.uleb128 0xf
 3490 0550 736E7200 		.ascii	"snr\000"
 3491 0554 02       		.byte	0x2
 3492 0555 9B       		.byte	0x9b
 3493 0556 7E000000 		.4byte	0x7e
 3494 055a 0C       		.byte	0xc
 3495 055b 00       		.byte	0
 3496 055c 06       		.uleb128 0x6
 3497 055d 08090000 		.4byte	.LASF107
 3498 0561 4C       		.byte	0x4c
 3499 0562 02       		.byte	0x2
 3500 0563 9E       		.byte	0x9e
 3501 0564 99050000 		.4byte	0x599
 3502 0568 0B       		.uleb128 0xb
 3503 0569 5F040000 		.4byte	.LASF108
 3504 056d 02       		.byte	0x2
 3505 056e 9F       		.byte	0x9f
 3506 056f 7E000000 		.4byte	0x7e
 3507 0573 00       		.byte	0
 3508 0574 0B       		.uleb128 0xb
 3509 0575 29080000 		.4byte	.LASF109
 3510 0579 02       		.byte	0x2
 3511 057a A0       		.byte	0xa0
 3512 057b 7E000000 		.4byte	0x7e
 3513 057f 04       		.byte	0x4
 3514 0580 0B       		.uleb128 0xb
 3515 0581 1E060000 		.4byte	.LASF110
 3516 0585 02       		.byte	0x2
 3517 0586 A1       		.byte	0xa1
 3518 0587 7E000000 		.4byte	0x7e
 3519 058b 08       		.byte	0x8
 3520 058c 0B       		.uleb128 0xb
ARM GAS  C:\Users\armst\AppData\Local\Temp\ccFg2asa.s 			page 81


 3521 058d 28000000 		.4byte	.LASF101
 3522 0591 02       		.byte	0x2
 3523 0592 A2       		.byte	0xa2
 3524 0593 99050000 		.4byte	0x599
 3525 0597 0C       		.byte	0xc
 3526 0598 00       		.byte	0
 3527 0599 10       		.uleb128 0x10
 3528 059a 20050000 		.4byte	0x520
 3529 059e A9050000 		.4byte	0x5a9
 3530 05a2 11       		.uleb128 0x11
 3531 05a3 B4000000 		.4byte	0xb4
 3532 05a7 03       		.byte	0x3
 3533 05a8 00       		.byte	0
 3534 05a9 06       		.uleb128 0x6
 3535 05aa 1C090000 		.4byte	.LASF111
 3536 05ae 24       		.byte	0x24
 3537 05af 02       		.byte	0x2
 3538 05b0 A5       		.byte	0xa5
 3539 05b1 F2050000 		.4byte	0x5f2
 3540 05b5 0B       		.uleb128 0xb
 3541 05b6 7F060000 		.4byte	.LASF112
 3542 05ba 02       		.byte	0x2
 3543 05bb A6       		.byte	0xa6
 3544 05bc C5010000 		.4byte	0x1c5
 3545 05c0 00       		.byte	0
 3546 05c1 0B       		.uleb128 0xb
 3547 05c2 9F020000 		.4byte	.LASF113
 3548 05c6 02       		.byte	0x2
 3549 05c7 A7       		.byte	0xa7
 3550 05c8 C5010000 		.4byte	0x1c5
 3551 05cc 08       		.byte	0x8
 3552 05cd 0B       		.uleb128 0xb
 3553 05ce 5B030000 		.4byte	.LASF114
 3554 05d2 02       		.byte	0x2
 3555 05d3 A8       		.byte	0xa8
 3556 05d4 C5010000 		.4byte	0x1c5
 3557 05d8 10       		.byte	0x10
 3558 05d9 0B       		.uleb128 0xb
 3559 05da 3C090000 		.4byte	.LASF115
 3560 05de 02       		.byte	0x2
 3561 05df A9       		.byte	0xa9
 3562 05e0 C5010000 		.4byte	0x1c5
 3563 05e4 18       		.byte	0x18
 3564 05e5 0B       		.uleb128 0xb
 3565 05e6 A6070000 		.4byte	.LASF116
 3566 05ea 02       		.byte	0x2
 3567 05eb AA       		.byte	0xaa
 3568 05ec CA030000 		.4byte	0x3ca
 3569 05f0 20       		.byte	0x20
 3570 05f1 00       		.byte	0
 3571 05f2 06       		.uleb128 0x6
 3572 05f3 FD040000 		.4byte	.LASF117
 3573 05f7 24       		.byte	0x24
 3574 05f8 02       		.byte	0x2
 3575 05f9 AD       		.byte	0xad
 3576 05fa 2F060000 		.4byte	0x62f
 3577 05fe 0B       		.uleb128 0xb
ARM GAS  C:\Users\armst\AppData\Local\Temp\ccFg2asa.s 			page 82


 3578 05ff 0F030000 		.4byte	.LASF53
 3579 0603 02       		.byte	0x2
 3580 0604 AE       		.byte	0xae
 3581 0605 1B020000 		.4byte	0x21b
 3582 0609 00       		.byte	0
 3583 060a 0B       		.uleb128 0xb
 3584 060b 77040000 		.4byte	.LASF67
 3585 060f 02       		.byte	0x2
 3586 0610 AF       		.byte	0xaf
 3587 0611 EA010000 		.4byte	0x1ea
 3588 0615 10       		.byte	0x10
 3589 0616 0B       		.uleb128 0xb
 3590 0617 24070000 		.4byte	.LASF118
 3591 061b 02       		.byte	0x2
 3592 061c B0       		.byte	0xb0
 3593 061d 7E000000 		.4byte	0x7e
 3594 0621 1C       		.byte	0x1c
 3595 0622 0B       		.uleb128 0xb
 3596 0623 90050000 		.4byte	.LASF119
 3597 0627 02       		.byte	0x2
 3598 0628 B1       		.byte	0xb1
 3599 0629 7E000000 		.4byte	0x7e
 3600 062d 20       		.byte	0x20
 3601 062e 00       		.byte	0
 3602 062f 03       		.uleb128 0x3
 3603 0630 2F030000 		.4byte	.LASF120
 3604 0634 08       		.byte	0x8
 3605 0635 28       		.byte	0x28
 3606 0636 BD000000 		.4byte	0xbd
 3607 063a 03       		.uleb128 0x3
 3608 063b 26050000 		.4byte	.LASF121
 3609 063f 08       		.byte	0x8
 3610 0640 62       		.byte	0x62
 3611 0641 2F060000 		.4byte	0x62f
 3612 0645 12       		.uleb128 0x12
 3613 0646 15070000 		.4byte	.LASF176
 3614 064a 02       		.byte	0x2
 3615 064b 1E01     		.2byte	0x11e
 3616 064d 32030000 		.4byte	0x332
 3617 0651 03       		.byte	0x3
 3618 0652 61060000 		.4byte	0x661
 3619 0656 13       		.uleb128 0x13
 3620 0657 6300     		.ascii	"c\000"
 3621 0659 02       		.byte	0x2
 3622 065a 1E01     		.2byte	0x11e
 3623 065c DA000000 		.4byte	0xda
 3624 0660 00       		.byte	0
 3625 0661 14       		.uleb128 0x14
 3626 0662 6D060000 		.4byte	.LASF177
 3627 0666 01       		.byte	0x1
 3628 0667 12       		.byte	0x12
 3629 0668 7E000000 		.4byte	0x7e
 3630 066c 00000000 		.4byte	.LFB4
 3631 0670 30000000 		.4byte	.LFE4-.LFB4
 3632 0674 01       		.uleb128 0x1
 3633 0675 9C       		.byte	0x9c
 3634 0676 88060000 		.4byte	0x688
ARM GAS  C:\Users\armst\AppData\Local\Temp\ccFg2asa.s 			page 83


 3635 067a 15       		.uleb128 0x15
 3636 067b 6300     		.ascii	"c\000"
 3637 067d 01       		.byte	0x1
 3638 067e 12       		.byte	0x12
 3639 067f DA000000 		.4byte	0xda
 3640 0683 00000000 		.4byte	.LLST0
 3641 0687 00       		.byte	0
 3642 0688 16       		.uleb128 0x16
 3643 0689 64070000 		.4byte	.LASF123
 3644 068d 01       		.byte	0x1
 3645 068e 1D       		.byte	0x1d
 3646 068f 93000000 		.4byte	0x93
 3647 0693 00000000 		.4byte	.LFB5
 3648 0697 1E000000 		.4byte	.LFE5-.LFB5
 3649 069b 01       		.uleb128 0x1
 3650 069c 9C       		.byte	0x9c
 3651 069d BE060000 		.4byte	0x6be
 3652 06a1 17       		.uleb128 0x17
 3653 06a2 62010000 		.4byte	.LASF122
 3654 06a6 01       		.byte	0x1
 3655 06a7 1D       		.byte	0x1d
 3656 06a8 E1000000 		.4byte	0xe1
 3657 06ac 6C000000 		.4byte	.LLST1
 3658 06b0 18       		.uleb128 0x18
 3659 06b1 CD030000 		.4byte	.LASF126
 3660 06b5 01       		.byte	0x1
 3661 06b6 23       		.byte	0x23
 3662 06b7 93000000 		.4byte	0x93
 3663 06bb 01       		.uleb128 0x1
 3664 06bc 50       		.byte	0x50
 3665 06bd 00       		.byte	0
 3666 06be 16       		.uleb128 0x16
 3667 06bf 3A000000 		.4byte	.LASF124
 3668 06c3 01       		.byte	0x1
 3669 06c4 2C       		.byte	0x2c
 3670 06c5 32030000 		.4byte	0x332
 3671 06c9 00000000 		.4byte	.LFB6
 3672 06cd 88000000 		.4byte	.LFE6-.LFB6
 3673 06d1 01       		.uleb128 0x1
 3674 06d2 9C       		.byte	0x9c
 3675 06d3 4A070000 		.4byte	0x74a
 3676 06d7 17       		.uleb128 0x17
 3677 06d8 62010000 		.4byte	.LASF122
 3678 06dc 01       		.byte	0x1
 3679 06dd 2C       		.byte	0x2c
 3680 06de E1000000 		.4byte	0xe1
 3681 06e2 8A000000 		.4byte	.LLST2
 3682 06e6 17       		.uleb128 0x17
 3683 06e7 0E070000 		.4byte	.LASF125
 3684 06eb 01       		.byte	0x1
 3685 06ec 2C       		.byte	0x2c
 3686 06ed 32030000 		.4byte	0x332
 3687 06f1 EE000000 		.4byte	.LLST3
 3688 06f5 19       		.uleb128 0x19
 3689 06f6 CD030000 		.4byte	.LASF126
 3690 06fa 01       		.byte	0x1
 3691 06fb 2E       		.byte	0x2e
ARM GAS  C:\Users\armst\AppData\Local\Temp\ccFg2asa.s 			page 84


 3692 06fc 93000000 		.4byte	0x93
 3693 0700 5A010000 		.4byte	.LLST4
 3694 0704 1A       		.uleb128 0x1a
 3695 0705 00000000 		.4byte	.Ldebug_ranges0+0
 3696 0709 19       		.uleb128 0x19
 3697 070a 16080000 		.4byte	.LASF127
 3698 070e 01       		.byte	0x1
 3699 070f 3C       		.byte	0x3c
 3700 0710 7E000000 		.4byte	0x7e
 3701 0714 90010000 		.4byte	.LLST5
 3702 0718 19       		.uleb128 0x19
 3703 0719 14030000 		.4byte	.LASF128
 3704 071d 01       		.byte	0x1
 3705 071e 3F       		.byte	0x3f
 3706 071f 7E000000 		.4byte	0x7e
 3707 0723 C4010000 		.4byte	.LLST6
 3708 0727 19       		.uleb128 0x19
 3709 0728 6B050000 		.4byte	.LASF129
 3710 072c 01       		.byte	0x1
 3711 072d 42       		.byte	0x42
 3712 072e 7E000000 		.4byte	0x7e
 3713 0732 E2010000 		.4byte	.LLST7
 3714 0736 1B       		.uleb128 0x1b
 3715 0737 34000000 		.4byte	.LVL20
 3716 073b 61060000 		.4byte	0x661
 3717 073f 1B       		.uleb128 0x1b
 3718 0740 42000000 		.4byte	.LVL24
 3719 0744 61060000 		.4byte	0x661
 3720 0748 00       		.byte	0
 3721 0749 00       		.byte	0
 3722 074a 1C       		.uleb128 0x1c
 3723 074b 30090000 		.4byte	.LASF130
 3724 074f 01       		.byte	0x1
 3725 0750 58       		.byte	0x58
 3726 0751 32030000 		.4byte	0x332
 3727 0755 00000000 		.4byte	.LFB7
 3728 0759 50050000 		.4byte	.LFE7-.LFB7
 3729 075d 01       		.uleb128 0x1
 3730 075e 9C       		.byte	0x9c
 3731 075f 1C0C0000 		.4byte	0xc1c
 3732 0763 17       		.uleb128 0x17
 3733 0764 62010000 		.4byte	.LASF122
 3734 0768 01       		.byte	0x1
 3735 0769 58       		.byte	0x58
 3736 076a E1000000 		.4byte	0xe1
 3737 076e 00020000 		.4byte	.LLST8
 3738 0772 17       		.uleb128 0x17
 3739 0773 5C000000 		.4byte	.LASF131
 3740 0777 01       		.byte	0x1
 3741 0778 58       		.byte	0x58
 3742 0779 E1000000 		.4byte	0xe1
 3743 077d 34020000 		.4byte	.LLST9
 3744 0781 1D       		.uleb128 0x1d
 3745 0782 19       		.uleb128 0x19
 3746 0783 61020000 		.4byte	.LASF132
 3747 0787 01       		.byte	0x1
 3748 0788 5A       		.byte	0x5a
ARM GAS  C:\Users\armst\AppData\Local\Temp\ccFg2asa.s 			page 85


 3749 0789 32030000 		.4byte	0x332
 3750 078d 5F020000 		.4byte	.LLST10
 3751 0791 19       		.uleb128 0x19
 3752 0792 4D090000 		.4byte	.LASF133
 3753 0796 01       		.byte	0x1
 3754 0797 5B       		.byte	0x5b
 3755 0798 32030000 		.4byte	0x332
 3756 079c 8A020000 		.4byte	.LLST11
 3757 07a0 1E       		.uleb128 0x1e
 3758 07a1 617000   		.ascii	"ap\000"
 3759 07a4 01       		.byte	0x1
 3760 07a5 60       		.byte	0x60
 3761 07a6 3A060000 		.4byte	0x63a
 3762 07aa 02       		.uleb128 0x2
 3763 07ab 91       		.byte	0x91
 3764 07ac 4C       		.sleb128 -52
 3765 07ad 19       		.uleb128 0x19
 3766 07ae 56020000 		.4byte	.LASF134
 3767 07b2 01       		.byte	0x1
 3768 07b3 63       		.byte	0x63
 3769 07b4 E1000000 		.4byte	0xe1
 3770 07b8 C0020000 		.4byte	.LLST12
 3771 07bc 1F       		.uleb128 0x1f
 3772 07bd E1080000 		.4byte	.LASF178
 3773 07c1 01       		.byte	0x1
 3774 07c2 4E01     		.2byte	0x14e
 3775 07c4 30050000 		.4byte	.L33
 3776 07c8 1A       		.uleb128 0x1a
 3777 07c9 18000000 		.4byte	.Ldebug_ranges0+0x18
 3778 07cd 19       		.uleb128 0x19
 3779 07ce F8070000 		.4byte	.LASF135
 3780 07d2 01       		.byte	0x1
 3781 07d3 73       		.byte	0x73
 3782 07d4 DA000000 		.4byte	0xda
 3783 07d8 43030000 		.4byte	.LLST13
 3784 07dc 20       		.uleb128 0x20
 3785 07dd 4A000000 		.4byte	.LBB40
 3786 07e1 3E000000 		.4byte	.LBE40-.LBB40
 3787 07e5 12080000 		.4byte	0x812
 3788 07e9 19       		.uleb128 0x19
 3789 07ea 1A030000 		.4byte	.LASF42
 3790 07ee 01       		.byte	0x1
 3791 07ef 82       		.byte	0x82
 3792 07f0 DA000000 		.4byte	0xda
 3793 07f4 6C030000 		.4byte	.LLST14
 3794 07f8 21       		.uleb128 0x21
 3795 07f9 45060000 		.4byte	0x645
 3796 07fd 50000000 		.4byte	.LBB41
 3797 0801 24000000 		.4byte	.LBE41-.LBB41
 3798 0805 01       		.byte	0x1
 3799 0806 84       		.byte	0x84
 3800 0807 22       		.uleb128 0x22
 3801 0808 56060000 		.4byte	0x656
 3802 080c 8B030000 		.4byte	.LLST15
 3803 0810 00       		.byte	0
 3804 0811 00       		.byte	0
 3805 0812 20       		.uleb128 0x20
ARM GAS  C:\Users\armst\AppData\Local\Temp\ccFg2asa.s 			page 86


 3806 0813 8A000000 		.4byte	.LBB43
 3807 0817 5E000000 		.4byte	.LBE43-.LBB43
 3808 081b 48080000 		.4byte	0x848
 3809 081f 19       		.uleb128 0x19
 3810 0820 1A030000 		.4byte	.LASF42
 3811 0824 01       		.byte	0x1
 3812 0825 8B       		.byte	0x8b
 3813 0826 7E000000 		.4byte	0x7e
 3814 082a 9E030000 		.4byte	.LLST16
 3815 082e 21       		.uleb128 0x21
 3816 082f 45060000 		.4byte	0x645
 3817 0833 90000000 		.4byte	.LBB44
 3818 0837 24000000 		.4byte	.LBE44-.LBB44
 3819 083b 01       		.byte	0x1
 3820 083c 8D       		.byte	0x8d
 3821 083d 22       		.uleb128 0x22
 3822 083e 56060000 		.4byte	0x656
 3823 0842 C9030000 		.4byte	.LLST17
 3824 0846 00       		.byte	0
 3825 0847 00       		.byte	0
 3826 0848 23       		.uleb128 0x23
 3827 0849 50000000 		.4byte	.Ldebug_ranges0+0x50
 3828 084d B1080000 		.4byte	0x8b1
 3829 0851 19       		.uleb128 0x19
 3830 0852 43030000 		.4byte	.LASF136
 3831 0856 01       		.byte	0x1
 3832 0857 A0       		.byte	0xa0
 3833 0858 7E000000 		.4byte	0x7e
 3834 085c DC030000 		.4byte	.LLST18
 3835 0860 19       		.uleb128 0x19
 3836 0861 1A030000 		.4byte	.LASF42
 3837 0865 01       		.byte	0x1
 3838 0866 A1       		.byte	0xa1
 3839 0867 A9000000 		.4byte	0xa9
 3840 086b A1040000 		.4byte	.LLST19
 3841 086f 19       		.uleb128 0x19
 3842 0870 9E050000 		.4byte	.LASF43
 3843 0874 01       		.byte	0x1
 3844 0875 A2       		.byte	0xa2
 3845 0876 A9000000 		.4byte	0xa9
 3846 087a 05050000 		.4byte	.LLST20
 3847 087e 23       		.uleb128 0x23
 3848 087f 70000000 		.4byte	.Ldebug_ranges0+0x70
 3849 0883 97080000 		.4byte	0x897
 3850 0887 19       		.uleb128 0x19
 3851 0888 1C010000 		.4byte	.LASF137
 3852 088c 01       		.byte	0x1
 3853 088d AB       		.byte	0xab
 3854 088e 7E000000 		.4byte	0x7e
 3855 0892 F6050000 		.4byte	.LLST21
 3856 0896 00       		.byte	0
 3857 0897 21       		.uleb128 0x21
 3858 0898 45060000 		.4byte	0x645
 3859 089c A4010000 		.4byte	.LBB49
 3860 08a0 26000000 		.4byte	.LBE49-.LBB49
 3861 08a4 01       		.byte	0x1
 3862 08a5 A5       		.byte	0xa5
ARM GAS  C:\Users\armst\AppData\Local\Temp\ccFg2asa.s 			page 87


 3863 08a6 22       		.uleb128 0x22
 3864 08a7 56060000 		.4byte	0x656
 3865 08ab 09060000 		.4byte	.LLST22
 3866 08af 00       		.byte	0
 3867 08b0 00       		.byte	0
 3868 08b1 23       		.uleb128 0x23
 3869 08b2 88000000 		.4byte	.Ldebug_ranges0+0x88
 3870 08b6 1B090000 		.4byte	0x91b
 3871 08ba 19       		.uleb128 0x19
 3872 08bb 1A030000 		.4byte	.LASF42
 3873 08bf 01       		.byte	0x1
 3874 08c0 DB       		.byte	0xdb
 3875 08c1 7E000000 		.4byte	0x7e
 3876 08c5 1C060000 		.4byte	.LLST23
 3877 08c9 24       		.uleb128 0x24
 3878 08ca 16020000 		.4byte	.LBB54
 3879 08ce 36000000 		.4byte	.LBE54-.LBB54
 3880 08d2 18       		.uleb128 0x18
 3881 08d3 9A000000 		.4byte	.LASF138
 3882 08d7 01       		.byte	0x1
 3883 08d8 DE       		.byte	0xde
 3884 08d9 D4000000 		.4byte	0xd4
 3885 08dd 02       		.uleb128 0x2
 3886 08de 91       		.byte	0x91
 3887 08df 48       		.sleb128 -56
 3888 08e0 25       		.uleb128 0x25
 3889 08e1 45060000 		.4byte	0x645
 3890 08e5 24020000 		.4byte	.LBB55
 3891 08e9 24000000 		.4byte	.LBE55-.LBB55
 3892 08ed 01       		.byte	0x1
 3893 08ee E0       		.byte	0xe0
 3894 08ef FD080000 		.4byte	0x8fd
 3895 08f3 22       		.uleb128 0x22
 3896 08f4 56060000 		.4byte	0x656
 3897 08f8 52060000 		.4byte	.LLST24
 3898 08fc 00       		.byte	0
 3899 08fd 26       		.uleb128 0x26
 3900 08fe 20020000 		.4byte	.LVL98
 3901 0902 B6170000 		.4byte	0x17b6
 3902 0906 27       		.uleb128 0x27
 3903 0907 01       		.uleb128 0x1
 3904 0908 50       		.byte	0x50
 3905 0909 02       		.uleb128 0x2
 3906 090a 75       		.byte	0x75
 3907 090b 00       		.sleb128 0
 3908 090c 27       		.uleb128 0x27
 3909 090d 01       		.uleb128 0x1
 3910 090e 51       		.byte	0x51
 3911 090f 03       		.uleb128 0x3
 3912 0910 91       		.byte	0x91
 3913 0911 B07F     		.sleb128 -80
 3914 0913 27       		.uleb128 0x27
 3915 0914 01       		.uleb128 0x1
 3916 0915 52       		.byte	0x52
 3917 0916 01       		.uleb128 0x1
 3918 0917 3A       		.byte	0x3a
 3919 0918 00       		.byte	0
ARM GAS  C:\Users\armst\AppData\Local\Temp\ccFg2asa.s 			page 88


 3920 0919 00       		.byte	0
 3921 091a 00       		.byte	0
 3922 091b 20       		.uleb128 0x20
 3923 091c 5E020000 		.4byte	.LBB58
 3924 0920 42000000 		.4byte	.LBE58-.LBB58
 3925 0924 51090000 		.4byte	0x951
 3926 0928 28       		.uleb128 0x28
 3927 0929 62756600 		.ascii	"buf\000"
 3928 092d 01       		.byte	0x1
 3929 092e E8       		.byte	0xe8
 3930 092f D4000000 		.4byte	0xd4
 3931 0933 65060000 		.4byte	.LLST25
 3932 0937 21       		.uleb128 0x21
 3933 0938 45060000 		.4byte	0x645
 3934 093c 74020000 		.4byte	.LBB59
 3935 0940 24000000 		.4byte	.LBE59-.LBB59
 3936 0944 01       		.byte	0x1
 3937 0945 EB       		.byte	0xeb
 3938 0946 22       		.uleb128 0x22
 3939 0947 56060000 		.4byte	0x656
 3940 094b 90060000 		.4byte	.LLST26
 3941 094f 00       		.byte	0
 3942 0950 00       		.byte	0
 3943 0951 20       		.uleb128 0x20
 3944 0952 A2020000 		.4byte	.LBB61
 3945 0956 68000000 		.4byte	.LBE61-.LBB61
 3946 095a BD090000 		.4byte	0x9bd
 3947 095e 28       		.uleb128 0x28
 3948 095f 62756600 		.ascii	"buf\000"
 3949 0963 01       		.byte	0x1
 3950 0964 FD       		.byte	0xfd
 3951 0965 D4000000 		.4byte	0xd4
 3952 0969 A3060000 		.4byte	.LLST27
 3953 096d 20       		.uleb128 0x20
 3954 096e B4020000 		.4byte	.LBB62
 3955 0972 40000000 		.4byte	.LBE62-.LBB62
 3956 0976 A1090000 		.4byte	0x9a1
 3957 097a 28       		.uleb128 0x28
 3958 097b 6600     		.ascii	"f\000"
 3959 097d 01       		.byte	0x1
 3960 097e F9       		.byte	0xf9
 3961 097f 7E000000 		.4byte	0x7e
 3962 0983 B6060000 		.4byte	.LLST28
 3963 0987 21       		.uleb128 0x21
 3964 0988 45060000 		.4byte	0x645
 3965 098c B8020000 		.4byte	.LBB63
 3966 0990 32000000 		.4byte	.LBE63-.LBB63
 3967 0994 01       		.byte	0x1
 3968 0995 FA       		.byte	0xfa
 3969 0996 22       		.uleb128 0x22
 3970 0997 56060000 		.4byte	0x656
 3971 099b EE060000 		.4byte	.LLST29
 3972 099f 00       		.byte	0
 3973 09a0 00       		.byte	0
 3974 09a1 26       		.uleb128 0x26
 3975 09a2 06030000 		.4byte	.LVL119
 3976 09a6 C1170000 		.4byte	0x17c1
ARM GAS  C:\Users\armst\AppData\Local\Temp\ccFg2asa.s 			page 89


 3977 09aa 27       		.uleb128 0x27
 3978 09ab 01       		.uleb128 0x1
 3979 09ac 50       		.byte	0x50
 3980 09ad 02       		.uleb128 0x2
 3981 09ae 77       		.byte	0x77
 3982 09af 00       		.sleb128 0
 3983 09b0 27       		.uleb128 0x27
 3984 09b1 01       		.uleb128 0x1
 3985 09b2 51       		.byte	0x51
 3986 09b3 02       		.uleb128 0x2
 3987 09b4 75       		.byte	0x75
 3988 09b5 01       		.sleb128 1
 3989 09b6 27       		.uleb128 0x27
 3990 09b7 01       		.uleb128 0x1
 3991 09b8 52       		.byte	0x52
 3992 09b9 01       		.uleb128 0x1
 3993 09ba 35       		.byte	0x35
 3994 09bb 00       		.byte	0
 3995 09bc 00       		.byte	0
 3996 09bd 23       		.uleb128 0x23
 3997 09be A0000000 		.4byte	.Ldebug_ranges0+0xa0
 3998 09c2 C30A0000 		.4byte	0xac3
 3999 09c6 29       		.uleb128 0x29
 4000 09c7 77040000 		.4byte	.LASF67
 4001 09cb 01       		.byte	0x1
 4002 09cc 0301     		.2byte	0x103
 4003 09ce 1C0C0000 		.4byte	0xc1c
 4004 09d2 01070000 		.4byte	.LLST30
 4005 09d6 2A       		.uleb128 0x2a
 4006 09d7 6400     		.ascii	"d\000"
 4007 09d9 01       		.byte	0x1
 4008 09da 0501     		.2byte	0x105
 4009 09dc 7E000000 		.4byte	0x7e
 4010 09e0 14070000 		.4byte	.LLST31
 4011 09e4 2A       		.uleb128 0x2a
 4012 09e5 6D00     		.ascii	"m\000"
 4013 09e7 01       		.byte	0x1
 4014 09e8 0501     		.2byte	0x105
 4015 09ea 7E000000 		.4byte	0x7e
 4016 09ee 57070000 		.4byte	.LLST32
 4017 09f2 2A       		.uleb128 0x2a
 4018 09f3 7900     		.ascii	"y\000"
 4019 09f5 01       		.byte	0x1
 4020 09f6 0501     		.2byte	0x105
 4021 09f8 7E000000 		.4byte	0x7e
 4022 09fc 9A070000 		.4byte	.LLST33
 4023 0a00 2B       		.uleb128 0x2b
 4024 0a01 45060000 		.4byte	0x645
 4025 0a05 1A030000 		.4byte	.LBB66
 4026 0a09 24000000 		.4byte	.LBE66-.LBB66
 4027 0a0d 01       		.byte	0x1
 4028 0a0e 0701     		.2byte	0x107
 4029 0a10 1E0A0000 		.4byte	0xa1e
 4030 0a14 22       		.uleb128 0x22
 4031 0a15 56060000 		.4byte	0x656
 4032 0a19 D2070000 		.4byte	.LLST34
 4033 0a1d 00       		.byte	0
ARM GAS  C:\Users\armst\AppData\Local\Temp\ccFg2asa.s 			page 90


 4034 0a1e 1A       		.uleb128 0x1a
 4035 0a1f B8000000 		.4byte	.Ldebug_ranges0+0xb8
 4036 0a23 2C       		.uleb128 0x2c
 4037 0a24 68060000 		.4byte	.LASF139
 4038 0a28 01       		.byte	0x1
 4039 0a29 0D01     		.2byte	0x10d
 4040 0a2b 220C0000 		.4byte	0xc22
 4041 0a2f 02       		.uleb128 0x2
 4042 0a30 91       		.byte	0x91
 4043 0a31 40       		.sleb128 -64
 4044 0a32 2C       		.uleb128 0x2c
 4045 0a33 F3070000 		.4byte	.LASF140
 4046 0a37 01       		.byte	0x1
 4047 0a38 0E01     		.2byte	0x10e
 4048 0a3a 220C0000 		.4byte	0xc22
 4049 0a3e 02       		.uleb128 0x2
 4050 0a3f 91       		.byte	0x91
 4051 0a40 44       		.sleb128 -60
 4052 0a41 2C       		.uleb128 0x2c
 4053 0a42 75060000 		.4byte	.LASF141
 4054 0a46 01       		.byte	0x1
 4055 0a47 0F01     		.2byte	0x10f
 4056 0a49 220C0000 		.4byte	0xc22
 4057 0a4d 02       		.uleb128 0x2
 4058 0a4e 91       		.byte	0x91
 4059 0a4f 48       		.sleb128 -56
 4060 0a50 23       		.uleb128 0x23
 4061 0a51 D0000000 		.4byte	.Ldebug_ranges0+0xd0
 4062 0a55 680A0000 		.4byte	0xa68
 4063 0a59 2A       		.uleb128 0x2a
 4064 0a5a 6600     		.ascii	"f\000"
 4065 0a5c 01       		.byte	0x1
 4066 0a5d 0901     		.2byte	0x109
 4067 0a5f 7E000000 		.4byte	0x7e
 4068 0a63 E5070000 		.4byte	.LLST35
 4069 0a67 00       		.byte	0
 4070 0a68 2D       		.uleb128 0x2d
 4071 0a69 8E030000 		.4byte	.LVL130
 4072 0a6d B6170000 		.4byte	0x17b6
 4073 0a71 870A0000 		.4byte	0xa87
 4074 0a75 27       		.uleb128 0x27
 4075 0a76 01       		.uleb128 0x1
 4076 0a77 50       		.byte	0x50
 4077 0a78 03       		.uleb128 0x3
 4078 0a79 91       		.byte	0x91
 4079 0a7a A87F     		.sleb128 -88
 4080 0a7c 27       		.uleb128 0x27
 4081 0a7d 01       		.uleb128 0x1
 4082 0a7e 51       		.byte	0x51
 4083 0a7f 01       		.uleb128 0x1
 4084 0a80 30       		.byte	0x30
 4085 0a81 27       		.uleb128 0x27
 4086 0a82 01       		.uleb128 0x1
 4087 0a83 52       		.byte	0x52
 4088 0a84 01       		.uleb128 0x1
 4089 0a85 3A       		.byte	0x3a
 4090 0a86 00       		.byte	0
ARM GAS  C:\Users\armst\AppData\Local\Temp\ccFg2asa.s 			page 91


 4091 0a87 2D       		.uleb128 0x2d
 4092 0a88 9A030000 		.4byte	.LVL133
 4093 0a8c B6170000 		.4byte	0x17b6
 4094 0a90 A60A0000 		.4byte	0xaa6
 4095 0a94 27       		.uleb128 0x27
 4096 0a95 01       		.uleb128 0x1
 4097 0a96 50       		.byte	0x50
 4098 0a97 03       		.uleb128 0x3
 4099 0a98 91       		.byte	0x91
 4100 0a99 AC7F     		.sleb128 -84
 4101 0a9b 27       		.uleb128 0x27
 4102 0a9c 01       		.uleb128 0x1
 4103 0a9d 51       		.byte	0x51
 4104 0a9e 01       		.uleb128 0x1
 4105 0a9f 30       		.byte	0x30
 4106 0aa0 27       		.uleb128 0x27
 4107 0aa1 01       		.uleb128 0x1
 4108 0aa2 52       		.byte	0x52
 4109 0aa3 01       		.uleb128 0x1
 4110 0aa4 3A       		.byte	0x3a
 4111 0aa5 00       		.byte	0
 4112 0aa6 26       		.uleb128 0x26
 4113 0aa7 A6030000 		.4byte	.LVL136
 4114 0aab B6170000 		.4byte	0x17b6
 4115 0aaf 27       		.uleb128 0x27
 4116 0ab0 01       		.uleb128 0x1
 4117 0ab1 50       		.byte	0x50
 4118 0ab2 03       		.uleb128 0x3
 4119 0ab3 91       		.byte	0x91
 4120 0ab4 B07F     		.sleb128 -80
 4121 0ab6 27       		.uleb128 0x27
 4122 0ab7 01       		.uleb128 0x1
 4123 0ab8 51       		.byte	0x51
 4124 0ab9 01       		.uleb128 0x1
 4125 0aba 30       		.byte	0x30
 4126 0abb 27       		.uleb128 0x27
 4127 0abc 01       		.uleb128 0x1
 4128 0abd 52       		.byte	0x52
 4129 0abe 01       		.uleb128 0x1
 4130 0abf 3A       		.byte	0x3a
 4131 0ac0 00       		.byte	0
 4132 0ac1 00       		.byte	0
 4133 0ac2 00       		.byte	0
 4134 0ac3 23       		.uleb128 0x23
 4135 0ac4 E8000000 		.4byte	.Ldebug_ranges0+0xe8
 4136 0ac8 000C0000 		.4byte	0xc00
 4137 0acc 29       		.uleb128 0x29
 4138 0acd 6A040000 		.4byte	.LASF142
 4139 0ad1 01       		.byte	0x1
 4140 0ad2 1B01     		.2byte	0x11b
 4141 0ad4 320C0000 		.4byte	0xc32
 4142 0ad8 0E080000 		.4byte	.LLST36
 4143 0adc 2A       		.uleb128 0x2a
 4144 0add 6800     		.ascii	"h\000"
 4145 0adf 01       		.byte	0x1
 4146 0ae0 1D01     		.2byte	0x11d
 4147 0ae2 7E000000 		.4byte	0x7e
ARM GAS  C:\Users\armst\AppData\Local\Temp\ccFg2asa.s 			page 92


 4148 0ae6 42080000 		.4byte	.LLST37
 4149 0aea 2A       		.uleb128 0x2a
 4150 0aeb 6900     		.ascii	"i\000"
 4151 0aed 01       		.byte	0x1
 4152 0aee 1D01     		.2byte	0x11d
 4153 0af0 7E000000 		.4byte	0x7e
 4154 0af4 85080000 		.4byte	.LLST38
 4155 0af8 2A       		.uleb128 0x2a
 4156 0af9 7300     		.ascii	"s\000"
 4157 0afb 01       		.byte	0x1
 4158 0afc 1D01     		.2byte	0x11d
 4159 0afe 7E000000 		.4byte	0x7e
 4160 0b02 C8080000 		.4byte	.LLST39
 4161 0b06 2A       		.uleb128 0x2a
 4162 0b07 7500     		.ascii	"u\000"
 4163 0b09 01       		.byte	0x1
 4164 0b0a 1D01     		.2byte	0x11d
 4165 0b0c 7E000000 		.4byte	0x7e
 4166 0b10 27090000 		.4byte	.LLST40
 4167 0b14 2B       		.uleb128 0x2b
 4168 0b15 45060000 		.4byte	0x645
 4169 0b19 CE030000 		.4byte	.LBB74
 4170 0b1d 24000000 		.4byte	.LBE74-.LBB74
 4171 0b21 01       		.byte	0x1
 4172 0b22 1F01     		.2byte	0x11f
 4173 0b24 320B0000 		.4byte	0xb32
 4174 0b28 22       		.uleb128 0x22
 4175 0b29 56060000 		.4byte	0x656
 4176 0b2d 5F090000 		.4byte	.LLST41
 4177 0b31 00       		.byte	0
 4178 0b32 1A       		.uleb128 0x1a
 4179 0b33 00010000 		.4byte	.Ldebug_ranges0+0x100
 4180 0b37 2C       		.uleb128 0x2c
 4181 0b38 7A060000 		.4byte	.LASF143
 4182 0b3c 01       		.byte	0x1
 4183 0b3d 2501     		.2byte	0x125
 4184 0b3f 220C0000 		.4byte	0xc22
 4185 0b43 02       		.uleb128 0x2
 4186 0b44 91       		.byte	0x91
 4187 0b45 40       		.sleb128 -64
 4188 0b46 2C       		.uleb128 0x2c
 4189 0b47 66050000 		.4byte	.LASF144
 4190 0b4b 01       		.byte	0x1
 4191 0b4c 2601     		.2byte	0x126
 4192 0b4e 220C0000 		.4byte	0xc22
 4193 0b52 02       		.uleb128 0x2
 4194 0b53 91       		.byte	0x91
 4195 0b54 44       		.sleb128 -60
 4196 0b55 2C       		.uleb128 0x2c
 4197 0b56 47000000 		.4byte	.LASF145
 4198 0b5a 01       		.byte	0x1
 4199 0b5b 2701     		.2byte	0x127
 4200 0b5d 220C0000 		.4byte	0xc22
 4201 0b61 02       		.uleb128 0x2
 4202 0b62 91       		.byte	0x91
 4203 0b63 48       		.sleb128 -56
 4204 0b64 23       		.uleb128 0x23
ARM GAS  C:\Users\armst\AppData\Local\Temp\ccFg2asa.s 			page 93


 4205 0b65 18010000 		.4byte	.Ldebug_ranges0+0x118
 4206 0b69 7C0B0000 		.4byte	0xb7c
 4207 0b6d 2A       		.uleb128 0x2a
 4208 0b6e 6600     		.ascii	"f\000"
 4209 0b70 01       		.byte	0x1
 4210 0b71 2101     		.2byte	0x121
 4211 0b73 7E000000 		.4byte	0x7e
 4212 0b77 72090000 		.4byte	.LLST42
 4213 0b7b 00       		.byte	0
 4214 0b7c 23       		.uleb128 0x23
 4215 0b7d 30010000 		.4byte	.Ldebug_ranges0+0x130
 4216 0b81 A60B0000 		.4byte	0xba6
 4217 0b85 29       		.uleb128 0x29
 4218 0b86 1A030000 		.4byte	.LASF42
 4219 0b8a 01       		.byte	0x1
 4220 0b8b 2F01     		.2byte	0x12f
 4221 0b8d 9E000000 		.4byte	0x9e
 4222 0b91 9B090000 		.4byte	.LLST43
 4223 0b95 29       		.uleb128 0x29
 4224 0b96 9E050000 		.4byte	.LASF43
 4225 0b9a 01       		.byte	0x1
 4226 0b9b 3001     		.2byte	0x130
 4227 0b9d 9E000000 		.4byte	0x9e
 4228 0ba1 CF090000 		.4byte	.LLST44
 4229 0ba5 00       		.byte	0
 4230 0ba6 2D       		.uleb128 0x2d
 4231 0ba7 46040000 		.4byte	.LVL150
 4232 0bab B6170000 		.4byte	0x17b6
 4233 0baf C50B0000 		.4byte	0xbc5
 4234 0bb3 27       		.uleb128 0x27
 4235 0bb4 01       		.uleb128 0x1
 4236 0bb5 50       		.byte	0x50
 4237 0bb6 03       		.uleb128 0x3
 4238 0bb7 91       		.byte	0x91
 4239 0bb8 A87F     		.sleb128 -88
 4240 0bba 27       		.uleb128 0x27
 4241 0bbb 01       		.uleb128 0x1
 4242 0bbc 51       		.byte	0x51
 4243 0bbd 01       		.uleb128 0x1
 4244 0bbe 30       		.byte	0x30
 4245 0bbf 27       		.uleb128 0x27
 4246 0bc0 01       		.uleb128 0x1
 4247 0bc1 52       		.byte	0x52
 4248 0bc2 01       		.uleb128 0x1
 4249 0bc3 3A       		.byte	0x3a
 4250 0bc4 00       		.byte	0
 4251 0bc5 2D       		.uleb128 0x2d
 4252 0bc6 52040000 		.4byte	.LVL153
 4253 0bca B6170000 		.4byte	0x17b6
 4254 0bce E40B0000 		.4byte	0xbe4
 4255 0bd2 27       		.uleb128 0x27
 4256 0bd3 01       		.uleb128 0x1
 4257 0bd4 50       		.byte	0x50
 4258 0bd5 03       		.uleb128 0x3
 4259 0bd6 91       		.byte	0x91
 4260 0bd7 AC7F     		.sleb128 -84
 4261 0bd9 27       		.uleb128 0x27
ARM GAS  C:\Users\armst\AppData\Local\Temp\ccFg2asa.s 			page 94


 4262 0bda 01       		.uleb128 0x1
 4263 0bdb 51       		.byte	0x51
 4264 0bdc 01       		.uleb128 0x1
 4265 0bdd 30       		.byte	0x30
 4266 0bde 27       		.uleb128 0x27
 4267 0bdf 01       		.uleb128 0x1
 4268 0be0 52       		.byte	0x52
 4269 0be1 01       		.uleb128 0x1
 4270 0be2 3A       		.byte	0x3a
 4271 0be3 00       		.byte	0
 4272 0be4 26       		.uleb128 0x26
 4273 0be5 5E040000 		.4byte	.LVL156
 4274 0be9 B6170000 		.4byte	0x17b6
 4275 0bed 27       		.uleb128 0x27
 4276 0bee 01       		.uleb128 0x1
 4277 0bef 50       		.byte	0x50
 4278 0bf0 02       		.uleb128 0x2
 4279 0bf1 77       		.byte	0x77
 4280 0bf2 00       		.sleb128 0
 4281 0bf3 27       		.uleb128 0x27
 4282 0bf4 01       		.uleb128 0x1
 4283 0bf5 51       		.byte	0x51
 4284 0bf6 01       		.uleb128 0x1
 4285 0bf7 30       		.byte	0x30
 4286 0bf8 27       		.uleb128 0x27
 4287 0bf9 01       		.uleb128 0x1
 4288 0bfa 52       		.byte	0x52
 4289 0bfb 01       		.uleb128 0x1
 4290 0bfc 3A       		.byte	0x3a
 4291 0bfd 00       		.byte	0
 4292 0bfe 00       		.byte	0
 4293 0bff 00       		.byte	0
 4294 0c00 2E       		.uleb128 0x2e
 4295 0c01 45060000 		.4byte	0x645
 4296 0c05 C0040000 		.4byte	.LBB83
 4297 0c09 24000000 		.4byte	.LBE83-.LBB83
 4298 0c0d 01       		.byte	0x1
 4299 0c0e 4901     		.2byte	0x149
 4300 0c10 22       		.uleb128 0x22
 4301 0c11 56060000 		.4byte	0x656
 4302 0c15 F8090000 		.4byte	.LLST45
 4303 0c19 00       		.byte	0
 4304 0c1a 00       		.byte	0
 4305 0c1b 00       		.byte	0
 4306 0c1c 08       		.uleb128 0x8
 4307 0c1d 04       		.byte	0x4
 4308 0c1e EA010000 		.4byte	0x1ea
 4309 0c22 10       		.uleb128 0x10
 4310 0c23 DA000000 		.4byte	0xda
 4311 0c27 320C0000 		.4byte	0xc32
 4312 0c2b 11       		.uleb128 0x11
 4313 0c2c B4000000 		.4byte	0xb4
 4314 0c30 02       		.byte	0x2
 4315 0c31 00       		.byte	0
 4316 0c32 08       		.uleb128 0x8
 4317 0c33 04       		.byte	0x4
 4318 0c34 1B020000 		.4byte	0x21b
ARM GAS  C:\Users\armst\AppData\Local\Temp\ccFg2asa.s 			page 95


 4319 0c38 2F       		.uleb128 0x2f
 4320 0c39 E6060000 		.4byte	.LASF146
 4321 0c3d 01       		.byte	0x1
 4322 0c3e 5301     		.2byte	0x153
 4323 0c40 32030000 		.4byte	0x332
 4324 0c44 00000000 		.4byte	.LFB8
 4325 0c48 2C000000 		.4byte	.LFE8-.LFB8
 4326 0c4c 01       		.uleb128 0x1
 4327 0c4d 9C       		.byte	0x9c
 4328 0c4e A20C0000 		.4byte	0xca2
 4329 0c52 30       		.uleb128 0x30
 4330 0c53 70040000 		.4byte	.LASF147
 4331 0c57 01       		.byte	0x1
 4332 0c58 5301     		.2byte	0x153
 4333 0c5a D4000000 		.4byte	0xd4
 4334 0c5e 0B0A0000 		.4byte	.LLST46
 4335 0c62 30       		.uleb128 0x30
 4336 0c63 62010000 		.4byte	.LASF122
 4337 0c67 01       		.byte	0x1
 4338 0c68 5301     		.2byte	0x153
 4339 0c6a E1000000 		.4byte	0xe1
 4340 0c6e 370A0000 		.4byte	.LLST47
 4341 0c72 2C       		.uleb128 0x2c
 4342 0c73 F8070000 		.4byte	.LASF135
 4343 0c77 01       		.byte	0x1
 4344 0c78 5501     		.2byte	0x155
 4345 0c7a A20C0000 		.4byte	0xca2
 4346 0c7e 02       		.uleb128 0x2
 4347 0c7f 91       		.byte	0x91
 4348 0c80 70       		.sleb128 -16
 4349 0c81 26       		.uleb128 0x26
 4350 0c82 10000000 		.4byte	.LVL198
 4351 0c86 4A070000 		.4byte	0x74a
 4352 0c8a 27       		.uleb128 0x27
 4353 0c8b 01       		.uleb128 0x1
 4354 0c8c 50       		.byte	0x50
 4355 0c8d 03       		.uleb128 0x3
 4356 0c8e F3       		.byte	0xf3
 4357 0c8f 01       		.uleb128 0x1
 4358 0c90 51       		.byte	0x51
 4359 0c91 27       		.uleb128 0x27
 4360 0c92 01       		.uleb128 0x1
 4361 0c93 51       		.byte	0x51
 4362 0c94 05       		.uleb128 0x5
 4363 0c95 03       		.byte	0x3
 4364 0c96 00000000 		.4byte	.LC3
 4365 0c9a 27       		.uleb128 0x27
 4366 0c9b 01       		.uleb128 0x1
 4367 0c9c 52       		.byte	0x52
 4368 0c9d 02       		.uleb128 0x2
 4369 0c9e 7D       		.byte	0x7d
 4370 0c9f 00       		.sleb128 0
 4371 0ca0 00       		.byte	0
 4372 0ca1 00       		.byte	0
 4373 0ca2 10       		.uleb128 0x10
 4374 0ca3 DA000000 		.4byte	0xda
 4375 0ca7 B20C0000 		.4byte	0xcb2
ARM GAS  C:\Users\armst\AppData\Local\Temp\ccFg2asa.s 			page 96


 4376 0cab 11       		.uleb128 0x11
 4377 0cac B4000000 		.4byte	0xb4
 4378 0cb0 05       		.byte	0x5
 4379 0cb1 00       		.byte	0
 4380 0cb2 2F       		.uleb128 0x2f
 4381 0cb3 22010000 		.4byte	.LASF79
 4382 0cb7 01       		.byte	0x1
 4383 0cb8 6001     		.2byte	0x160
 4384 0cba 72010000 		.4byte	0x172
 4385 0cbe 00000000 		.4byte	.LFB9
 4386 0cc2 F8000000 		.4byte	.LFE9-.LFB9
 4387 0cc6 01       		.uleb128 0x1
 4388 0cc7 9C       		.byte	0x9c
 4389 0cc8 340E0000 		.4byte	0xe34
 4390 0ccc 30       		.uleb128 0x30
 4391 0ccd 62010000 		.4byte	.LASF122
 4392 0cd1 01       		.byte	0x1
 4393 0cd2 6001     		.2byte	0x160
 4394 0cd4 E1000000 		.4byte	0xe1
 4395 0cd8 630A0000 		.4byte	.LLST48
 4396 0cdc 30       		.uleb128 0x30
 4397 0cdd 0E070000 		.4byte	.LASF125
 4398 0ce1 01       		.byte	0x1
 4399 0ce2 6001     		.2byte	0x160
 4400 0ce4 32030000 		.4byte	0x332
 4401 0ce8 8F0A0000 		.4byte	.LLST49
 4402 0cec 2C       		.uleb128 0x2c
 4403 0ced F8070000 		.4byte	.LASF135
 4404 0cf1 01       		.byte	0x1
 4405 0cf2 6501     		.2byte	0x165
 4406 0cf4 A20C0000 		.4byte	0xca2
 4407 0cf8 02       		.uleb128 0x2
 4408 0cf9 91       		.byte	0x91
 4409 0cfa 70       		.sleb128 -16
 4410 0cfb 2D       		.uleb128 0x2d
 4411 0cfc 0A000000 		.4byte	.LVL201
 4412 0d00 BE060000 		.4byte	0x6be
 4413 0d04 0F0D0000 		.4byte	0xd0f
 4414 0d08 27       		.uleb128 0x27
 4415 0d09 01       		.uleb128 0x1
 4416 0d0a 50       		.byte	0x50
 4417 0d0b 02       		.uleb128 0x2
 4418 0d0c 74       		.byte	0x74
 4419 0d0d 00       		.sleb128 0
 4420 0d0e 00       		.byte	0
 4421 0d0f 2D       		.uleb128 0x2d
 4422 0d10 18000000 		.4byte	.LVL202
 4423 0d14 4A070000 		.4byte	0x74a
 4424 0d18 320D0000 		.4byte	0xd32
 4425 0d1c 27       		.uleb128 0x27
 4426 0d1d 01       		.uleb128 0x1
 4427 0d1e 50       		.byte	0x50
 4428 0d1f 02       		.uleb128 0x2
 4429 0d20 74       		.byte	0x74
 4430 0d21 00       		.sleb128 0
 4431 0d22 27       		.uleb128 0x27
 4432 0d23 01       		.uleb128 0x1
ARM GAS  C:\Users\armst\AppData\Local\Temp\ccFg2asa.s 			page 97


 4433 0d24 51       		.byte	0x51
 4434 0d25 05       		.uleb128 0x5
 4435 0d26 03       		.byte	0x3
 4436 0d27 00000000 		.4byte	.LC3
 4437 0d2b 27       		.uleb128 0x27
 4438 0d2c 01       		.uleb128 0x1
 4439 0d2d 52       		.byte	0x52
 4440 0d2e 02       		.uleb128 0x2
 4441 0d2f 7D       		.byte	0x7d
 4442 0d30 00       		.sleb128 0
 4443 0d31 00       		.byte	0
 4444 0d32 2D       		.uleb128 0x2d
 4445 0d33 26000000 		.4byte	.LVL203
 4446 0d37 CA170000 		.4byte	0x17ca
 4447 0d3b 4F0D0000 		.4byte	0xd4f
 4448 0d3f 27       		.uleb128 0x27
 4449 0d40 01       		.uleb128 0x1
 4450 0d41 50       		.byte	0x50
 4451 0d42 02       		.uleb128 0x2
 4452 0d43 7D       		.byte	0x7d
 4453 0d44 02       		.sleb128 2
 4454 0d45 27       		.uleb128 0x27
 4455 0d46 01       		.uleb128 0x1
 4456 0d47 51       		.byte	0x51
 4457 0d48 05       		.uleb128 0x5
 4458 0d49 03       		.byte	0x3
 4459 0d4a 04000000 		.4byte	.LC6
 4460 0d4e 00       		.byte	0
 4461 0d4f 2D       		.uleb128 0x2d
 4462 0d50 34000000 		.4byte	.LVL204
 4463 0d54 CA170000 		.4byte	0x17ca
 4464 0d58 6C0D0000 		.4byte	0xd6c
 4465 0d5c 27       		.uleb128 0x27
 4466 0d5d 01       		.uleb128 0x1
 4467 0d5e 50       		.byte	0x50
 4468 0d5f 02       		.uleb128 0x2
 4469 0d60 7D       		.byte	0x7d
 4470 0d61 02       		.sleb128 2
 4471 0d62 27       		.uleb128 0x27
 4472 0d63 01       		.uleb128 0x1
 4473 0d64 51       		.byte	0x51
 4474 0d65 05       		.uleb128 0x5
 4475 0d66 03       		.byte	0x3
 4476 0d67 08000000 		.4byte	.LC8
 4477 0d6b 00       		.byte	0
 4478 0d6c 2D       		.uleb128 0x2d
 4479 0d6d 42000000 		.4byte	.LVL205
 4480 0d71 CA170000 		.4byte	0x17ca
 4481 0d75 890D0000 		.4byte	0xd89
 4482 0d79 27       		.uleb128 0x27
 4483 0d7a 01       		.uleb128 0x1
 4484 0d7b 50       		.byte	0x50
 4485 0d7c 02       		.uleb128 0x2
 4486 0d7d 7D       		.byte	0x7d
 4487 0d7e 02       		.sleb128 2
 4488 0d7f 27       		.uleb128 0x27
 4489 0d80 01       		.uleb128 0x1
ARM GAS  C:\Users\armst\AppData\Local\Temp\ccFg2asa.s 			page 98


 4490 0d81 51       		.byte	0x51
 4491 0d82 05       		.uleb128 0x5
 4492 0d83 03       		.byte	0x3
 4493 0d84 0C000000 		.4byte	.LC10
 4494 0d88 00       		.byte	0
 4495 0d89 2D       		.uleb128 0x2d
 4496 0d8a 50000000 		.4byte	.LVL206
 4497 0d8e CA170000 		.4byte	0x17ca
 4498 0d92 A60D0000 		.4byte	0xda6
 4499 0d96 27       		.uleb128 0x27
 4500 0d97 01       		.uleb128 0x1
 4501 0d98 50       		.byte	0x50
 4502 0d99 02       		.uleb128 0x2
 4503 0d9a 7D       		.byte	0x7d
 4504 0d9b 02       		.sleb128 2
 4505 0d9c 27       		.uleb128 0x27
 4506 0d9d 01       		.uleb128 0x1
 4507 0d9e 51       		.byte	0x51
 4508 0d9f 05       		.uleb128 0x5
 4509 0da0 03       		.byte	0x3
 4510 0da1 10000000 		.4byte	.LC12
 4511 0da5 00       		.byte	0
 4512 0da6 2D       		.uleb128 0x2d
 4513 0da7 5E000000 		.4byte	.LVL207
 4514 0dab CA170000 		.4byte	0x17ca
 4515 0daf C30D0000 		.4byte	0xdc3
 4516 0db3 27       		.uleb128 0x27
 4517 0db4 01       		.uleb128 0x1
 4518 0db5 50       		.byte	0x50
 4519 0db6 02       		.uleb128 0x2
 4520 0db7 7D       		.byte	0x7d
 4521 0db8 02       		.sleb128 2
 4522 0db9 27       		.uleb128 0x27
 4523 0dba 01       		.uleb128 0x1
 4524 0dbb 51       		.byte	0x51
 4525 0dbc 05       		.uleb128 0x5
 4526 0dbd 03       		.byte	0x3
 4527 0dbe 14000000 		.4byte	.LC14
 4528 0dc2 00       		.byte	0
 4529 0dc3 2D       		.uleb128 0x2d
 4530 0dc4 6C000000 		.4byte	.LVL208
 4531 0dc8 CA170000 		.4byte	0x17ca
 4532 0dcc E00D0000 		.4byte	0xde0
 4533 0dd0 27       		.uleb128 0x27
 4534 0dd1 01       		.uleb128 0x1
 4535 0dd2 50       		.byte	0x50
 4536 0dd3 02       		.uleb128 0x2
 4537 0dd4 7D       		.byte	0x7d
 4538 0dd5 02       		.sleb128 2
 4539 0dd6 27       		.uleb128 0x27
 4540 0dd7 01       		.uleb128 0x1
 4541 0dd8 51       		.byte	0x51
 4542 0dd9 05       		.uleb128 0x5
 4543 0dda 03       		.byte	0x3
 4544 0ddb 18000000 		.4byte	.LC16
 4545 0ddf 00       		.byte	0
 4546 0de0 2D       		.uleb128 0x2d
ARM GAS  C:\Users\armst\AppData\Local\Temp\ccFg2asa.s 			page 99


 4547 0de1 7A000000 		.4byte	.LVL209
 4548 0de5 CA170000 		.4byte	0x17ca
 4549 0de9 FD0D0000 		.4byte	0xdfd
 4550 0ded 27       		.uleb128 0x27
 4551 0dee 01       		.uleb128 0x1
 4552 0def 50       		.byte	0x50
 4553 0df0 02       		.uleb128 0x2
 4554 0df1 7D       		.byte	0x7d
 4555 0df2 02       		.sleb128 2
 4556 0df3 27       		.uleb128 0x27
 4557 0df4 01       		.uleb128 0x1
 4558 0df5 51       		.byte	0x51
 4559 0df6 05       		.uleb128 0x5
 4560 0df7 03       		.byte	0x3
 4561 0df8 1C000000 		.4byte	.LC18
 4562 0dfc 00       		.byte	0
 4563 0dfd 2D       		.uleb128 0x2d
 4564 0dfe 88000000 		.4byte	.LVL210
 4565 0e02 CA170000 		.4byte	0x17ca
 4566 0e06 1A0E0000 		.4byte	0xe1a
 4567 0e0a 27       		.uleb128 0x27
 4568 0e0b 01       		.uleb128 0x1
 4569 0e0c 50       		.byte	0x50
 4570 0e0d 02       		.uleb128 0x2
 4571 0e0e 7D       		.byte	0x7d
 4572 0e0f 02       		.sleb128 2
 4573 0e10 27       		.uleb128 0x27
 4574 0e11 01       		.uleb128 0x1
 4575 0e12 51       		.byte	0x51
 4576 0e13 05       		.uleb128 0x5
 4577 0e14 03       		.byte	0x3
 4578 0e15 20000000 		.4byte	.LC20
 4579 0e19 00       		.byte	0
 4580 0e1a 26       		.uleb128 0x26
 4581 0e1b 96000000 		.4byte	.LVL211
 4582 0e1f CA170000 		.4byte	0x17ca
 4583 0e23 27       		.uleb128 0x27
 4584 0e24 01       		.uleb128 0x1
 4585 0e25 50       		.byte	0x50
 4586 0e26 02       		.uleb128 0x2
 4587 0e27 7D       		.byte	0x7d
 4588 0e28 02       		.sleb128 2
 4589 0e29 27       		.uleb128 0x27
 4590 0e2a 01       		.uleb128 0x1
 4591 0e2b 51       		.byte	0x51
 4592 0e2c 05       		.uleb128 0x5
 4593 0e2d 03       		.byte	0x3
 4594 0e2e 24000000 		.4byte	.LC22
 4595 0e32 00       		.byte	0
 4596 0e33 00       		.byte	0
 4597 0e34 2F       		.uleb128 0x2f
 4598 0e35 4F050000 		.4byte	.LASF148
 4599 0e39 01       		.byte	0x1
 4600 0e3a 7F01     		.2byte	0x17f
 4601 0e3c 32030000 		.4byte	0x332
 4602 0e40 00000000 		.4byte	.LFB10
 4603 0e44 50000000 		.4byte	.LFE10-.LFB10
ARM GAS  C:\Users\armst\AppData\Local\Temp\ccFg2asa.s 			page 100


 4604 0e48 01       		.uleb128 0x1
 4605 0e49 9C       		.byte	0x9c
 4606 0e4a 080F0000 		.4byte	0xf08
 4607 0e4e 30       		.uleb128 0x30
 4608 0e4f 61080000 		.4byte	.LASF149
 4609 0e53 01       		.byte	0x1
 4610 0e54 7F01     		.2byte	0x17f
 4611 0e56 080F0000 		.4byte	0xf08
 4612 0e5a B00A0000 		.4byte	.LLST50
 4613 0e5e 30       		.uleb128 0x30
 4614 0e5f 62010000 		.4byte	.LASF122
 4615 0e63 01       		.byte	0x1
 4616 0e64 7F01     		.2byte	0x17f
 4617 0e66 E1000000 		.4byte	0xe1
 4618 0e6a DC0A0000 		.4byte	.LLST51
 4619 0e6e 2C       		.uleb128 0x2c
 4620 0e6f F8070000 		.4byte	.LASF135
 4621 0e73 01       		.byte	0x1
 4622 0e74 8201     		.2byte	0x182
 4623 0e76 A20C0000 		.4byte	0xca2
 4624 0e7a 02       		.uleb128 0x2
 4625 0e7b 91       		.byte	0x91
 4626 0e7c 70       		.sleb128 -16
 4627 0e7d 2D       		.uleb128 0x2d
 4628 0e7e 2E000000 		.4byte	.LVL216
 4629 0e82 4A070000 		.4byte	0x74a
 4630 0e86 EE0E0000 		.4byte	0xeee
 4631 0e8a 27       		.uleb128 0x27
 4632 0e8b 01       		.uleb128 0x1
 4633 0e8c 50       		.byte	0x50
 4634 0e8d 03       		.uleb128 0x3
 4635 0e8e F3       		.byte	0xf3
 4636 0e8f 01       		.uleb128 0x1
 4637 0e90 51       		.byte	0x51
 4638 0e91 27       		.uleb128 0x27
 4639 0e92 01       		.uleb128 0x1
 4640 0e93 51       		.byte	0x51
 4641 0e94 05       		.uleb128 0x5
 4642 0e95 03       		.byte	0x3
 4643 0e96 28000000 		.4byte	.LC24
 4644 0e9a 27       		.uleb128 0x27
 4645 0e9b 01       		.uleb128 0x1
 4646 0e9c 52       		.byte	0x52
 4647 0e9d 02       		.uleb128 0x2
 4648 0e9e 91       		.byte	0x91
 4649 0e9f 70       		.sleb128 -16
 4650 0ea0 27       		.uleb128 0x27
 4651 0ea1 01       		.uleb128 0x1
 4652 0ea2 53       		.byte	0x53
 4653 0ea3 03       		.uleb128 0x3
 4654 0ea4 F3       		.byte	0xf3
 4655 0ea5 01       		.uleb128 0x1
 4656 0ea6 50       		.byte	0x50
 4657 0ea7 27       		.uleb128 0x27
 4658 0ea8 02       		.uleb128 0x2
 4659 0ea9 7D       		.byte	0x7d
 4660 0eaa 00       		.sleb128 0
ARM GAS  C:\Users\armst\AppData\Local\Temp\ccFg2asa.s 			page 101


 4661 0eab 05       		.uleb128 0x5
 4662 0eac F3       		.byte	0xf3
 4663 0ead 01       		.uleb128 0x1
 4664 0eae 50       		.byte	0x50
 4665 0eaf 23       		.byte	0x23
 4666 0eb0 10       		.uleb128 0x10
 4667 0eb1 27       		.uleb128 0x27
 4668 0eb2 02       		.uleb128 0x2
 4669 0eb3 7D       		.byte	0x7d
 4670 0eb4 04       		.sleb128 4
 4671 0eb5 05       		.uleb128 0x5
 4672 0eb6 F3       		.byte	0xf3
 4673 0eb7 01       		.uleb128 0x1
 4674 0eb8 50       		.byte	0x50
 4675 0eb9 23       		.byte	0x23
 4676 0eba 18       		.uleb128 0x18
 4677 0ebb 27       		.uleb128 0x27
 4678 0ebc 02       		.uleb128 0x2
 4679 0ebd 7D       		.byte	0x7d
 4680 0ebe 08       		.sleb128 8
 4681 0ebf 05       		.uleb128 0x5
 4682 0ec0 F3       		.byte	0xf3
 4683 0ec1 01       		.uleb128 0x1
 4684 0ec2 50       		.byte	0x50
 4685 0ec3 23       		.byte	0x23
 4686 0ec4 20       		.uleb128 0x20
 4687 0ec5 27       		.uleb128 0x27
 4688 0ec6 02       		.uleb128 0x2
 4689 0ec7 7D       		.byte	0x7d
 4690 0ec8 0C       		.sleb128 12
 4691 0ec9 05       		.uleb128 0x5
 4692 0eca F3       		.byte	0xf3
 4693 0ecb 01       		.uleb128 0x1
 4694 0ecc 50       		.byte	0x50
 4695 0ecd 23       		.byte	0x23
 4696 0ece 28       		.uleb128 0x28
 4697 0ecf 27       		.uleb128 0x27
 4698 0ed0 02       		.uleb128 0x2
 4699 0ed1 7D       		.byte	0x7d
 4700 0ed2 10       		.sleb128 16
 4701 0ed3 05       		.uleb128 0x5
 4702 0ed4 F3       		.byte	0xf3
 4703 0ed5 01       		.uleb128 0x1
 4704 0ed6 50       		.byte	0x50
 4705 0ed7 23       		.byte	0x23
 4706 0ed8 2C       		.uleb128 0x2c
 4707 0ed9 27       		.uleb128 0x27
 4708 0eda 02       		.uleb128 0x2
 4709 0edb 7D       		.byte	0x7d
 4710 0edc 14       		.sleb128 20
 4711 0edd 05       		.uleb128 0x5
 4712 0ede F3       		.byte	0xf3
 4713 0edf 01       		.uleb128 0x1
 4714 0ee0 50       		.byte	0x50
 4715 0ee1 23       		.byte	0x23
 4716 0ee2 34       		.uleb128 0x34
 4717 0ee3 27       		.uleb128 0x27
ARM GAS  C:\Users\armst\AppData\Local\Temp\ccFg2asa.s 			page 102


 4718 0ee4 02       		.uleb128 0x2
 4719 0ee5 7D       		.byte	0x7d
 4720 0ee6 18       		.sleb128 24
 4721 0ee7 05       		.uleb128 0x5
 4722 0ee8 F3       		.byte	0xf3
 4723 0ee9 01       		.uleb128 0x1
 4724 0eea 50       		.byte	0x50
 4725 0eeb 23       		.byte	0x23
 4726 0eec 3C       		.uleb128 0x3c
 4727 0eed 00       		.byte	0
 4728 0eee 26       		.uleb128 0x26
 4729 0eef 3C000000 		.4byte	.LVL217
 4730 0ef3 CA170000 		.4byte	0x17ca
 4731 0ef7 27       		.uleb128 0x27
 4732 0ef8 01       		.uleb128 0x1
 4733 0ef9 50       		.byte	0x50
 4734 0efa 02       		.uleb128 0x2
 4735 0efb 91       		.byte	0x91
 4736 0efc 72       		.sleb128 -14
 4737 0efd 27       		.uleb128 0x27
 4738 0efe 01       		.uleb128 0x1
 4739 0eff 51       		.byte	0x51
 4740 0f00 05       		.uleb128 0x5
 4741 0f01 03       		.byte	0x3
 4742 0f02 04000000 		.4byte	.LC6
 4743 0f06 00       		.byte	0
 4744 0f07 00       		.byte	0
 4745 0f08 08       		.uleb128 0x8
 4746 0f09 04       		.byte	0x4
 4747 0f0a 58020000 		.4byte	0x258
 4748 0f0e 2F       		.uleb128 0x2f
 4749 0f0f C8050000 		.4byte	.LASF150
 4750 0f13 01       		.byte	0x1
 4751 0f14 9501     		.2byte	0x195
 4752 0f16 32030000 		.4byte	0x332
 4753 0f1a 00000000 		.4byte	.LFB11
 4754 0f1e 8C000000 		.4byte	.LFE11-.LFB11
 4755 0f22 01       		.uleb128 0x1
 4756 0f23 9C       		.byte	0x9c
 4757 0f24 1E100000 		.4byte	0x101e
 4758 0f28 30       		.uleb128 0x30
 4759 0f29 61080000 		.4byte	.LASF149
 4760 0f2d 01       		.byte	0x1
 4761 0f2e 9501     		.2byte	0x195
 4762 0f30 1E100000 		.4byte	0x101e
 4763 0f34 080B0000 		.4byte	.LLST52
 4764 0f38 30       		.uleb128 0x30
 4765 0f39 62010000 		.4byte	.LASF122
 4766 0f3d 01       		.byte	0x1
 4767 0f3e 9501     		.2byte	0x195
 4768 0f40 E1000000 		.4byte	0xe1
 4769 0f44 340B0000 		.4byte	.LLST53
 4770 0f48 2C       		.uleb128 0x2c
 4771 0f49 F8070000 		.4byte	.LASF135
 4772 0f4d 01       		.byte	0x1
 4773 0f4e 9801     		.2byte	0x198
 4774 0f50 A20C0000 		.4byte	0xca2
ARM GAS  C:\Users\armst\AppData\Local\Temp\ccFg2asa.s 			page 103


 4775 0f54 02       		.uleb128 0x2
 4776 0f55 91       		.byte	0x91
 4777 0f56 68       		.sleb128 -24
 4778 0f57 2C       		.uleb128 0x2c
 4779 0f58 6B010000 		.4byte	.LASF151
 4780 0f5c 01       		.byte	0x1
 4781 0f5d 9901     		.2byte	0x199
 4782 0f5f DA000000 		.4byte	0xda
 4783 0f63 02       		.uleb128 0x2
 4784 0f64 91       		.byte	0x91
 4785 0f65 67       		.sleb128 -25
 4786 0f66 2C       		.uleb128 0x2c
 4787 0f67 48030000 		.4byte	.LASF152
 4788 0f6b 01       		.byte	0x1
 4789 0f6c 9A01     		.2byte	0x19a
 4790 0f6e 7E000000 		.4byte	0x7e
 4791 0f72 02       		.uleb128 0x2
 4792 0f73 91       		.byte	0x91
 4793 0f74 60       		.sleb128 -32
 4794 0f75 2C       		.uleb128 0x2c
 4795 0f76 B4050000 		.4byte	.LASF153
 4796 0f7a 01       		.byte	0x1
 4797 0f7b 9B01     		.2byte	0x19b
 4798 0f7d 7E000000 		.4byte	0x7e
 4799 0f81 02       		.uleb128 0x2
 4800 0f82 91       		.byte	0x91
 4801 0f83 5C       		.sleb128 -36
 4802 0f84 2C       		.uleb128 0x2c
 4803 0f85 68020000 		.4byte	.LASF154
 4804 0f89 01       		.byte	0x1
 4805 0f8a 9C01     		.2byte	0x19c
 4806 0f8c 7E000000 		.4byte	0x7e
 4807 0f90 02       		.uleb128 0x2
 4808 0f91 91       		.byte	0x91
 4809 0f92 58       		.sleb128 -40
 4810 0f93 2D       		.uleb128 0x2d
 4811 0f94 42000000 		.4byte	.LVL221
 4812 0f98 4A070000 		.4byte	0x74a
 4813 0f9c 04100000 		.4byte	0x1004
 4814 0fa0 27       		.uleb128 0x27
 4815 0fa1 01       		.uleb128 0x1
 4816 0fa2 50       		.byte	0x50
 4817 0fa3 03       		.uleb128 0x3
 4818 0fa4 F3       		.byte	0xf3
 4819 0fa5 01       		.uleb128 0x1
 4820 0fa6 51       		.byte	0x51
 4821 0fa7 27       		.uleb128 0x27
 4822 0fa8 01       		.uleb128 0x1
 4823 0fa9 51       		.byte	0x51
 4824 0faa 05       		.uleb128 0x5
 4825 0fab 03       		.byte	0x3
 4826 0fac 34000000 		.4byte	.LC27
 4827 0fb0 27       		.uleb128 0x27
 4828 0fb1 01       		.uleb128 0x1
 4829 0fb2 52       		.byte	0x52
 4830 0fb3 02       		.uleb128 0x2
 4831 0fb4 91       		.byte	0x91
ARM GAS  C:\Users\armst\AppData\Local\Temp\ccFg2asa.s 			page 104


 4832 0fb5 68       		.sleb128 -24
 4833 0fb6 27       		.uleb128 0x27
 4834 0fb7 01       		.uleb128 0x1
 4835 0fb8 53       		.byte	0x53
 4836 0fb9 02       		.uleb128 0x2
 4837 0fba 74       		.byte	0x74
 4838 0fbb 00       		.sleb128 0
 4839 0fbc 27       		.uleb128 0x27
 4840 0fbd 02       		.uleb128 0x2
 4841 0fbe 7D       		.byte	0x7d
 4842 0fbf 00       		.sleb128 0
 4843 0fc0 02       		.uleb128 0x2
 4844 0fc1 91       		.byte	0x91
 4845 0fc2 67       		.sleb128 -25
 4846 0fc3 27       		.uleb128 0x27
 4847 0fc4 02       		.uleb128 0x2
 4848 0fc5 7D       		.byte	0x7d
 4849 0fc6 04       		.sleb128 4
 4850 0fc7 02       		.uleb128 0x2
 4851 0fc8 74       		.byte	0x74
 4852 0fc9 14       		.sleb128 20
 4853 0fca 27       		.uleb128 0x27
 4854 0fcb 02       		.uleb128 0x2
 4855 0fcc 7D       		.byte	0x7d
 4856 0fcd 08       		.sleb128 8
 4857 0fce 02       		.uleb128 0x2
 4858 0fcf 91       		.byte	0x91
 4859 0fd0 60       		.sleb128 -32
 4860 0fd1 27       		.uleb128 0x27
 4861 0fd2 02       		.uleb128 0x2
 4862 0fd3 7D       		.byte	0x7d
 4863 0fd4 0C       		.sleb128 12
 4864 0fd5 02       		.uleb128 0x2
 4865 0fd6 74       		.byte	0x74
 4866 0fd7 1C       		.sleb128 28
 4867 0fd8 27       		.uleb128 0x27
 4868 0fd9 02       		.uleb128 0x2
 4869 0fda 7D       		.byte	0x7d
 4870 0fdb 10       		.sleb128 16
 4871 0fdc 02       		.uleb128 0x2
 4872 0fdd 91       		.byte	0x91
 4873 0fde 5C       		.sleb128 -36
 4874 0fdf 27       		.uleb128 0x27
 4875 0fe0 02       		.uleb128 0x2
 4876 0fe1 7D       		.byte	0x7d
 4877 0fe2 14       		.sleb128 20
 4878 0fe3 02       		.uleb128 0x2
 4879 0fe4 74       		.byte	0x74
 4880 0fe5 24       		.sleb128 36
 4881 0fe6 27       		.uleb128 0x27
 4882 0fe7 02       		.uleb128 0x2
 4883 0fe8 7D       		.byte	0x7d
 4884 0fe9 18       		.sleb128 24
 4885 0fea 02       		.uleb128 0x2
 4886 0feb 74       		.byte	0x74
 4887 0fec 2C       		.sleb128 44
 4888 0fed 27       		.uleb128 0x27
ARM GAS  C:\Users\armst\AppData\Local\Temp\ccFg2asa.s 			page 105


 4889 0fee 02       		.uleb128 0x2
 4890 0fef 7D       		.byte	0x7d
 4891 0ff0 1C       		.sleb128 28
 4892 0ff1 02       		.uleb128 0x2
 4893 0ff2 74       		.byte	0x74
 4894 0ff3 34       		.sleb128 52
 4895 0ff4 27       		.uleb128 0x27
 4896 0ff5 02       		.uleb128 0x2
 4897 0ff6 7D       		.byte	0x7d
 4898 0ff7 20       		.sleb128 32
 4899 0ff8 03       		.uleb128 0x3
 4900 0ff9 74       		.byte	0x74
 4901 0ffa C000     		.sleb128 64
 4902 0ffc 27       		.uleb128 0x27
 4903 0ffd 02       		.uleb128 0x2
 4904 0ffe 7D       		.byte	0x7d
 4905 0fff 24       		.sleb128 36
 4906 1000 02       		.uleb128 0x2
 4907 1001 91       		.byte	0x91
 4908 1002 58       		.sleb128 -40
 4909 1003 00       		.byte	0
 4910 1004 26       		.uleb128 0x26
 4911 1005 50000000 		.4byte	.LVL222
 4912 1009 CA170000 		.4byte	0x17ca
 4913 100d 27       		.uleb128 0x27
 4914 100e 01       		.uleb128 0x1
 4915 100f 50       		.byte	0x50
 4916 1010 02       		.uleb128 0x2
 4917 1011 91       		.byte	0x91
 4918 1012 6A       		.sleb128 -22
 4919 1013 27       		.uleb128 0x27
 4920 1014 01       		.uleb128 0x1
 4921 1015 51       		.byte	0x51
 4922 1016 05       		.uleb128 0x5
 4923 1017 03       		.byte	0x3
 4924 1018 1C000000 		.4byte	.LC18
 4925 101c 00       		.byte	0
 4926 101d 00       		.byte	0
 4927 101e 08       		.uleb128 0x8
 4928 101f 04       		.byte	0x4
 4929 1020 C5020000 		.4byte	0x2c5
 4930 1024 2F       		.uleb128 0x2f
 4931 1025 E2070000 		.4byte	.LASF155
 4932 1029 01       		.byte	0x1
 4933 102a B301     		.2byte	0x1b3
 4934 102c 32030000 		.4byte	0x332
 4935 1030 00000000 		.4byte	.LFB12
 4936 1034 7C000000 		.4byte	.LFE12-.LFB12
 4937 1038 01       		.uleb128 0x1
 4938 1039 9C       		.byte	0x9c
 4939 103a 25110000 		.4byte	0x1125
 4940 103e 30       		.uleb128 0x30
 4941 103f 61080000 		.4byte	.LASF149
 4942 1043 01       		.byte	0x1
 4943 1044 B301     		.2byte	0x1b3
 4944 1046 25110000 		.4byte	0x1125
 4945 104a 600B0000 		.4byte	.LLST54
ARM GAS  C:\Users\armst\AppData\Local\Temp\ccFg2asa.s 			page 106


 4946 104e 30       		.uleb128 0x30
 4947 104f 62010000 		.4byte	.LASF122
 4948 1053 01       		.byte	0x1
 4949 1054 B301     		.2byte	0x1b3
 4950 1056 E1000000 		.4byte	0xe1
 4951 105a 8C0B0000 		.4byte	.LLST55
 4952 105e 2C       		.uleb128 0x2c
 4953 105f F8070000 		.4byte	.LASF135
 4954 1063 01       		.byte	0x1
 4955 1064 B601     		.2byte	0x1b6
 4956 1066 A20C0000 		.4byte	0xca2
 4957 106a 02       		.uleb128 0x2
 4958 106b 91       		.byte	0x91
 4959 106c 68       		.sleb128 -24
 4960 106d 2C       		.uleb128 0x2c
 4961 106e 48030000 		.4byte	.LASF152
 4962 1072 01       		.byte	0x1
 4963 1073 B701     		.2byte	0x1b7
 4964 1075 7E000000 		.4byte	0x7e
 4965 1079 02       		.uleb128 0x2
 4966 107a 91       		.byte	0x91
 4967 107b 64       		.sleb128 -28
 4968 107c 2C       		.uleb128 0x2c
 4969 107d B4050000 		.4byte	.LASF153
 4970 1081 01       		.byte	0x1
 4971 1082 B801     		.2byte	0x1b8
 4972 1084 7E000000 		.4byte	0x7e
 4973 1088 02       		.uleb128 0x2
 4974 1089 91       		.byte	0x91
 4975 108a 60       		.sleb128 -32
 4976 108b 2D       		.uleb128 0x2d
 4977 108c 48000000 		.4byte	.LVL227
 4978 1090 4A070000 		.4byte	0x74a
 4979 1094 0B110000 		.4byte	0x110b
 4980 1098 27       		.uleb128 0x27
 4981 1099 01       		.uleb128 0x1
 4982 109a 50       		.byte	0x50
 4983 109b 03       		.uleb128 0x3
 4984 109c F3       		.byte	0xf3
 4985 109d 01       		.uleb128 0x1
 4986 109e 51       		.byte	0x51
 4987 109f 27       		.uleb128 0x27
 4988 10a0 01       		.uleb128 0x1
 4989 10a1 51       		.byte	0x51
 4990 10a2 05       		.uleb128 0x5
 4991 10a3 03       		.byte	0x3
 4992 10a4 44000000 		.4byte	.LC30
 4993 10a8 27       		.uleb128 0x27
 4994 10a9 01       		.uleb128 0x1
 4995 10aa 52       		.byte	0x52
 4996 10ab 02       		.uleb128 0x2
 4997 10ac 91       		.byte	0x91
 4998 10ad 68       		.sleb128 -24
 4999 10ae 27       		.uleb128 0x27
 5000 10af 01       		.uleb128 0x1
 5001 10b0 53       		.byte	0x53
 5002 10b1 02       		.uleb128 0x2
ARM GAS  C:\Users\armst\AppData\Local\Temp\ccFg2asa.s 			page 107


 5003 10b2 74       		.byte	0x74
 5004 10b3 00       		.sleb128 0
 5005 10b4 27       		.uleb128 0x27
 5006 10b5 02       		.uleb128 0x2
 5007 10b6 7D       		.byte	0x7d
 5008 10b7 00       		.sleb128 0
 5009 10b8 02       		.uleb128 0x2
 5010 10b9 74       		.byte	0x74
 5011 10ba 10       		.sleb128 16
 5012 10bb 27       		.uleb128 0x27
 5013 10bc 02       		.uleb128 0x2
 5014 10bd 7D       		.byte	0x7d
 5015 10be 04       		.sleb128 4
 5016 10bf 02       		.uleb128 0x2
 5017 10c0 91       		.byte	0x91
 5018 10c1 64       		.sleb128 -28
 5019 10c2 27       		.uleb128 0x27
 5020 10c3 02       		.uleb128 0x2
 5021 10c4 7D       		.byte	0x7d
 5022 10c5 08       		.sleb128 8
 5023 10c6 02       		.uleb128 0x2
 5024 10c7 74       		.byte	0x74
 5025 10c8 18       		.sleb128 24
 5026 10c9 27       		.uleb128 0x27
 5027 10ca 02       		.uleb128 0x2
 5028 10cb 7D       		.byte	0x7d
 5029 10cc 0C       		.sleb128 12
 5030 10cd 02       		.uleb128 0x2
 5031 10ce 91       		.byte	0x91
 5032 10cf 60       		.sleb128 -32
 5033 10d0 27       		.uleb128 0x27
 5034 10d1 02       		.uleb128 0x2
 5035 10d2 7D       		.byte	0x7d
 5036 10d3 10       		.sleb128 16
 5037 10d4 02       		.uleb128 0x2
 5038 10d5 74       		.byte	0x74
 5039 10d6 20       		.sleb128 32
 5040 10d7 27       		.uleb128 0x27
 5041 10d8 02       		.uleb128 0x2
 5042 10d9 7D       		.byte	0x7d
 5043 10da 14       		.sleb128 20
 5044 10db 02       		.uleb128 0x2
 5045 10dc 74       		.byte	0x74
 5046 10dd 24       		.sleb128 36
 5047 10de 27       		.uleb128 0x27
 5048 10df 02       		.uleb128 0x2
 5049 10e0 7D       		.byte	0x7d
 5050 10e1 18       		.sleb128 24
 5051 10e2 02       		.uleb128 0x2
 5052 10e3 74       		.byte	0x74
 5053 10e4 28       		.sleb128 40
 5054 10e5 27       		.uleb128 0x27
 5055 10e6 02       		.uleb128 0x2
 5056 10e7 7D       		.byte	0x7d
 5057 10e8 1C       		.sleb128 28
 5058 10e9 02       		.uleb128 0x2
 5059 10ea 74       		.byte	0x74
ARM GAS  C:\Users\armst\AppData\Local\Temp\ccFg2asa.s 			page 108


 5060 10eb 30       		.sleb128 48
 5061 10ec 27       		.uleb128 0x27
 5062 10ed 02       		.uleb128 0x2
 5063 10ee 7D       		.byte	0x7d
 5064 10ef 20       		.sleb128 32
 5065 10f0 02       		.uleb128 0x2
 5066 10f1 74       		.byte	0x74
 5067 10f2 38       		.sleb128 56
 5068 10f3 27       		.uleb128 0x27
 5069 10f4 02       		.uleb128 0x2
 5070 10f5 7D       		.byte	0x7d
 5071 10f6 24       		.sleb128 36
 5072 10f7 02       		.uleb128 0x2
 5073 10f8 74       		.byte	0x74
 5074 10f9 3C       		.sleb128 60
 5075 10fa 27       		.uleb128 0x27
 5076 10fb 02       		.uleb128 0x2
 5077 10fc 7D       		.byte	0x7d
 5078 10fd 28       		.sleb128 40
 5079 10fe 03       		.uleb128 0x3
 5080 10ff 74       		.byte	0x74
 5081 1100 C400     		.sleb128 68
 5082 1102 27       		.uleb128 0x27
 5083 1103 02       		.uleb128 0x2
 5084 1104 7D       		.byte	0x7d
 5085 1105 2C       		.sleb128 44
 5086 1106 03       		.uleb128 0x3
 5087 1107 74       		.byte	0x74
 5088 1108 C800     		.sleb128 72
 5089 110a 00       		.byte	0
 5090 110b 26       		.uleb128 0x26
 5091 110c 56000000 		.4byte	.LVL228
 5092 1110 CA170000 		.4byte	0x17ca
 5093 1114 27       		.uleb128 0x27
 5094 1115 01       		.uleb128 0x1
 5095 1116 50       		.byte	0x50
 5096 1117 02       		.uleb128 0x2
 5097 1118 91       		.byte	0x91
 5098 1119 6A       		.sleb128 -22
 5099 111a 27       		.uleb128 0x27
 5100 111b 01       		.uleb128 0x1
 5101 111c 51       		.byte	0x51
 5102 111d 05       		.uleb128 0x5
 5103 111e 03       		.byte	0x3
 5104 111f 08000000 		.4byte	.LC8
 5105 1123 00       		.byte	0
 5106 1124 00       		.byte	0
 5107 1125 08       		.uleb128 0x8
 5108 1126 04       		.byte	0x4
 5109 1127 39030000 		.4byte	0x339
 5110 112b 2F       		.uleb128 0x2f
 5111 112c F2050000 		.4byte	.LASF156
 5112 1130 01       		.byte	0x1
 5113 1131 CF01     		.2byte	0x1cf
 5114 1133 32030000 		.4byte	0x332
 5115 1137 00000000 		.4byte	.LFB13
 5116 113b 74000000 		.4byte	.LFE13-.LFB13
ARM GAS  C:\Users\armst\AppData\Local\Temp\ccFg2asa.s 			page 109


 5117 113f 01       		.uleb128 0x1
 5118 1140 9C       		.byte	0x9c
 5119 1141 59120000 		.4byte	0x1259
 5120 1145 30       		.uleb128 0x30
 5121 1146 61080000 		.4byte	.LASF149
 5122 114a 01       		.byte	0x1
 5123 114b CF01     		.2byte	0x1cf
 5124 114d 59120000 		.4byte	0x1259
 5125 1151 B80B0000 		.4byte	.LLST56
 5126 1155 30       		.uleb128 0x30
 5127 1156 62010000 		.4byte	.LASF122
 5128 115a 01       		.byte	0x1
 5129 115b CF01     		.2byte	0x1cf
 5130 115d E1000000 		.4byte	0xe1
 5131 1161 E40B0000 		.4byte	.LLST57
 5132 1165 2C       		.uleb128 0x2c
 5133 1166 F8070000 		.4byte	.LASF135
 5134 116a 01       		.byte	0x1
 5135 116b D201     		.2byte	0x1d2
 5136 116d A20C0000 		.4byte	0xca2
 5137 1171 02       		.uleb128 0x2
 5138 1172 91       		.byte	0x91
 5139 1173 70       		.sleb128 -16
 5140 1174 2D       		.uleb128 0x2d
 5141 1175 52000000 		.4byte	.LVL233
 5142 1179 4A070000 		.4byte	0x74a
 5143 117d 3F120000 		.4byte	0x123f
 5144 1181 27       		.uleb128 0x27
 5145 1182 01       		.uleb128 0x1
 5146 1183 50       		.byte	0x50
 5147 1184 03       		.uleb128 0x3
 5148 1185 F3       		.byte	0xf3
 5149 1186 01       		.uleb128 0x1
 5150 1187 51       		.byte	0x51
 5151 1188 27       		.uleb128 0x27
 5152 1189 01       		.uleb128 0x1
 5153 118a 51       		.byte	0x51
 5154 118b 05       		.uleb128 0x5
 5155 118c 03       		.byte	0x3
 5156 118d 54000000 		.4byte	.LC33
 5157 1191 27       		.uleb128 0x27
 5158 1192 01       		.uleb128 0x1
 5159 1193 52       		.byte	0x52
 5160 1194 02       		.uleb128 0x2
 5161 1195 91       		.byte	0x91
 5162 1196 70       		.sleb128 -16
 5163 1197 27       		.uleb128 0x27
 5164 1198 01       		.uleb128 0x1
 5165 1199 53       		.byte	0x53
 5166 119a 03       		.uleb128 0x3
 5167 119b F3       		.byte	0xf3
 5168 119c 01       		.uleb128 0x1
 5169 119d 50       		.byte	0x50
 5170 119e 27       		.uleb128 0x27
 5171 119f 02       		.uleb128 0x2
 5172 11a0 7D       		.byte	0x7d
 5173 11a1 00       		.sleb128 0
ARM GAS  C:\Users\armst\AppData\Local\Temp\ccFg2asa.s 			page 110


 5174 11a2 05       		.uleb128 0x5
 5175 11a3 F3       		.byte	0xf3
 5176 11a4 01       		.uleb128 0x1
 5177 11a5 50       		.byte	0x50
 5178 11a6 23       		.byte	0x23
 5179 11a7 04       		.uleb128 0x4
 5180 11a8 27       		.uleb128 0x27
 5181 11a9 02       		.uleb128 0x2
 5182 11aa 7D       		.byte	0x7d
 5183 11ab 04       		.sleb128 4
 5184 11ac 05       		.uleb128 0x5
 5185 11ad F3       		.byte	0xf3
 5186 11ae 01       		.uleb128 0x1
 5187 11af 50       		.byte	0x50
 5188 11b0 23       		.byte	0x23
 5189 11b1 08       		.uleb128 0x8
 5190 11b2 27       		.uleb128 0x27
 5191 11b3 02       		.uleb128 0x2
 5192 11b4 7D       		.byte	0x7d
 5193 11b5 08       		.sleb128 8
 5194 11b6 05       		.uleb128 0x5
 5195 11b7 F3       		.byte	0xf3
 5196 11b8 01       		.uleb128 0x1
 5197 11b9 50       		.byte	0x50
 5198 11ba 23       		.byte	0x23
 5199 11bb 0C       		.uleb128 0xc
 5200 11bc 27       		.uleb128 0x27
 5201 11bd 02       		.uleb128 0x2
 5202 11be 7D       		.byte	0x7d
 5203 11bf 0C       		.sleb128 12
 5204 11c0 05       		.uleb128 0x5
 5205 11c1 F3       		.byte	0xf3
 5206 11c2 01       		.uleb128 0x1
 5207 11c3 50       		.byte	0x50
 5208 11c4 23       		.byte	0x23
 5209 11c5 10       		.uleb128 0x10
 5210 11c6 27       		.uleb128 0x27
 5211 11c7 02       		.uleb128 0x2
 5212 11c8 7D       		.byte	0x7d
 5213 11c9 10       		.sleb128 16
 5214 11ca 05       		.uleb128 0x5
 5215 11cb F3       		.byte	0xf3
 5216 11cc 01       		.uleb128 0x1
 5217 11cd 50       		.byte	0x50
 5218 11ce 23       		.byte	0x23
 5219 11cf 14       		.uleb128 0x14
 5220 11d0 27       		.uleb128 0x27
 5221 11d1 02       		.uleb128 0x2
 5222 11d2 7D       		.byte	0x7d
 5223 11d3 14       		.sleb128 20
 5224 11d4 05       		.uleb128 0x5
 5225 11d5 F3       		.byte	0xf3
 5226 11d6 01       		.uleb128 0x1
 5227 11d7 50       		.byte	0x50
 5228 11d8 23       		.byte	0x23
 5229 11d9 18       		.uleb128 0x18
 5230 11da 27       		.uleb128 0x27
ARM GAS  C:\Users\armst\AppData\Local\Temp\ccFg2asa.s 			page 111


 5231 11db 02       		.uleb128 0x2
 5232 11dc 7D       		.byte	0x7d
 5233 11dd 18       		.sleb128 24
 5234 11de 05       		.uleb128 0x5
 5235 11df F3       		.byte	0xf3
 5236 11e0 01       		.uleb128 0x1
 5237 11e1 50       		.byte	0x50
 5238 11e2 23       		.byte	0x23
 5239 11e3 1C       		.uleb128 0x1c
 5240 11e4 27       		.uleb128 0x27
 5241 11e5 02       		.uleb128 0x2
 5242 11e6 7D       		.byte	0x7d
 5243 11e7 1C       		.sleb128 28
 5244 11e8 05       		.uleb128 0x5
 5245 11e9 F3       		.byte	0xf3
 5246 11ea 01       		.uleb128 0x1
 5247 11eb 50       		.byte	0x50
 5248 11ec 23       		.byte	0x23
 5249 11ed 20       		.uleb128 0x20
 5250 11ee 27       		.uleb128 0x27
 5251 11ef 02       		.uleb128 0x2
 5252 11f0 7D       		.byte	0x7d
 5253 11f1 20       		.sleb128 32
 5254 11f2 05       		.uleb128 0x5
 5255 11f3 F3       		.byte	0xf3
 5256 11f4 01       		.uleb128 0x1
 5257 11f5 50       		.byte	0x50
 5258 11f6 23       		.byte	0x23
 5259 11f7 24       		.uleb128 0x24
 5260 11f8 27       		.uleb128 0x27
 5261 11f9 02       		.uleb128 0x2
 5262 11fa 7D       		.byte	0x7d
 5263 11fb 24       		.sleb128 36
 5264 11fc 05       		.uleb128 0x5
 5265 11fd F3       		.byte	0xf3
 5266 11fe 01       		.uleb128 0x1
 5267 11ff 50       		.byte	0x50
 5268 1200 23       		.byte	0x23
 5269 1201 28       		.uleb128 0x28
 5270 1202 27       		.uleb128 0x27
 5271 1203 02       		.uleb128 0x2
 5272 1204 7D       		.byte	0x7d
 5273 1205 28       		.sleb128 40
 5274 1206 05       		.uleb128 0x5
 5275 1207 F3       		.byte	0xf3
 5276 1208 01       		.uleb128 0x1
 5277 1209 50       		.byte	0x50
 5278 120a 23       		.byte	0x23
 5279 120b 2C       		.uleb128 0x2c
 5280 120c 27       		.uleb128 0x27
 5281 120d 02       		.uleb128 0x2
 5282 120e 7D       		.byte	0x7d
 5283 120f 2C       		.sleb128 44
 5284 1210 05       		.uleb128 0x5
 5285 1211 F3       		.byte	0xf3
 5286 1212 01       		.uleb128 0x1
 5287 1213 50       		.byte	0x50
ARM GAS  C:\Users\armst\AppData\Local\Temp\ccFg2asa.s 			page 112


 5288 1214 23       		.byte	0x23
 5289 1215 30       		.uleb128 0x30
 5290 1216 27       		.uleb128 0x27
 5291 1217 02       		.uleb128 0x2
 5292 1218 7D       		.byte	0x7d
 5293 1219 30       		.sleb128 48
 5294 121a 05       		.uleb128 0x5
 5295 121b F3       		.byte	0xf3
 5296 121c 01       		.uleb128 0x1
 5297 121d 50       		.byte	0x50
 5298 121e 23       		.byte	0x23
 5299 121f 34       		.uleb128 0x34
 5300 1220 27       		.uleb128 0x27
 5301 1221 02       		.uleb128 0x2
 5302 1222 7D       		.byte	0x7d
 5303 1223 34       		.sleb128 52
 5304 1224 05       		.uleb128 0x5
 5305 1225 F3       		.byte	0xf3
 5306 1226 01       		.uleb128 0x1
 5307 1227 50       		.byte	0x50
 5308 1228 23       		.byte	0x23
 5309 1229 38       		.uleb128 0x38
 5310 122a 27       		.uleb128 0x27
 5311 122b 02       		.uleb128 0x2
 5312 122c 7D       		.byte	0x7d
 5313 122d 38       		.sleb128 56
 5314 122e 05       		.uleb128 0x5
 5315 122f F3       		.byte	0xf3
 5316 1230 01       		.uleb128 0x1
 5317 1231 50       		.byte	0x50
 5318 1232 23       		.byte	0x23
 5319 1233 40       		.uleb128 0x40
 5320 1234 27       		.uleb128 0x27
 5321 1235 02       		.uleb128 0x2
 5322 1236 7D       		.byte	0x7d
 5323 1237 3C       		.sleb128 60
 5324 1238 05       		.uleb128 0x5
 5325 1239 F3       		.byte	0xf3
 5326 123a 01       		.uleb128 0x1
 5327 123b 50       		.byte	0x50
 5328 123c 23       		.byte	0x23
 5329 123d 48       		.uleb128 0x48
 5330 123e 00       		.byte	0
 5331 123f 26       		.uleb128 0x26
 5332 1240 60000000 		.4byte	.LVL234
 5333 1244 CA170000 		.4byte	0x17ca
 5334 1248 27       		.uleb128 0x27
 5335 1249 01       		.uleb128 0x1
 5336 124a 50       		.byte	0x50
 5337 124b 02       		.uleb128 0x2
 5338 124c 91       		.byte	0x91
 5339 124d 72       		.sleb128 -14
 5340 124e 27       		.uleb128 0x27
 5341 124f 01       		.uleb128 0x1
 5342 1250 51       		.byte	0x51
 5343 1251 05       		.uleb128 0x5
 5344 1252 03       		.byte	0x3
ARM GAS  C:\Users\armst\AppData\Local\Temp\ccFg2asa.s 			page 113


 5345 1253 10000000 		.4byte	.LC12
 5346 1257 00       		.byte	0
 5347 1258 00       		.byte	0
 5348 1259 08       		.uleb128 0x8
 5349 125a 04       		.byte	0x4
 5350 125b BB040000 		.4byte	0x4bb
 5351 125f 2F       		.uleb128 0x2f
 5352 1260 FA000000 		.4byte	.LASF157
 5353 1264 01       		.byte	0x1
 5354 1265 EE01     		.2byte	0x1ee
 5355 1267 32030000 		.4byte	0x332
 5356 126b 00000000 		.4byte	.LFB14
 5357 126f 64000000 		.4byte	.LFE14-.LFB14
 5358 1273 01       		.uleb128 0x1
 5359 1274 9C       		.byte	0x9c
 5360 1275 34130000 		.4byte	0x1334
 5361 1279 30       		.uleb128 0x30
 5362 127a 61080000 		.4byte	.LASF149
 5363 127e 01       		.byte	0x1
 5364 127f EE01     		.2byte	0x1ee
 5365 1281 34130000 		.4byte	0x1334
 5366 1285 100C0000 		.4byte	.LLST58
 5367 1289 30       		.uleb128 0x30
 5368 128a 62010000 		.4byte	.LASF122
 5369 128e 01       		.byte	0x1
 5370 128f EE01     		.2byte	0x1ee
 5371 1291 E1000000 		.4byte	0xe1
 5372 1295 3C0C0000 		.4byte	.LLST59
 5373 1299 2C       		.uleb128 0x2c
 5374 129a F8070000 		.4byte	.LASF135
 5375 129e 01       		.byte	0x1
 5376 129f F101     		.2byte	0x1f1
 5377 12a1 A20C0000 		.4byte	0xca2
 5378 12a5 02       		.uleb128 0x2
 5379 12a6 91       		.byte	0x91
 5380 12a7 68       		.sleb128 -24
 5381 12a8 2C       		.uleb128 0x2c
 5382 12a9 48030000 		.4byte	.LASF152
 5383 12ad 01       		.byte	0x1
 5384 12ae F201     		.2byte	0x1f2
 5385 12b0 7E000000 		.4byte	0x7e
 5386 12b4 02       		.uleb128 0x2
 5387 12b5 91       		.byte	0x91
 5388 12b6 64       		.sleb128 -28
 5389 12b7 2C       		.uleb128 0x2c
 5390 12b8 B4050000 		.4byte	.LASF153
 5391 12bc 01       		.byte	0x1
 5392 12bd F301     		.2byte	0x1f3
 5393 12bf 7E000000 		.4byte	0x7e
 5394 12c3 02       		.uleb128 0x2
 5395 12c4 91       		.byte	0x91
 5396 12c5 60       		.sleb128 -32
 5397 12c6 2D       		.uleb128 0x2d
 5398 12c7 2E000000 		.4byte	.LVL238
 5399 12cb 4A070000 		.4byte	0x74a
 5400 12cf 1A130000 		.4byte	0x131a
 5401 12d3 27       		.uleb128 0x27
ARM GAS  C:\Users\armst\AppData\Local\Temp\ccFg2asa.s 			page 114


 5402 12d4 01       		.uleb128 0x1
 5403 12d5 50       		.byte	0x50
 5404 12d6 03       		.uleb128 0x3
 5405 12d7 F3       		.byte	0xf3
 5406 12d8 01       		.uleb128 0x1
 5407 12d9 51       		.byte	0x51
 5408 12da 27       		.uleb128 0x27
 5409 12db 01       		.uleb128 0x1
 5410 12dc 51       		.byte	0x51
 5411 12dd 05       		.uleb128 0x5
 5412 12de 03       		.byte	0x3
 5413 12df 68000000 		.4byte	.LC36
 5414 12e3 27       		.uleb128 0x27
 5415 12e4 01       		.uleb128 0x1
 5416 12e5 52       		.byte	0x52
 5417 12e6 02       		.uleb128 0x2
 5418 12e7 91       		.byte	0x91
 5419 12e8 68       		.sleb128 -24
 5420 12e9 27       		.uleb128 0x27
 5421 12ea 01       		.uleb128 0x1
 5422 12eb 53       		.byte	0x53
 5423 12ec 02       		.uleb128 0x2
 5424 12ed 74       		.byte	0x74
 5425 12ee 00       		.sleb128 0
 5426 12ef 27       		.uleb128 0x27
 5427 12f0 02       		.uleb128 0x2
 5428 12f1 7D       		.byte	0x7d
 5429 12f2 00       		.sleb128 0
 5430 12f3 02       		.uleb128 0x2
 5431 12f4 91       		.byte	0x91
 5432 12f5 64       		.sleb128 -28
 5433 12f6 27       		.uleb128 0x27
 5434 12f7 02       		.uleb128 0x2
 5435 12f8 7D       		.byte	0x7d
 5436 12f9 04       		.sleb128 4
 5437 12fa 02       		.uleb128 0x2
 5438 12fb 74       		.byte	0x74
 5439 12fc 08       		.sleb128 8
 5440 12fd 27       		.uleb128 0x27
 5441 12fe 02       		.uleb128 0x2
 5442 12ff 7D       		.byte	0x7d
 5443 1300 08       		.sleb128 8
 5444 1301 02       		.uleb128 0x2
 5445 1302 91       		.byte	0x91
 5446 1303 60       		.sleb128 -32
 5447 1304 27       		.uleb128 0x27
 5448 1305 02       		.uleb128 0x2
 5449 1306 7D       		.byte	0x7d
 5450 1307 0C       		.sleb128 12
 5451 1308 02       		.uleb128 0x2
 5452 1309 74       		.byte	0x74
 5453 130a 10       		.sleb128 16
 5454 130b 27       		.uleb128 0x27
 5455 130c 02       		.uleb128 0x2
 5456 130d 7D       		.byte	0x7d
 5457 130e 10       		.sleb128 16
 5458 130f 02       		.uleb128 0x2
ARM GAS  C:\Users\armst\AppData\Local\Temp\ccFg2asa.s 			page 115


 5459 1310 74       		.byte	0x74
 5460 1311 20       		.sleb128 32
 5461 1312 27       		.uleb128 0x27
 5462 1313 02       		.uleb128 0x2
 5463 1314 7D       		.byte	0x7d
 5464 1315 14       		.sleb128 20
 5465 1316 02       		.uleb128 0x2
 5466 1317 74       		.byte	0x74
 5467 1318 21       		.sleb128 33
 5468 1319 00       		.byte	0
 5469 131a 26       		.uleb128 0x26
 5470 131b 3C000000 		.4byte	.LVL239
 5471 131f CA170000 		.4byte	0x17ca
 5472 1323 27       		.uleb128 0x27
 5473 1324 01       		.uleb128 0x1
 5474 1325 50       		.byte	0x50
 5475 1326 02       		.uleb128 0x2
 5476 1327 91       		.byte	0x91
 5477 1328 6A       		.sleb128 -22
 5478 1329 27       		.uleb128 0x27
 5479 132a 01       		.uleb128 0x1
 5480 132b 51       		.byte	0x51
 5481 132c 05       		.uleb128 0x5
 5482 132d 03       		.byte	0x3
 5483 132e 0C000000 		.4byte	.LC10
 5484 1332 00       		.byte	0
 5485 1333 00       		.byte	0
 5486 1334 08       		.uleb128 0x8
 5487 1335 04       		.byte	0x4
 5488 1336 05040000 		.4byte	0x405
 5489 133a 2F       		.uleb128 0x2f
 5490 133b 29060000 		.4byte	.LASF158
 5491 133f 01       		.byte	0x1
 5492 1340 0602     		.2byte	0x206
 5493 1342 32030000 		.4byte	0x332
 5494 1346 00000000 		.4byte	.LFB15
 5495 134a 50000000 		.4byte	.LFE15-.LFB15
 5496 134e 01       		.uleb128 0x1
 5497 134f 9C       		.byte	0x9c
 5498 1350 0E140000 		.4byte	0x140e
 5499 1354 30       		.uleb128 0x30
 5500 1355 61080000 		.4byte	.LASF149
 5501 1359 01       		.byte	0x1
 5502 135a 0602     		.2byte	0x206
 5503 135c 0E140000 		.4byte	0x140e
 5504 1360 680C0000 		.4byte	.LLST60
 5505 1364 30       		.uleb128 0x30
 5506 1365 62010000 		.4byte	.LASF122
 5507 1369 01       		.byte	0x1
 5508 136a 0602     		.2byte	0x206
 5509 136c E1000000 		.4byte	0xe1
 5510 1370 940C0000 		.4byte	.LLST61
 5511 1374 2C       		.uleb128 0x2c
 5512 1375 F8070000 		.4byte	.LASF135
 5513 1379 01       		.byte	0x1
 5514 137a 0902     		.2byte	0x209
 5515 137c A20C0000 		.4byte	0xca2
ARM GAS  C:\Users\armst\AppData\Local\Temp\ccFg2asa.s 			page 116


 5516 1380 02       		.uleb128 0x2
 5517 1381 91       		.byte	0x91
 5518 1382 70       		.sleb128 -16
 5519 1383 2D       		.uleb128 0x2d
 5520 1384 2E000000 		.4byte	.LVL244
 5521 1388 4A070000 		.4byte	0x74a
 5522 138c F4130000 		.4byte	0x13f4
 5523 1390 27       		.uleb128 0x27
 5524 1391 01       		.uleb128 0x1
 5525 1392 50       		.byte	0x50
 5526 1393 03       		.uleb128 0x3
 5527 1394 F3       		.byte	0xf3
 5528 1395 01       		.uleb128 0x1
 5529 1396 51       		.byte	0x51
 5530 1397 27       		.uleb128 0x27
 5531 1398 01       		.uleb128 0x1
 5532 1399 51       		.byte	0x51
 5533 139a 05       		.uleb128 0x5
 5534 139b 03       		.byte	0x3
 5535 139c 74000000 		.4byte	.LC39
 5536 13a0 27       		.uleb128 0x27
 5537 13a1 01       		.uleb128 0x1
 5538 13a2 52       		.byte	0x52
 5539 13a3 02       		.uleb128 0x2
 5540 13a4 91       		.byte	0x91
 5541 13a5 70       		.sleb128 -16
 5542 13a6 27       		.uleb128 0x27
 5543 13a7 01       		.uleb128 0x1
 5544 13a8 53       		.byte	0x53
 5545 13a9 03       		.uleb128 0x3
 5546 13aa F3       		.byte	0xf3
 5547 13ab 01       		.uleb128 0x1
 5548 13ac 50       		.byte	0x50
 5549 13ad 27       		.uleb128 0x27
 5550 13ae 02       		.uleb128 0x2
 5551 13af 7D       		.byte	0x7d
 5552 13b0 00       		.sleb128 0
 5553 13b1 05       		.uleb128 0x5
 5554 13b2 F3       		.byte	0xf3
 5555 13b3 01       		.uleb128 0x1
 5556 13b4 50       		.byte	0x50
 5557 13b5 23       		.byte	0x23
 5558 13b6 10       		.uleb128 0x10
 5559 13b7 27       		.uleb128 0x27
 5560 13b8 02       		.uleb128 0x2
 5561 13b9 7D       		.byte	0x7d
 5562 13ba 04       		.sleb128 4
 5563 13bb 05       		.uleb128 0x5
 5564 13bc F3       		.byte	0xf3
 5565 13bd 01       		.uleb128 0x1
 5566 13be 50       		.byte	0x50
 5567 13bf 23       		.byte	0x23
 5568 13c0 18       		.uleb128 0x18
 5569 13c1 27       		.uleb128 0x27
 5570 13c2 02       		.uleb128 0x2
 5571 13c3 7D       		.byte	0x7d
 5572 13c4 08       		.sleb128 8
ARM GAS  C:\Users\armst\AppData\Local\Temp\ccFg2asa.s 			page 117


 5573 13c5 05       		.uleb128 0x5
 5574 13c6 F3       		.byte	0xf3
 5575 13c7 01       		.uleb128 0x1
 5576 13c8 50       		.byte	0x50
 5577 13c9 23       		.byte	0x23
 5578 13ca 20       		.uleb128 0x20
 5579 13cb 27       		.uleb128 0x27
 5580 13cc 02       		.uleb128 0x2
 5581 13cd 7D       		.byte	0x7d
 5582 13ce 0C       		.sleb128 12
 5583 13cf 05       		.uleb128 0x5
 5584 13d0 F3       		.byte	0xf3
 5585 13d1 01       		.uleb128 0x1
 5586 13d2 50       		.byte	0x50
 5587 13d3 23       		.byte	0x23
 5588 13d4 28       		.uleb128 0x28
 5589 13d5 27       		.uleb128 0x27
 5590 13d6 02       		.uleb128 0x2
 5591 13d7 7D       		.byte	0x7d
 5592 13d8 10       		.sleb128 16
 5593 13d9 05       		.uleb128 0x5
 5594 13da F3       		.byte	0xf3
 5595 13db 01       		.uleb128 0x1
 5596 13dc 50       		.byte	0x50
 5597 13dd 23       		.byte	0x23
 5598 13de 30       		.uleb128 0x30
 5599 13df 27       		.uleb128 0x27
 5600 13e0 02       		.uleb128 0x2
 5601 13e1 7D       		.byte	0x7d
 5602 13e2 14       		.sleb128 20
 5603 13e3 05       		.uleb128 0x5
 5604 13e4 F3       		.byte	0xf3
 5605 13e5 01       		.uleb128 0x1
 5606 13e6 50       		.byte	0x50
 5607 13e7 23       		.byte	0x23
 5608 13e8 38       		.uleb128 0x38
 5609 13e9 27       		.uleb128 0x27
 5610 13ea 02       		.uleb128 0x2
 5611 13eb 7D       		.byte	0x7d
 5612 13ec 18       		.sleb128 24
 5613 13ed 05       		.uleb128 0x5
 5614 13ee F3       		.byte	0xf3
 5615 13ef 01       		.uleb128 0x1
 5616 13f0 50       		.byte	0x50
 5617 13f1 23       		.byte	0x23
 5618 13f2 40       		.uleb128 0x40
 5619 13f3 00       		.byte	0
 5620 13f4 26       		.uleb128 0x26
 5621 13f5 3C000000 		.4byte	.LVL245
 5622 13f9 CA170000 		.4byte	0x17ca
 5623 13fd 27       		.uleb128 0x27
 5624 13fe 01       		.uleb128 0x1
 5625 13ff 50       		.byte	0x50
 5626 1400 02       		.uleb128 0x2
 5627 1401 91       		.byte	0x91
 5628 1402 72       		.sleb128 -14
 5629 1403 27       		.uleb128 0x27
ARM GAS  C:\Users\armst\AppData\Local\Temp\ccFg2asa.s 			page 118


 5630 1404 01       		.uleb128 0x1
 5631 1405 51       		.byte	0x51
 5632 1406 05       		.uleb128 0x5
 5633 1407 03       		.byte	0x3
 5634 1408 14000000 		.4byte	.LC14
 5635 140c 00       		.byte	0
 5636 140d 00       		.byte	0
 5637 140e 08       		.uleb128 0x8
 5638 140f 04       		.byte	0x4
 5639 1410 4E040000 		.4byte	0x44e
 5640 1414 2F       		.uleb128 0x2f
 5641 1415 3A060000 		.4byte	.LASF159
 5642 1419 01       		.byte	0x1
 5643 141a 1C02     		.2byte	0x21c
 5644 141c 32030000 		.4byte	0x332
 5645 1420 00000000 		.4byte	.LFB16
 5646 1424 7C000000 		.4byte	.LFE16-.LFB16
 5647 1428 01       		.uleb128 0x1
 5648 1429 9C       		.byte	0x9c
 5649 142a 58150000 		.4byte	0x1558
 5650 142e 30       		.uleb128 0x30
 5651 142f 61080000 		.4byte	.LASF149
 5652 1433 01       		.byte	0x1
 5653 1434 1C02     		.2byte	0x21c
 5654 1436 58150000 		.4byte	0x1558
 5655 143a C00C0000 		.4byte	.LLST62
 5656 143e 30       		.uleb128 0x30
 5657 143f 62010000 		.4byte	.LASF122
 5658 1443 01       		.byte	0x1
 5659 1444 1C02     		.2byte	0x21c
 5660 1446 E1000000 		.4byte	0xe1
 5661 144a EC0C0000 		.4byte	.LLST63
 5662 144e 2C       		.uleb128 0x2c
 5663 144f F8070000 		.4byte	.LASF135
 5664 1453 01       		.byte	0x1
 5665 1454 2302     		.2byte	0x223
 5666 1456 A20C0000 		.4byte	0xca2
 5667 145a 02       		.uleb128 0x2
 5668 145b 91       		.byte	0x91
 5669 145c 70       		.sleb128 -16
 5670 145d 2D       		.uleb128 0x2d
 5671 145e 5A000000 		.4byte	.LVL249
 5672 1462 4A070000 		.4byte	0x74a
 5673 1466 3E150000 		.4byte	0x153e
 5674 146a 27       		.uleb128 0x27
 5675 146b 01       		.uleb128 0x1
 5676 146c 50       		.byte	0x50
 5677 146d 03       		.uleb128 0x3
 5678 146e F3       		.byte	0xf3
 5679 146f 01       		.uleb128 0x1
 5680 1470 51       		.byte	0x51
 5681 1471 27       		.uleb128 0x27
 5682 1472 01       		.uleb128 0x1
 5683 1473 51       		.byte	0x51
 5684 1474 05       		.uleb128 0x5
 5685 1475 03       		.byte	0x3
 5686 1476 80000000 		.4byte	.LC42
ARM GAS  C:\Users\armst\AppData\Local\Temp\ccFg2asa.s 			page 119


 5687 147a 27       		.uleb128 0x27
 5688 147b 01       		.uleb128 0x1
 5689 147c 52       		.byte	0x52
 5690 147d 02       		.uleb128 0x2
 5691 147e 91       		.byte	0x91
 5692 147f 70       		.sleb128 -16
 5693 1480 27       		.uleb128 0x27
 5694 1481 01       		.uleb128 0x1
 5695 1482 53       		.byte	0x53
 5696 1483 03       		.uleb128 0x3
 5697 1484 F3       		.byte	0xf3
 5698 1485 01       		.uleb128 0x1
 5699 1486 50       		.byte	0x50
 5700 1487 27       		.uleb128 0x27
 5701 1488 02       		.uleb128 0x2
 5702 1489 7D       		.byte	0x7d
 5703 148a 00       		.sleb128 0
 5704 148b 05       		.uleb128 0x5
 5705 148c F3       		.byte	0xf3
 5706 148d 01       		.uleb128 0x1
 5707 148e 50       		.byte	0x50
 5708 148f 23       		.byte	0x23
 5709 1490 04       		.uleb128 0x4
 5710 1491 27       		.uleb128 0x27
 5711 1492 02       		.uleb128 0x2
 5712 1493 7D       		.byte	0x7d
 5713 1494 04       		.sleb128 4
 5714 1495 05       		.uleb128 0x5
 5715 1496 F3       		.byte	0xf3
 5716 1497 01       		.uleb128 0x1
 5717 1498 50       		.byte	0x50
 5718 1499 23       		.byte	0x23
 5719 149a 08       		.uleb128 0x8
 5720 149b 27       		.uleb128 0x27
 5721 149c 02       		.uleb128 0x2
 5722 149d 7D       		.byte	0x7d
 5723 149e 08       		.sleb128 8
 5724 149f 05       		.uleb128 0x5
 5725 14a0 F3       		.byte	0xf3
 5726 14a1 01       		.uleb128 0x1
 5727 14a2 50       		.byte	0x50
 5728 14a3 23       		.byte	0x23
 5729 14a4 0C       		.uleb128 0xc
 5730 14a5 27       		.uleb128 0x27
 5731 14a6 02       		.uleb128 0x2
 5732 14a7 7D       		.byte	0x7d
 5733 14a8 0C       		.sleb128 12
 5734 14a9 05       		.uleb128 0x5
 5735 14aa F3       		.byte	0xf3
 5736 14ab 01       		.uleb128 0x1
 5737 14ac 50       		.byte	0x50
 5738 14ad 23       		.byte	0x23
 5739 14ae 10       		.uleb128 0x10
 5740 14af 27       		.uleb128 0x27
 5741 14b0 02       		.uleb128 0x2
 5742 14b1 7D       		.byte	0x7d
 5743 14b2 10       		.sleb128 16
ARM GAS  C:\Users\armst\AppData\Local\Temp\ccFg2asa.s 			page 120


 5744 14b3 05       		.uleb128 0x5
 5745 14b4 F3       		.byte	0xf3
 5746 14b5 01       		.uleb128 0x1
 5747 14b6 50       		.byte	0x50
 5748 14b7 23       		.byte	0x23
 5749 14b8 14       		.uleb128 0x14
 5750 14b9 27       		.uleb128 0x27
 5751 14ba 02       		.uleb128 0x2
 5752 14bb 7D       		.byte	0x7d
 5753 14bc 14       		.sleb128 20
 5754 14bd 05       		.uleb128 0x5
 5755 14be F3       		.byte	0xf3
 5756 14bf 01       		.uleb128 0x1
 5757 14c0 50       		.byte	0x50
 5758 14c1 23       		.byte	0x23
 5759 14c2 18       		.uleb128 0x18
 5760 14c3 27       		.uleb128 0x27
 5761 14c4 02       		.uleb128 0x2
 5762 14c5 7D       		.byte	0x7d
 5763 14c6 18       		.sleb128 24
 5764 14c7 05       		.uleb128 0x5
 5765 14c8 F3       		.byte	0xf3
 5766 14c9 01       		.uleb128 0x1
 5767 14ca 50       		.byte	0x50
 5768 14cb 23       		.byte	0x23
 5769 14cc 1C       		.uleb128 0x1c
 5770 14cd 27       		.uleb128 0x27
 5771 14ce 02       		.uleb128 0x2
 5772 14cf 7D       		.byte	0x7d
 5773 14d0 1C       		.sleb128 28
 5774 14d1 05       		.uleb128 0x5
 5775 14d2 F3       		.byte	0xf3
 5776 14d3 01       		.uleb128 0x1
 5777 14d4 50       		.byte	0x50
 5778 14d5 23       		.byte	0x23
 5779 14d6 20       		.uleb128 0x20
 5780 14d7 27       		.uleb128 0x27
 5781 14d8 02       		.uleb128 0x2
 5782 14d9 7D       		.byte	0x7d
 5783 14da 20       		.sleb128 32
 5784 14db 05       		.uleb128 0x5
 5785 14dc F3       		.byte	0xf3
 5786 14dd 01       		.uleb128 0x1
 5787 14de 50       		.byte	0x50
 5788 14df 23       		.byte	0x23
 5789 14e0 24       		.uleb128 0x24
 5790 14e1 27       		.uleb128 0x27
 5791 14e2 02       		.uleb128 0x2
 5792 14e3 7D       		.byte	0x7d
 5793 14e4 24       		.sleb128 36
 5794 14e5 05       		.uleb128 0x5
 5795 14e6 F3       		.byte	0xf3
 5796 14e7 01       		.uleb128 0x1
 5797 14e8 50       		.byte	0x50
 5798 14e9 23       		.byte	0x23
 5799 14ea 28       		.uleb128 0x28
 5800 14eb 27       		.uleb128 0x27
ARM GAS  C:\Users\armst\AppData\Local\Temp\ccFg2asa.s 			page 121


 5801 14ec 02       		.uleb128 0x2
 5802 14ed 7D       		.byte	0x7d
 5803 14ee 28       		.sleb128 40
 5804 14ef 05       		.uleb128 0x5
 5805 14f0 F3       		.byte	0xf3
 5806 14f1 01       		.uleb128 0x1
 5807 14f2 50       		.byte	0x50
 5808 14f3 23       		.byte	0x23
 5809 14f4 2C       		.uleb128 0x2c
 5810 14f5 27       		.uleb128 0x27
 5811 14f6 02       		.uleb128 0x2
 5812 14f7 7D       		.byte	0x7d
 5813 14f8 2C       		.sleb128 44
 5814 14f9 05       		.uleb128 0x5
 5815 14fa F3       		.byte	0xf3
 5816 14fb 01       		.uleb128 0x1
 5817 14fc 50       		.byte	0x50
 5818 14fd 23       		.byte	0x23
 5819 14fe 30       		.uleb128 0x30
 5820 14ff 27       		.uleb128 0x27
 5821 1500 02       		.uleb128 0x2
 5822 1501 7D       		.byte	0x7d
 5823 1502 30       		.sleb128 48
 5824 1503 05       		.uleb128 0x5
 5825 1504 F3       		.byte	0xf3
 5826 1505 01       		.uleb128 0x1
 5827 1506 50       		.byte	0x50
 5828 1507 23       		.byte	0x23
 5829 1508 34       		.uleb128 0x34
 5830 1509 27       		.uleb128 0x27
 5831 150a 02       		.uleb128 0x2
 5832 150b 7D       		.byte	0x7d
 5833 150c 34       		.sleb128 52
 5834 150d 05       		.uleb128 0x5
 5835 150e F3       		.byte	0xf3
 5836 150f 01       		.uleb128 0x1
 5837 1510 50       		.byte	0x50
 5838 1511 23       		.byte	0x23
 5839 1512 38       		.uleb128 0x38
 5840 1513 27       		.uleb128 0x27
 5841 1514 02       		.uleb128 0x2
 5842 1515 7D       		.byte	0x7d
 5843 1516 38       		.sleb128 56
 5844 1517 05       		.uleb128 0x5
 5845 1518 F3       		.byte	0xf3
 5846 1519 01       		.uleb128 0x1
 5847 151a 50       		.byte	0x50
 5848 151b 23       		.byte	0x23
 5849 151c 3C       		.uleb128 0x3c
 5850 151d 27       		.uleb128 0x27
 5851 151e 02       		.uleb128 0x2
 5852 151f 7D       		.byte	0x7d
 5853 1520 3C       		.sleb128 60
 5854 1521 05       		.uleb128 0x5
 5855 1522 F3       		.byte	0xf3
 5856 1523 01       		.uleb128 0x1
 5857 1524 50       		.byte	0x50
ARM GAS  C:\Users\armst\AppData\Local\Temp\ccFg2asa.s 			page 122


 5858 1525 23       		.byte	0x23
 5859 1526 40       		.uleb128 0x40
 5860 1527 27       		.uleb128 0x27
 5861 1528 03       		.uleb128 0x3
 5862 1529 7D       		.byte	0x7d
 5863 152a C000     		.sleb128 64
 5864 152c 05       		.uleb128 0x5
 5865 152d F3       		.byte	0xf3
 5866 152e 01       		.uleb128 0x1
 5867 152f 50       		.byte	0x50
 5868 1530 23       		.byte	0x23
 5869 1531 44       		.uleb128 0x44
 5870 1532 27       		.uleb128 0x27
 5871 1533 03       		.uleb128 0x3
 5872 1534 7D       		.byte	0x7d
 5873 1535 C400     		.sleb128 68
 5874 1537 05       		.uleb128 0x5
 5875 1538 F3       		.byte	0xf3
 5876 1539 01       		.uleb128 0x1
 5877 153a 50       		.byte	0x50
 5878 153b 23       		.byte	0x23
 5879 153c 48       		.uleb128 0x48
 5880 153d 00       		.byte	0
 5881 153e 26       		.uleb128 0x26
 5882 153f 68000000 		.4byte	.LVL250
 5883 1543 CA170000 		.4byte	0x17ca
 5884 1547 27       		.uleb128 0x27
 5885 1548 01       		.uleb128 0x1
 5886 1549 50       		.byte	0x50
 5887 154a 02       		.uleb128 0x2
 5888 154b 91       		.byte	0x91
 5889 154c 72       		.sleb128 -14
 5890 154d 27       		.uleb128 0x27
 5891 154e 01       		.uleb128 0x1
 5892 154f 51       		.byte	0x51
 5893 1550 05       		.uleb128 0x5
 5894 1551 03       		.byte	0x3
 5895 1552 18000000 		.4byte	.LC16
 5896 1556 00       		.byte	0
 5897 1557 00       		.byte	0
 5898 1558 08       		.uleb128 0x8
 5899 1559 04       		.byte	0x4
 5900 155a 5C050000 		.4byte	0x55c
 5901 155e 2F       		.uleb128 0x2f
 5902 155f 4B060000 		.4byte	.LASF160
 5903 1563 01       		.byte	0x1
 5904 1564 4302     		.2byte	0x243
 5905 1566 32030000 		.4byte	0x332
 5906 156a 00000000 		.4byte	.LFB17
 5907 156e A4000000 		.4byte	.LFE17-.LFB17
 5908 1572 01       		.uleb128 0x1
 5909 1573 9C       		.byte	0x9c
 5910 1574 6E160000 		.4byte	0x166e
 5911 1578 30       		.uleb128 0x30
 5912 1579 61080000 		.4byte	.LASF149
 5913 157d 01       		.byte	0x1
 5914 157e 4302     		.2byte	0x243
ARM GAS  C:\Users\armst\AppData\Local\Temp\ccFg2asa.s 			page 123


 5915 1580 6E160000 		.4byte	0x166e
 5916 1584 180D0000 		.4byte	.LLST64
 5917 1588 30       		.uleb128 0x30
 5918 1589 62010000 		.4byte	.LASF122
 5919 158d 01       		.byte	0x1
 5920 158e 4302     		.2byte	0x243
 5921 1590 E1000000 		.4byte	0xe1
 5922 1594 440D0000 		.4byte	.LLST65
 5923 1598 2C       		.uleb128 0x2c
 5924 1599 F8070000 		.4byte	.LASF135
 5925 159d 01       		.byte	0x1
 5926 159e 4902     		.2byte	0x249
 5927 15a0 A20C0000 		.4byte	0xca2
 5928 15a4 02       		.uleb128 0x2
 5929 15a5 91       		.byte	0x91
 5930 15a6 68       		.sleb128 -24
 5931 15a7 2C       		.uleb128 0x2c
 5932 15a8 81020000 		.4byte	.LASF161
 5933 15ac 01       		.byte	0x1
 5934 15ad 4A02     		.2byte	0x24a
 5935 15af DA000000 		.4byte	0xda
 5936 15b3 02       		.uleb128 0x2
 5937 15b4 91       		.byte	0x91
 5938 15b5 67       		.sleb128 -25
 5939 15b6 2C       		.uleb128 0x2c
 5940 15b7 D6080000 		.4byte	.LASF162
 5941 15bb 01       		.byte	0x1
 5942 15bc 4A02     		.2byte	0x24a
 5943 15be DA000000 		.4byte	0xda
 5944 15c2 02       		.uleb128 0x2
 5945 15c3 91       		.byte	0x91
 5946 15c4 66       		.sleb128 -26
 5947 15c5 2C       		.uleb128 0x2c
 5948 15c6 A8000000 		.4byte	.LASF163
 5949 15ca 01       		.byte	0x1
 5950 15cb 4A02     		.2byte	0x24a
 5951 15cd DA000000 		.4byte	0xda
 5952 15d1 02       		.uleb128 0x2
 5953 15d2 91       		.byte	0x91
 5954 15d3 65       		.sleb128 -27
 5955 15d4 2C       		.uleb128 0x2c
 5956 15d5 F4000000 		.4byte	.LASF164
 5957 15d9 01       		.byte	0x1
 5958 15da 4A02     		.2byte	0x24a
 5959 15dc DA000000 		.4byte	0xda
 5960 15e0 02       		.uleb128 0x2
 5961 15e1 91       		.byte	0x91
 5962 15e2 64       		.sleb128 -28
 5963 15e3 2C       		.uleb128 0x2c
 5964 15e4 67030000 		.4byte	.LASF165
 5965 15e8 01       		.byte	0x1
 5966 15e9 4A02     		.2byte	0x24a
 5967 15eb DA000000 		.4byte	0xda
 5968 15ef 02       		.uleb128 0x2
 5969 15f0 91       		.byte	0x91
 5970 15f1 63       		.sleb128 -29
 5971 15f2 2D       		.uleb128 0x2d
ARM GAS  C:\Users\armst\AppData\Local\Temp\ccFg2asa.s 			page 124


 5972 15f3 40000000 		.4byte	.LVL254
 5973 15f7 4A070000 		.4byte	0x74a
 5974 15fb 54160000 		.4byte	0x1654
 5975 15ff 27       		.uleb128 0x27
 5976 1600 01       		.uleb128 0x1
 5977 1601 50       		.byte	0x50
 5978 1602 03       		.uleb128 0x3
 5979 1603 F3       		.byte	0xf3
 5980 1604 01       		.uleb128 0x1
 5981 1605 51       		.byte	0x51
 5982 1606 27       		.uleb128 0x27
 5983 1607 01       		.uleb128 0x1
 5984 1608 51       		.byte	0x51
 5985 1609 05       		.uleb128 0x5
 5986 160a 03       		.byte	0x3
 5987 160b 98000000 		.4byte	.LC45
 5988 160f 27       		.uleb128 0x27
 5989 1610 01       		.uleb128 0x1
 5990 1611 52       		.byte	0x52
 5991 1612 02       		.uleb128 0x2
 5992 1613 91       		.byte	0x91
 5993 1614 68       		.sleb128 -24
 5994 1615 27       		.uleb128 0x27
 5995 1616 01       		.uleb128 0x1
 5996 1617 53       		.byte	0x53
 5997 1618 02       		.uleb128 0x2
 5998 1619 74       		.byte	0x74
 5999 161a 00       		.sleb128 0
 6000 161b 27       		.uleb128 0x27
 6001 161c 02       		.uleb128 0x2
 6002 161d 7D       		.byte	0x7d
 6003 161e 00       		.sleb128 0
 6004 161f 02       		.uleb128 0x2
 6005 1620 91       		.byte	0x91
 6006 1621 67       		.sleb128 -25
 6007 1622 27       		.uleb128 0x27
 6008 1623 02       		.uleb128 0x2
 6009 1624 7D       		.byte	0x7d
 6010 1625 04       		.sleb128 4
 6011 1626 02       		.uleb128 0x2
 6012 1627 74       		.byte	0x74
 6013 1628 08       		.sleb128 8
 6014 1629 27       		.uleb128 0x27
 6015 162a 02       		.uleb128 0x2
 6016 162b 7D       		.byte	0x7d
 6017 162c 08       		.sleb128 8
 6018 162d 02       		.uleb128 0x2
 6019 162e 91       		.byte	0x91
 6020 162f 66       		.sleb128 -26
 6021 1630 27       		.uleb128 0x27
 6022 1631 02       		.uleb128 0x2
 6023 1632 7D       		.byte	0x7d
 6024 1633 0C       		.sleb128 12
 6025 1634 02       		.uleb128 0x2
 6026 1635 74       		.byte	0x74
 6027 1636 10       		.sleb128 16
 6028 1637 27       		.uleb128 0x27
ARM GAS  C:\Users\armst\AppData\Local\Temp\ccFg2asa.s 			page 125


 6029 1638 02       		.uleb128 0x2
 6030 1639 7D       		.byte	0x7d
 6031 163a 10       		.sleb128 16
 6032 163b 02       		.uleb128 0x2
 6033 163c 91       		.byte	0x91
 6034 163d 65       		.sleb128 -27
 6035 163e 27       		.uleb128 0x27
 6036 163f 02       		.uleb128 0x2
 6037 1640 7D       		.byte	0x7d
 6038 1641 14       		.sleb128 20
 6039 1642 02       		.uleb128 0x2
 6040 1643 74       		.byte	0x74
 6041 1644 18       		.sleb128 24
 6042 1645 27       		.uleb128 0x27
 6043 1646 02       		.uleb128 0x2
 6044 1647 7D       		.byte	0x7d
 6045 1648 18       		.sleb128 24
 6046 1649 02       		.uleb128 0x2
 6047 164a 91       		.byte	0x91
 6048 164b 64       		.sleb128 -28
 6049 164c 27       		.uleb128 0x27
 6050 164d 02       		.uleb128 0x2
 6051 164e 7D       		.byte	0x7d
 6052 164f 1C       		.sleb128 28
 6053 1650 02       		.uleb128 0x2
 6054 1651 91       		.byte	0x91
 6055 1652 63       		.sleb128 -29
 6056 1653 00       		.byte	0
 6057 1654 26       		.uleb128 0x26
 6058 1655 4E000000 		.4byte	.LVL255
 6059 1659 CA170000 		.4byte	0x17ca
 6060 165d 27       		.uleb128 0x27
 6061 165e 01       		.uleb128 0x1
 6062 165f 50       		.byte	0x50
 6063 1660 02       		.uleb128 0x2
 6064 1661 91       		.byte	0x91
 6065 1662 6A       		.sleb128 -22
 6066 1663 27       		.uleb128 0x27
 6067 1664 01       		.uleb128 0x1
 6068 1665 51       		.byte	0x51
 6069 1666 05       		.uleb128 0x5
 6070 1667 03       		.byte	0x3
 6071 1668 20000000 		.4byte	.LC20
 6072 166c 00       		.byte	0
 6073 166d 00       		.byte	0
 6074 166e 08       		.uleb128 0x8
 6075 166f 04       		.byte	0x4
 6076 1670 A9050000 		.4byte	0x5a9
 6077 1674 2F       		.uleb128 0x2f
 6078 1675 0B010000 		.4byte	.LASF166
 6079 1679 01       		.byte	0x1
 6080 167a 6802     		.2byte	0x268
 6081 167c 32030000 		.4byte	0x332
 6082 1680 00000000 		.4byte	.LFB18
 6083 1684 6C000000 		.4byte	.LFE18-.LFB18
 6084 1688 01       		.uleb128 0x1
 6085 1689 9C       		.byte	0x9c
ARM GAS  C:\Users\armst\AppData\Local\Temp\ccFg2asa.s 			page 126


 6086 168a 24170000 		.4byte	0x1724
 6087 168e 30       		.uleb128 0x30
 6088 168f 61080000 		.4byte	.LASF149
 6089 1693 01       		.byte	0x1
 6090 1694 6802     		.2byte	0x268
 6091 1696 24170000 		.4byte	0x1724
 6092 169a 700D0000 		.4byte	.LLST66
 6093 169e 30       		.uleb128 0x30
 6094 169f 62010000 		.4byte	.LASF122
 6095 16a3 01       		.byte	0x1
 6096 16a4 6802     		.2byte	0x268
 6097 16a6 E1000000 		.4byte	0xe1
 6098 16aa 9C0D0000 		.4byte	.LLST67
 6099 16ae 2C       		.uleb128 0x2c
 6100 16af F8070000 		.4byte	.LASF135
 6101 16b3 01       		.byte	0x1
 6102 16b4 6B02     		.2byte	0x26b
 6103 16b6 A20C0000 		.4byte	0xca2
 6104 16ba 02       		.uleb128 0x2
 6105 16bb 91       		.byte	0x91
 6106 16bc 68       		.sleb128 -24
 6107 16bd 2D       		.uleb128 0x2d
 6108 16be 28000000 		.4byte	.LVL260
 6109 16c2 4A070000 		.4byte	0x74a
 6110 16c6 0A170000 		.4byte	0x170a
 6111 16ca 27       		.uleb128 0x27
 6112 16cb 01       		.uleb128 0x1
 6113 16cc 50       		.byte	0x50
 6114 16cd 03       		.uleb128 0x3
 6115 16ce F3       		.byte	0xf3
 6116 16cf 01       		.uleb128 0x1
 6117 16d0 51       		.byte	0x51
 6118 16d1 27       		.uleb128 0x27
 6119 16d2 01       		.uleb128 0x1
 6120 16d3 51       		.byte	0x51
 6121 16d4 05       		.uleb128 0x5
 6122 16d5 03       		.byte	0x3
 6123 16d6 A4000000 		.4byte	.LC48
 6124 16da 27       		.uleb128 0x27
 6125 16db 01       		.uleb128 0x1
 6126 16dc 52       		.byte	0x52
 6127 16dd 02       		.uleb128 0x2
 6128 16de 91       		.byte	0x91
 6129 16df 68       		.sleb128 -24
 6130 16e0 27       		.uleb128 0x27
 6131 16e1 01       		.uleb128 0x1
 6132 16e2 53       		.byte	0x53
 6133 16e3 02       		.uleb128 0x2
 6134 16e4 74       		.byte	0x74
 6135 16e5 00       		.sleb128 0
 6136 16e6 27       		.uleb128 0x27
 6137 16e7 02       		.uleb128 0x2
 6138 16e8 7D       		.byte	0x7d
 6139 16e9 00       		.sleb128 0
 6140 16ea 02       		.uleb128 0x2
 6141 16eb 74       		.byte	0x74
 6142 16ec 10       		.sleb128 16
ARM GAS  C:\Users\armst\AppData\Local\Temp\ccFg2asa.s 			page 127


 6143 16ed 27       		.uleb128 0x27
 6144 16ee 02       		.uleb128 0x2
 6145 16ef 7D       		.byte	0x7d
 6146 16f0 04       		.sleb128 4
 6147 16f1 02       		.uleb128 0x2
 6148 16f2 74       		.byte	0x74
 6149 16f3 14       		.sleb128 20
 6150 16f4 27       		.uleb128 0x27
 6151 16f5 02       		.uleb128 0x2
 6152 16f6 7D       		.byte	0x7d
 6153 16f7 08       		.sleb128 8
 6154 16f8 02       		.uleb128 0x2
 6155 16f9 74       		.byte	0x74
 6156 16fa 18       		.sleb128 24
 6157 16fb 27       		.uleb128 0x27
 6158 16fc 02       		.uleb128 0x2
 6159 16fd 7D       		.byte	0x7d
 6160 16fe 0C       		.sleb128 12
 6161 16ff 02       		.uleb128 0x2
 6162 1700 74       		.byte	0x74
 6163 1701 1C       		.sleb128 28
 6164 1702 27       		.uleb128 0x27
 6165 1703 02       		.uleb128 0x2
 6166 1704 7D       		.byte	0x7d
 6167 1705 10       		.sleb128 16
 6168 1706 02       		.uleb128 0x2
 6169 1707 74       		.byte	0x74
 6170 1708 20       		.sleb128 32
 6171 1709 00       		.byte	0
 6172 170a 26       		.uleb128 0x26
 6173 170b 36000000 		.4byte	.LVL261
 6174 170f CA170000 		.4byte	0x17ca
 6175 1713 27       		.uleb128 0x27
 6176 1714 01       		.uleb128 0x1
 6177 1715 50       		.byte	0x50
 6178 1716 02       		.uleb128 0x2
 6179 1717 91       		.byte	0x91
 6180 1718 6A       		.sleb128 -22
 6181 1719 27       		.uleb128 0x27
 6182 171a 01       		.uleb128 0x1
 6183 171b 51       		.byte	0x51
 6184 171c 05       		.uleb128 0x5
 6185 171d 03       		.byte	0x3
 6186 171e 24000000 		.4byte	.LC22
 6187 1722 00       		.byte	0
 6188 1723 00       		.byte	0
 6189 1724 08       		.uleb128 0x8
 6190 1725 04       		.byte	0x4
 6191 1726 F2050000 		.4byte	0x5f2
 6192 172a 2F       		.uleb128 0x2f
 6193 172b 3C050000 		.4byte	.LASF167
 6194 172f 01       		.byte	0x1
 6195 1730 8202     		.2byte	0x282
 6196 1732 7E000000 		.4byte	0x7e
 6197 1736 00000000 		.4byte	.LFB19
 6198 173a 60000000 		.4byte	.LFE19-.LFB19
 6199 173e 01       		.uleb128 0x1
ARM GAS  C:\Users\armst\AppData\Local\Temp\ccFg2asa.s 			page 128


 6200 173f 9C       		.byte	0x9c
 6201 1740 8F170000 		.4byte	0x178f
 6202 1744 31       		.uleb128 0x31
 6203 1745 746D00   		.ascii	"tm\000"
 6204 1748 01       		.byte	0x1
 6205 1749 8202     		.2byte	0x282
 6206 174b 8F170000 		.4byte	0x178f
 6207 174f C80D0000 		.4byte	.LLST68
 6208 1753 30       		.uleb128 0x30
 6209 1754 77040000 		.4byte	.LASF67
 6210 1758 01       		.byte	0x1
 6211 1759 8202     		.2byte	0x282
 6212 175b 95170000 		.4byte	0x1795
 6213 175f F40D0000 		.4byte	.LLST69
 6214 1763 30       		.uleb128 0x30
 6215 1764 6A040000 		.4byte	.LASF142
 6216 1768 01       		.byte	0x1
 6217 1769 8202     		.2byte	0x282
 6218 176b A0170000 		.4byte	0x17a0
 6219 176f 200E0000 		.4byte	.LLST70
 6220 1773 26       		.uleb128 0x26
 6221 1774 1E000000 		.4byte	.LVL267
 6222 1778 D5170000 		.4byte	0x17d5
 6223 177c 27       		.uleb128 0x27
 6224 177d 01       		.uleb128 0x1
 6225 177e 50       		.byte	0x50
 6226 177f 02       		.uleb128 0x2
 6227 1780 74       		.byte	0x74
 6228 1781 00       		.sleb128 0
 6229 1782 27       		.uleb128 0x27
 6230 1783 01       		.uleb128 0x1
 6231 1784 51       		.byte	0x51
 6232 1785 01       		.uleb128 0x1
 6233 1786 30       		.byte	0x30
 6234 1787 27       		.uleb128 0x27
 6235 1788 01       		.uleb128 0x1
 6236 1789 52       		.byte	0x52
 6237 178a 02       		.uleb128 0x2
 6238 178b 08       		.byte	0x8
 6239 178c 24       		.byte	0x24
 6240 178d 00       		.byte	0
 6241 178e 00       		.byte	0
 6242 178f 08       		.uleb128 0x8
 6243 1790 04       		.byte	0x4
 6244 1791 EC000000 		.4byte	0xec
 6245 1795 08       		.uleb128 0x8
 6246 1796 04       		.byte	0x4
 6247 1797 9B170000 		.4byte	0x179b
 6248 179b 09       		.uleb128 0x9
 6249 179c EA010000 		.4byte	0x1ea
 6250 17a0 08       		.uleb128 0x8
 6251 17a1 04       		.byte	0x4
 6252 17a2 A6170000 		.4byte	0x17a6
 6253 17a6 09       		.uleb128 0x9
 6254 17a7 1B020000 		.4byte	0x21b
 6255 17ab 32       		.uleb128 0x32
 6256 17ac 03060000 		.4byte	.LASF179
ARM GAS  C:\Users\armst\AppData\Local\Temp\ccFg2asa.s 			page 129


 6257 17b0 0B       		.byte	0xb
 6258 17b1 2E       		.byte	0x2e
 6259 17b2 E1000000 		.4byte	0xe1
 6260 17b6 33       		.uleb128 0x33
 6261 17b7 30080000 		.4byte	.LASF168
 6262 17bb 30080000 		.4byte	.LASF168
 6263 17bf 09       		.byte	0x9
 6264 17c0 A2       		.byte	0xa2
 6265 17c1 34       		.uleb128 0x34
 6266 17c2 A9080000 		.4byte	.LASF170
 6267 17c6 A9080000 		.4byte	.LASF170
 6268 17ca 33       		.uleb128 0x33
 6269 17cb 46090000 		.4byte	.LASF169
 6270 17cf 46090000 		.4byte	.LASF169
 6271 17d3 0A       		.byte	0xa
 6272 17d4 1C       		.byte	0x1c
 6273 17d5 34       		.uleb128 0x34
 6274 17d6 A4050000 		.4byte	.LASF171
 6275 17da A4050000 		.4byte	.LASF171
 6276 17de 00       		.byte	0
 6277              		.section	.debug_abbrev,"",%progbits
 6278              	.Ldebug_abbrev0:
 6279 0000 01       		.uleb128 0x1
 6280 0001 11       		.uleb128 0x11
 6281 0002 01       		.byte	0x1
 6282 0003 25       		.uleb128 0x25
 6283 0004 0E       		.uleb128 0xe
 6284 0005 13       		.uleb128 0x13
 6285 0006 0B       		.uleb128 0xb
 6286 0007 03       		.uleb128 0x3
 6287 0008 0E       		.uleb128 0xe
 6288 0009 1B       		.uleb128 0x1b
 6289 000a 0E       		.uleb128 0xe
 6290 000b 55       		.uleb128 0x55
 6291 000c 17       		.uleb128 0x17
 6292 000d 11       		.uleb128 0x11
 6293 000e 01       		.uleb128 0x1
 6294 000f 10       		.uleb128 0x10
 6295 0010 17       		.uleb128 0x17
 6296 0011 00       		.byte	0
 6297 0012 00       		.byte	0
 6298 0013 02       		.uleb128 0x2
 6299 0014 24       		.uleb128 0x24
 6300 0015 00       		.byte	0
 6301 0016 0B       		.uleb128 0xb
 6302 0017 0B       		.uleb128 0xb
 6303 0018 3E       		.uleb128 0x3e
 6304 0019 0B       		.uleb128 0xb
 6305 001a 03       		.uleb128 0x3
 6306 001b 0E       		.uleb128 0xe
 6307 001c 00       		.byte	0
 6308 001d 00       		.byte	0
 6309 001e 03       		.uleb128 0x3
 6310 001f 16       		.uleb128 0x16
 6311 0020 00       		.byte	0
 6312 0021 03       		.uleb128 0x3
 6313 0022 0E       		.uleb128 0xe
ARM GAS  C:\Users\armst\AppData\Local\Temp\ccFg2asa.s 			page 130


 6314 0023 3A       		.uleb128 0x3a
 6315 0024 0B       		.uleb128 0xb
 6316 0025 3B       		.uleb128 0x3b
 6317 0026 0B       		.uleb128 0xb
 6318 0027 49       		.uleb128 0x49
 6319 0028 13       		.uleb128 0x13
 6320 0029 00       		.byte	0
 6321 002a 00       		.byte	0
 6322 002b 04       		.uleb128 0x4
 6323 002c 24       		.uleb128 0x24
 6324 002d 00       		.byte	0
 6325 002e 0B       		.uleb128 0xb
 6326 002f 0B       		.uleb128 0xb
 6327 0030 3E       		.uleb128 0x3e
 6328 0031 0B       		.uleb128 0xb
 6329 0032 03       		.uleb128 0x3
 6330 0033 08       		.uleb128 0x8
 6331 0034 00       		.byte	0
 6332 0035 00       		.byte	0
 6333 0036 05       		.uleb128 0x5
 6334 0037 0F       		.uleb128 0xf
 6335 0038 00       		.byte	0
 6336 0039 0B       		.uleb128 0xb
 6337 003a 0B       		.uleb128 0xb
 6338 003b 00       		.byte	0
 6339 003c 00       		.byte	0
 6340 003d 06       		.uleb128 0x6
 6341 003e 13       		.uleb128 0x13
 6342 003f 01       		.byte	0x1
 6343 0040 03       		.uleb128 0x3
 6344 0041 0E       		.uleb128 0xe
 6345 0042 0B       		.uleb128 0xb
 6346 0043 0B       		.uleb128 0xb
 6347 0044 3A       		.uleb128 0x3a
 6348 0045 0B       		.uleb128 0xb
 6349 0046 3B       		.uleb128 0x3b
 6350 0047 0B       		.uleb128 0xb
 6351 0048 01       		.uleb128 0x1
 6352 0049 13       		.uleb128 0x13
 6353 004a 00       		.byte	0
 6354 004b 00       		.byte	0
 6355 004c 07       		.uleb128 0x7
 6356 004d 0D       		.uleb128 0xd
 6357 004e 00       		.byte	0
 6358 004f 03       		.uleb128 0x3
 6359 0050 0E       		.uleb128 0xe
 6360 0051 49       		.uleb128 0x49
 6361 0052 13       		.uleb128 0x13
 6362 0053 38       		.uleb128 0x38
 6363 0054 0B       		.uleb128 0xb
 6364 0055 34       		.uleb128 0x34
 6365 0056 19       		.uleb128 0x19
 6366 0057 00       		.byte	0
 6367 0058 00       		.byte	0
 6368 0059 08       		.uleb128 0x8
 6369 005a 0F       		.uleb128 0xf
 6370 005b 00       		.byte	0
ARM GAS  C:\Users\armst\AppData\Local\Temp\ccFg2asa.s 			page 131


 6371 005c 0B       		.uleb128 0xb
 6372 005d 0B       		.uleb128 0xb
 6373 005e 49       		.uleb128 0x49
 6374 005f 13       		.uleb128 0x13
 6375 0060 00       		.byte	0
 6376 0061 00       		.byte	0
 6377 0062 09       		.uleb128 0x9
 6378 0063 26       		.uleb128 0x26
 6379 0064 00       		.byte	0
 6380 0065 49       		.uleb128 0x49
 6381 0066 13       		.uleb128 0x13
 6382 0067 00       		.byte	0
 6383 0068 00       		.byte	0
 6384 0069 0A       		.uleb128 0xa
 6385 006a 13       		.uleb128 0x13
 6386 006b 01       		.byte	0x1
 6387 006c 03       		.uleb128 0x3
 6388 006d 08       		.uleb128 0x8
 6389 006e 0B       		.uleb128 0xb
 6390 006f 0B       		.uleb128 0xb
 6391 0070 3A       		.uleb128 0x3a
 6392 0071 0B       		.uleb128 0xb
 6393 0072 3B       		.uleb128 0x3b
 6394 0073 0B       		.uleb128 0xb
 6395 0074 01       		.uleb128 0x1
 6396 0075 13       		.uleb128 0x13
 6397 0076 00       		.byte	0
 6398 0077 00       		.byte	0
 6399 0078 0B       		.uleb128 0xb
 6400 0079 0D       		.uleb128 0xd
 6401 007a 00       		.byte	0
 6402 007b 03       		.uleb128 0x3
 6403 007c 0E       		.uleb128 0xe
 6404 007d 3A       		.uleb128 0x3a
 6405 007e 0B       		.uleb128 0xb
 6406 007f 3B       		.uleb128 0x3b
 6407 0080 0B       		.uleb128 0xb
 6408 0081 49       		.uleb128 0x49
 6409 0082 13       		.uleb128 0x13
 6410 0083 38       		.uleb128 0x38
 6411 0084 0B       		.uleb128 0xb
 6412 0085 00       		.byte	0
 6413 0086 00       		.byte	0
 6414 0087 0C       		.uleb128 0xc
 6415 0088 04       		.uleb128 0x4
 6416 0089 01       		.byte	0x1
 6417 008a 03       		.uleb128 0x3
 6418 008b 0E       		.uleb128 0xe
 6419 008c 0B       		.uleb128 0xb
 6420 008d 0B       		.uleb128 0xb
 6421 008e 49       		.uleb128 0x49
 6422 008f 13       		.uleb128 0x13
 6423 0090 3A       		.uleb128 0x3a
 6424 0091 0B       		.uleb128 0xb
 6425 0092 3B       		.uleb128 0x3b
 6426 0093 0B       		.uleb128 0xb
 6427 0094 01       		.uleb128 0x1
ARM GAS  C:\Users\armst\AppData\Local\Temp\ccFg2asa.s 			page 132


 6428 0095 13       		.uleb128 0x13
 6429 0096 00       		.byte	0
 6430 0097 00       		.byte	0
 6431 0098 0D       		.uleb128 0xd
 6432 0099 28       		.uleb128 0x28
 6433 009a 00       		.byte	0
 6434 009b 03       		.uleb128 0x3
 6435 009c 0E       		.uleb128 0xe
 6436 009d 1C       		.uleb128 0x1c
 6437 009e 0D       		.uleb128 0xd
 6438 009f 00       		.byte	0
 6439 00a0 00       		.byte	0
 6440 00a1 0E       		.uleb128 0xe
 6441 00a2 28       		.uleb128 0x28
 6442 00a3 00       		.byte	0
 6443 00a4 03       		.uleb128 0x3
 6444 00a5 0E       		.uleb128 0xe
 6445 00a6 1C       		.uleb128 0x1c
 6446 00a7 0B       		.uleb128 0xb
 6447 00a8 00       		.byte	0
 6448 00a9 00       		.byte	0
 6449 00aa 0F       		.uleb128 0xf
 6450 00ab 0D       		.uleb128 0xd
 6451 00ac 00       		.byte	0
 6452 00ad 03       		.uleb128 0x3
 6453 00ae 08       		.uleb128 0x8
 6454 00af 3A       		.uleb128 0x3a
 6455 00b0 0B       		.uleb128 0xb
 6456 00b1 3B       		.uleb128 0x3b
 6457 00b2 0B       		.uleb128 0xb
 6458 00b3 49       		.uleb128 0x49
 6459 00b4 13       		.uleb128 0x13
 6460 00b5 38       		.uleb128 0x38
 6461 00b6 0B       		.uleb128 0xb
 6462 00b7 00       		.byte	0
 6463 00b8 00       		.byte	0
 6464 00b9 10       		.uleb128 0x10
 6465 00ba 01       		.uleb128 0x1
 6466 00bb 01       		.byte	0x1
 6467 00bc 49       		.uleb128 0x49
 6468 00bd 13       		.uleb128 0x13
 6469 00be 01       		.uleb128 0x1
 6470 00bf 13       		.uleb128 0x13
 6471 00c0 00       		.byte	0
 6472 00c1 00       		.byte	0
 6473 00c2 11       		.uleb128 0x11
 6474 00c3 21       		.uleb128 0x21
 6475 00c4 00       		.byte	0
 6476 00c5 49       		.uleb128 0x49
 6477 00c6 13       		.uleb128 0x13
 6478 00c7 2F       		.uleb128 0x2f
 6479 00c8 0B       		.uleb128 0xb
 6480 00c9 00       		.byte	0
 6481 00ca 00       		.byte	0
 6482 00cb 12       		.uleb128 0x12
 6483 00cc 2E       		.uleb128 0x2e
 6484 00cd 01       		.byte	0x1
ARM GAS  C:\Users\armst\AppData\Local\Temp\ccFg2asa.s 			page 133


 6485 00ce 03       		.uleb128 0x3
 6486 00cf 0E       		.uleb128 0xe
 6487 00d0 3A       		.uleb128 0x3a
 6488 00d1 0B       		.uleb128 0xb
 6489 00d2 3B       		.uleb128 0x3b
 6490 00d3 05       		.uleb128 0x5
 6491 00d4 27       		.uleb128 0x27
 6492 00d5 19       		.uleb128 0x19
 6493 00d6 49       		.uleb128 0x49
 6494 00d7 13       		.uleb128 0x13
 6495 00d8 20       		.uleb128 0x20
 6496 00d9 0B       		.uleb128 0xb
 6497 00da 01       		.uleb128 0x1
 6498 00db 13       		.uleb128 0x13
 6499 00dc 00       		.byte	0
 6500 00dd 00       		.byte	0
 6501 00de 13       		.uleb128 0x13
 6502 00df 05       		.uleb128 0x5
 6503 00e0 00       		.byte	0
 6504 00e1 03       		.uleb128 0x3
 6505 00e2 08       		.uleb128 0x8
 6506 00e3 3A       		.uleb128 0x3a
 6507 00e4 0B       		.uleb128 0xb
 6508 00e5 3B       		.uleb128 0x3b
 6509 00e6 05       		.uleb128 0x5
 6510 00e7 49       		.uleb128 0x49
 6511 00e8 13       		.uleb128 0x13
 6512 00e9 00       		.byte	0
 6513 00ea 00       		.byte	0
 6514 00eb 14       		.uleb128 0x14
 6515 00ec 2E       		.uleb128 0x2e
 6516 00ed 01       		.byte	0x1
 6517 00ee 03       		.uleb128 0x3
 6518 00ef 0E       		.uleb128 0xe
 6519 00f0 3A       		.uleb128 0x3a
 6520 00f1 0B       		.uleb128 0xb
 6521 00f2 3B       		.uleb128 0x3b
 6522 00f3 0B       		.uleb128 0xb
 6523 00f4 27       		.uleb128 0x27
 6524 00f5 19       		.uleb128 0x19
 6525 00f6 49       		.uleb128 0x49
 6526 00f7 13       		.uleb128 0x13
 6527 00f8 11       		.uleb128 0x11
 6528 00f9 01       		.uleb128 0x1
 6529 00fa 12       		.uleb128 0x12
 6530 00fb 06       		.uleb128 0x6
 6531 00fc 40       		.uleb128 0x40
 6532 00fd 18       		.uleb128 0x18
 6533 00fe 9742     		.uleb128 0x2117
 6534 0100 19       		.uleb128 0x19
 6535 0101 01       		.uleb128 0x1
 6536 0102 13       		.uleb128 0x13
 6537 0103 00       		.byte	0
 6538 0104 00       		.byte	0
 6539 0105 15       		.uleb128 0x15
 6540 0106 05       		.uleb128 0x5
 6541 0107 00       		.byte	0
ARM GAS  C:\Users\armst\AppData\Local\Temp\ccFg2asa.s 			page 134


 6542 0108 03       		.uleb128 0x3
 6543 0109 08       		.uleb128 0x8
 6544 010a 3A       		.uleb128 0x3a
 6545 010b 0B       		.uleb128 0xb
 6546 010c 3B       		.uleb128 0x3b
 6547 010d 0B       		.uleb128 0xb
 6548 010e 49       		.uleb128 0x49
 6549 010f 13       		.uleb128 0x13
 6550 0110 02       		.uleb128 0x2
 6551 0111 17       		.uleb128 0x17
 6552 0112 00       		.byte	0
 6553 0113 00       		.byte	0
 6554 0114 16       		.uleb128 0x16
 6555 0115 2E       		.uleb128 0x2e
 6556 0116 01       		.byte	0x1
 6557 0117 3F       		.uleb128 0x3f
 6558 0118 19       		.uleb128 0x19
 6559 0119 03       		.uleb128 0x3
 6560 011a 0E       		.uleb128 0xe
 6561 011b 3A       		.uleb128 0x3a
 6562 011c 0B       		.uleb128 0xb
 6563 011d 3B       		.uleb128 0x3b
 6564 011e 0B       		.uleb128 0xb
 6565 011f 27       		.uleb128 0x27
 6566 0120 19       		.uleb128 0x19
 6567 0121 49       		.uleb128 0x49
 6568 0122 13       		.uleb128 0x13
 6569 0123 11       		.uleb128 0x11
 6570 0124 01       		.uleb128 0x1
 6571 0125 12       		.uleb128 0x12
 6572 0126 06       		.uleb128 0x6
 6573 0127 40       		.uleb128 0x40
 6574 0128 18       		.uleb128 0x18
 6575 0129 9742     		.uleb128 0x2117
 6576 012b 19       		.uleb128 0x19
 6577 012c 01       		.uleb128 0x1
 6578 012d 13       		.uleb128 0x13
 6579 012e 00       		.byte	0
 6580 012f 00       		.byte	0
 6581 0130 17       		.uleb128 0x17
 6582 0131 05       		.uleb128 0x5
 6583 0132 00       		.byte	0
 6584 0133 03       		.uleb128 0x3
 6585 0134 0E       		.uleb128 0xe
 6586 0135 3A       		.uleb128 0x3a
 6587 0136 0B       		.uleb128 0xb
 6588 0137 3B       		.uleb128 0x3b
 6589 0138 0B       		.uleb128 0xb
 6590 0139 49       		.uleb128 0x49
 6591 013a 13       		.uleb128 0x13
 6592 013b 02       		.uleb128 0x2
 6593 013c 17       		.uleb128 0x17
 6594 013d 00       		.byte	0
 6595 013e 00       		.byte	0
 6596 013f 18       		.uleb128 0x18
 6597 0140 34       		.uleb128 0x34
 6598 0141 00       		.byte	0
ARM GAS  C:\Users\armst\AppData\Local\Temp\ccFg2asa.s 			page 135


 6599 0142 03       		.uleb128 0x3
 6600 0143 0E       		.uleb128 0xe
 6601 0144 3A       		.uleb128 0x3a
 6602 0145 0B       		.uleb128 0xb
 6603 0146 3B       		.uleb128 0x3b
 6604 0147 0B       		.uleb128 0xb
 6605 0148 49       		.uleb128 0x49
 6606 0149 13       		.uleb128 0x13
 6607 014a 02       		.uleb128 0x2
 6608 014b 18       		.uleb128 0x18
 6609 014c 00       		.byte	0
 6610 014d 00       		.byte	0
 6611 014e 19       		.uleb128 0x19
 6612 014f 34       		.uleb128 0x34
 6613 0150 00       		.byte	0
 6614 0151 03       		.uleb128 0x3
 6615 0152 0E       		.uleb128 0xe
 6616 0153 3A       		.uleb128 0x3a
 6617 0154 0B       		.uleb128 0xb
 6618 0155 3B       		.uleb128 0x3b
 6619 0156 0B       		.uleb128 0xb
 6620 0157 49       		.uleb128 0x49
 6621 0158 13       		.uleb128 0x13
 6622 0159 02       		.uleb128 0x2
 6623 015a 17       		.uleb128 0x17
 6624 015b 00       		.byte	0
 6625 015c 00       		.byte	0
 6626 015d 1A       		.uleb128 0x1a
 6627 015e 0B       		.uleb128 0xb
 6628 015f 01       		.byte	0x1
 6629 0160 55       		.uleb128 0x55
 6630 0161 17       		.uleb128 0x17
 6631 0162 00       		.byte	0
 6632 0163 00       		.byte	0
 6633 0164 1B       		.uleb128 0x1b
 6634 0165 898201   		.uleb128 0x4109
 6635 0168 00       		.byte	0
 6636 0169 11       		.uleb128 0x11
 6637 016a 01       		.uleb128 0x1
 6638 016b 31       		.uleb128 0x31
 6639 016c 13       		.uleb128 0x13
 6640 016d 00       		.byte	0
 6641 016e 00       		.byte	0
 6642 016f 1C       		.uleb128 0x1c
 6643 0170 2E       		.uleb128 0x2e
 6644 0171 01       		.byte	0x1
 6645 0172 3F       		.uleb128 0x3f
 6646 0173 19       		.uleb128 0x19
 6647 0174 03       		.uleb128 0x3
 6648 0175 0E       		.uleb128 0xe
 6649 0176 3A       		.uleb128 0x3a
 6650 0177 0B       		.uleb128 0xb
 6651 0178 3B       		.uleb128 0x3b
 6652 0179 0B       		.uleb128 0xb
 6653 017a 27       		.uleb128 0x27
 6654 017b 19       		.uleb128 0x19
 6655 017c 49       		.uleb128 0x49
ARM GAS  C:\Users\armst\AppData\Local\Temp\ccFg2asa.s 			page 136


 6656 017d 13       		.uleb128 0x13
 6657 017e 11       		.uleb128 0x11
 6658 017f 01       		.uleb128 0x1
 6659 0180 12       		.uleb128 0x12
 6660 0181 06       		.uleb128 0x6
 6661 0182 40       		.uleb128 0x40
 6662 0183 18       		.uleb128 0x18
 6663 0184 9642     		.uleb128 0x2116
 6664 0186 19       		.uleb128 0x19
 6665 0187 01       		.uleb128 0x1
 6666 0188 13       		.uleb128 0x13
 6667 0189 00       		.byte	0
 6668 018a 00       		.byte	0
 6669 018b 1D       		.uleb128 0x1d
 6670 018c 18       		.uleb128 0x18
 6671 018d 00       		.byte	0
 6672 018e 00       		.byte	0
 6673 018f 00       		.byte	0
 6674 0190 1E       		.uleb128 0x1e
 6675 0191 34       		.uleb128 0x34
 6676 0192 00       		.byte	0
 6677 0193 03       		.uleb128 0x3
 6678 0194 08       		.uleb128 0x8
 6679 0195 3A       		.uleb128 0x3a
 6680 0196 0B       		.uleb128 0xb
 6681 0197 3B       		.uleb128 0x3b
 6682 0198 0B       		.uleb128 0xb
 6683 0199 49       		.uleb128 0x49
 6684 019a 13       		.uleb128 0x13
 6685 019b 02       		.uleb128 0x2
 6686 019c 18       		.uleb128 0x18
 6687 019d 00       		.byte	0
 6688 019e 00       		.byte	0
 6689 019f 1F       		.uleb128 0x1f
 6690 01a0 0A       		.uleb128 0xa
 6691 01a1 00       		.byte	0
 6692 01a2 03       		.uleb128 0x3
 6693 01a3 0E       		.uleb128 0xe
 6694 01a4 3A       		.uleb128 0x3a
 6695 01a5 0B       		.uleb128 0xb
 6696 01a6 3B       		.uleb128 0x3b
 6697 01a7 05       		.uleb128 0x5
 6698 01a8 11       		.uleb128 0x11
 6699 01a9 01       		.uleb128 0x1
 6700 01aa 00       		.byte	0
 6701 01ab 00       		.byte	0
 6702 01ac 20       		.uleb128 0x20
 6703 01ad 0B       		.uleb128 0xb
 6704 01ae 01       		.byte	0x1
 6705 01af 11       		.uleb128 0x11
 6706 01b0 01       		.uleb128 0x1
 6707 01b1 12       		.uleb128 0x12
 6708 01b2 06       		.uleb128 0x6
 6709 01b3 01       		.uleb128 0x1
 6710 01b4 13       		.uleb128 0x13
 6711 01b5 00       		.byte	0
 6712 01b6 00       		.byte	0
ARM GAS  C:\Users\armst\AppData\Local\Temp\ccFg2asa.s 			page 137


 6713 01b7 21       		.uleb128 0x21
 6714 01b8 1D       		.uleb128 0x1d
 6715 01b9 01       		.byte	0x1
 6716 01ba 31       		.uleb128 0x31
 6717 01bb 13       		.uleb128 0x13
 6718 01bc 11       		.uleb128 0x11
 6719 01bd 01       		.uleb128 0x1
 6720 01be 12       		.uleb128 0x12
 6721 01bf 06       		.uleb128 0x6
 6722 01c0 58       		.uleb128 0x58
 6723 01c1 0B       		.uleb128 0xb
 6724 01c2 59       		.uleb128 0x59
 6725 01c3 0B       		.uleb128 0xb
 6726 01c4 00       		.byte	0
 6727 01c5 00       		.byte	0
 6728 01c6 22       		.uleb128 0x22
 6729 01c7 05       		.uleb128 0x5
 6730 01c8 00       		.byte	0
 6731 01c9 31       		.uleb128 0x31
 6732 01ca 13       		.uleb128 0x13
 6733 01cb 02       		.uleb128 0x2
 6734 01cc 17       		.uleb128 0x17
 6735 01cd 00       		.byte	0
 6736 01ce 00       		.byte	0
 6737 01cf 23       		.uleb128 0x23
 6738 01d0 0B       		.uleb128 0xb
 6739 01d1 01       		.byte	0x1
 6740 01d2 55       		.uleb128 0x55
 6741 01d3 17       		.uleb128 0x17
 6742 01d4 01       		.uleb128 0x1
 6743 01d5 13       		.uleb128 0x13
 6744 01d6 00       		.byte	0
 6745 01d7 00       		.byte	0
 6746 01d8 24       		.uleb128 0x24
 6747 01d9 0B       		.uleb128 0xb
 6748 01da 01       		.byte	0x1
 6749 01db 11       		.uleb128 0x11
 6750 01dc 01       		.uleb128 0x1
 6751 01dd 12       		.uleb128 0x12
 6752 01de 06       		.uleb128 0x6
 6753 01df 00       		.byte	0
 6754 01e0 00       		.byte	0
 6755 01e1 25       		.uleb128 0x25
 6756 01e2 1D       		.uleb128 0x1d
 6757 01e3 01       		.byte	0x1
 6758 01e4 31       		.uleb128 0x31
 6759 01e5 13       		.uleb128 0x13
 6760 01e6 11       		.uleb128 0x11
 6761 01e7 01       		.uleb128 0x1
 6762 01e8 12       		.uleb128 0x12
 6763 01e9 06       		.uleb128 0x6
 6764 01ea 58       		.uleb128 0x58
 6765 01eb 0B       		.uleb128 0xb
 6766 01ec 59       		.uleb128 0x59
 6767 01ed 0B       		.uleb128 0xb
 6768 01ee 01       		.uleb128 0x1
 6769 01ef 13       		.uleb128 0x13
ARM GAS  C:\Users\armst\AppData\Local\Temp\ccFg2asa.s 			page 138


 6770 01f0 00       		.byte	0
 6771 01f1 00       		.byte	0
 6772 01f2 26       		.uleb128 0x26
 6773 01f3 898201   		.uleb128 0x4109
 6774 01f6 01       		.byte	0x1
 6775 01f7 11       		.uleb128 0x11
 6776 01f8 01       		.uleb128 0x1
 6777 01f9 31       		.uleb128 0x31
 6778 01fa 13       		.uleb128 0x13
 6779 01fb 00       		.byte	0
 6780 01fc 00       		.byte	0
 6781 01fd 27       		.uleb128 0x27
 6782 01fe 8A8201   		.uleb128 0x410a
 6783 0201 00       		.byte	0
 6784 0202 02       		.uleb128 0x2
 6785 0203 18       		.uleb128 0x18
 6786 0204 9142     		.uleb128 0x2111
 6787 0206 18       		.uleb128 0x18
 6788 0207 00       		.byte	0
 6789 0208 00       		.byte	0
 6790 0209 28       		.uleb128 0x28
 6791 020a 34       		.uleb128 0x34
 6792 020b 00       		.byte	0
 6793 020c 03       		.uleb128 0x3
 6794 020d 08       		.uleb128 0x8
 6795 020e 3A       		.uleb128 0x3a
 6796 020f 0B       		.uleb128 0xb
 6797 0210 3B       		.uleb128 0x3b
 6798 0211 0B       		.uleb128 0xb
 6799 0212 49       		.uleb128 0x49
 6800 0213 13       		.uleb128 0x13
 6801 0214 02       		.uleb128 0x2
 6802 0215 17       		.uleb128 0x17
 6803 0216 00       		.byte	0
 6804 0217 00       		.byte	0
 6805 0218 29       		.uleb128 0x29
 6806 0219 34       		.uleb128 0x34
 6807 021a 00       		.byte	0
 6808 021b 03       		.uleb128 0x3
 6809 021c 0E       		.uleb128 0xe
 6810 021d 3A       		.uleb128 0x3a
 6811 021e 0B       		.uleb128 0xb
 6812 021f 3B       		.uleb128 0x3b
 6813 0220 05       		.uleb128 0x5
 6814 0221 49       		.uleb128 0x49
 6815 0222 13       		.uleb128 0x13
 6816 0223 02       		.uleb128 0x2
 6817 0224 17       		.uleb128 0x17
 6818 0225 00       		.byte	0
 6819 0226 00       		.byte	0
 6820 0227 2A       		.uleb128 0x2a
 6821 0228 34       		.uleb128 0x34
 6822 0229 00       		.byte	0
 6823 022a 03       		.uleb128 0x3
 6824 022b 08       		.uleb128 0x8
 6825 022c 3A       		.uleb128 0x3a
 6826 022d 0B       		.uleb128 0xb
ARM GAS  C:\Users\armst\AppData\Local\Temp\ccFg2asa.s 			page 139


 6827 022e 3B       		.uleb128 0x3b
 6828 022f 05       		.uleb128 0x5
 6829 0230 49       		.uleb128 0x49
 6830 0231 13       		.uleb128 0x13
 6831 0232 02       		.uleb128 0x2
 6832 0233 17       		.uleb128 0x17
 6833 0234 00       		.byte	0
 6834 0235 00       		.byte	0
 6835 0236 2B       		.uleb128 0x2b
 6836 0237 1D       		.uleb128 0x1d
 6837 0238 01       		.byte	0x1
 6838 0239 31       		.uleb128 0x31
 6839 023a 13       		.uleb128 0x13
 6840 023b 11       		.uleb128 0x11
 6841 023c 01       		.uleb128 0x1
 6842 023d 12       		.uleb128 0x12
 6843 023e 06       		.uleb128 0x6
 6844 023f 58       		.uleb128 0x58
 6845 0240 0B       		.uleb128 0xb
 6846 0241 59       		.uleb128 0x59
 6847 0242 05       		.uleb128 0x5
 6848 0243 01       		.uleb128 0x1
 6849 0244 13       		.uleb128 0x13
 6850 0245 00       		.byte	0
 6851 0246 00       		.byte	0
 6852 0247 2C       		.uleb128 0x2c
 6853 0248 34       		.uleb128 0x34
 6854 0249 00       		.byte	0
 6855 024a 03       		.uleb128 0x3
 6856 024b 0E       		.uleb128 0xe
 6857 024c 3A       		.uleb128 0x3a
 6858 024d 0B       		.uleb128 0xb
 6859 024e 3B       		.uleb128 0x3b
 6860 024f 05       		.uleb128 0x5
 6861 0250 49       		.uleb128 0x49
 6862 0251 13       		.uleb128 0x13
 6863 0252 02       		.uleb128 0x2
 6864 0253 18       		.uleb128 0x18
 6865 0254 00       		.byte	0
 6866 0255 00       		.byte	0
 6867 0256 2D       		.uleb128 0x2d
 6868 0257 898201   		.uleb128 0x4109
 6869 025a 01       		.byte	0x1
 6870 025b 11       		.uleb128 0x11
 6871 025c 01       		.uleb128 0x1
 6872 025d 31       		.uleb128 0x31
 6873 025e 13       		.uleb128 0x13
 6874 025f 01       		.uleb128 0x1
 6875 0260 13       		.uleb128 0x13
 6876 0261 00       		.byte	0
 6877 0262 00       		.byte	0
 6878 0263 2E       		.uleb128 0x2e
 6879 0264 1D       		.uleb128 0x1d
 6880 0265 01       		.byte	0x1
 6881 0266 31       		.uleb128 0x31
 6882 0267 13       		.uleb128 0x13
 6883 0268 11       		.uleb128 0x11
ARM GAS  C:\Users\armst\AppData\Local\Temp\ccFg2asa.s 			page 140


 6884 0269 01       		.uleb128 0x1
 6885 026a 12       		.uleb128 0x12
 6886 026b 06       		.uleb128 0x6
 6887 026c 58       		.uleb128 0x58
 6888 026d 0B       		.uleb128 0xb
 6889 026e 59       		.uleb128 0x59
 6890 026f 05       		.uleb128 0x5
 6891 0270 00       		.byte	0
 6892 0271 00       		.byte	0
 6893 0272 2F       		.uleb128 0x2f
 6894 0273 2E       		.uleb128 0x2e
 6895 0274 01       		.byte	0x1
 6896 0275 3F       		.uleb128 0x3f
 6897 0276 19       		.uleb128 0x19
 6898 0277 03       		.uleb128 0x3
 6899 0278 0E       		.uleb128 0xe
 6900 0279 3A       		.uleb128 0x3a
 6901 027a 0B       		.uleb128 0xb
 6902 027b 3B       		.uleb128 0x3b
 6903 027c 05       		.uleb128 0x5
 6904 027d 27       		.uleb128 0x27
 6905 027e 19       		.uleb128 0x19
 6906 027f 49       		.uleb128 0x49
 6907 0280 13       		.uleb128 0x13
 6908 0281 11       		.uleb128 0x11
 6909 0282 01       		.uleb128 0x1
 6910 0283 12       		.uleb128 0x12
 6911 0284 06       		.uleb128 0x6
 6912 0285 40       		.uleb128 0x40
 6913 0286 18       		.uleb128 0x18
 6914 0287 9742     		.uleb128 0x2117
 6915 0289 19       		.uleb128 0x19
 6916 028a 01       		.uleb128 0x1
 6917 028b 13       		.uleb128 0x13
 6918 028c 00       		.byte	0
 6919 028d 00       		.byte	0
 6920 028e 30       		.uleb128 0x30
 6921 028f 05       		.uleb128 0x5
 6922 0290 00       		.byte	0
 6923 0291 03       		.uleb128 0x3
 6924 0292 0E       		.uleb128 0xe
 6925 0293 3A       		.uleb128 0x3a
 6926 0294 0B       		.uleb128 0xb
 6927 0295 3B       		.uleb128 0x3b
 6928 0296 05       		.uleb128 0x5
 6929 0297 49       		.uleb128 0x49
 6930 0298 13       		.uleb128 0x13
 6931 0299 02       		.uleb128 0x2
 6932 029a 17       		.uleb128 0x17
 6933 029b 00       		.byte	0
 6934 029c 00       		.byte	0
 6935 029d 31       		.uleb128 0x31
 6936 029e 05       		.uleb128 0x5
 6937 029f 00       		.byte	0
 6938 02a0 03       		.uleb128 0x3
 6939 02a1 08       		.uleb128 0x8
 6940 02a2 3A       		.uleb128 0x3a
ARM GAS  C:\Users\armst\AppData\Local\Temp\ccFg2asa.s 			page 141


 6941 02a3 0B       		.uleb128 0xb
 6942 02a4 3B       		.uleb128 0x3b
 6943 02a5 05       		.uleb128 0x5
 6944 02a6 49       		.uleb128 0x49
 6945 02a7 13       		.uleb128 0x13
 6946 02a8 02       		.uleb128 0x2
 6947 02a9 17       		.uleb128 0x17
 6948 02aa 00       		.byte	0
 6949 02ab 00       		.byte	0
 6950 02ac 32       		.uleb128 0x32
 6951 02ad 34       		.uleb128 0x34
 6952 02ae 00       		.byte	0
 6953 02af 03       		.uleb128 0x3
 6954 02b0 0E       		.uleb128 0xe
 6955 02b1 3A       		.uleb128 0x3a
 6956 02b2 0B       		.uleb128 0xb
 6957 02b3 3B       		.uleb128 0x3b
 6958 02b4 0B       		.uleb128 0xb
 6959 02b5 49       		.uleb128 0x49
 6960 02b6 13       		.uleb128 0x13
 6961 02b7 3F       		.uleb128 0x3f
 6962 02b8 19       		.uleb128 0x19
 6963 02b9 3C       		.uleb128 0x3c
 6964 02ba 19       		.uleb128 0x19
 6965 02bb 00       		.byte	0
 6966 02bc 00       		.byte	0
 6967 02bd 33       		.uleb128 0x33
 6968 02be 2E       		.uleb128 0x2e
 6969 02bf 00       		.byte	0
 6970 02c0 3F       		.uleb128 0x3f
 6971 02c1 19       		.uleb128 0x19
 6972 02c2 3C       		.uleb128 0x3c
 6973 02c3 19       		.uleb128 0x19
 6974 02c4 6E       		.uleb128 0x6e
 6975 02c5 0E       		.uleb128 0xe
 6976 02c6 03       		.uleb128 0x3
 6977 02c7 0E       		.uleb128 0xe
 6978 02c8 3A       		.uleb128 0x3a
 6979 02c9 0B       		.uleb128 0xb
 6980 02ca 3B       		.uleb128 0x3b
 6981 02cb 0B       		.uleb128 0xb
 6982 02cc 00       		.byte	0
 6983 02cd 00       		.byte	0
 6984 02ce 34       		.uleb128 0x34
 6985 02cf 2E       		.uleb128 0x2e
 6986 02d0 00       		.byte	0
 6987 02d1 3F       		.uleb128 0x3f
 6988 02d2 19       		.uleb128 0x19
 6989 02d3 3C       		.uleb128 0x3c
 6990 02d4 19       		.uleb128 0x19
 6991 02d5 6E       		.uleb128 0x6e
 6992 02d6 0E       		.uleb128 0xe
 6993 02d7 03       		.uleb128 0x3
 6994 02d8 0E       		.uleb128 0xe
 6995 02d9 00       		.byte	0
 6996 02da 00       		.byte	0
 6997 02db 00       		.byte	0
ARM GAS  C:\Users\armst\AppData\Local\Temp\ccFg2asa.s 			page 142


 6998              		.section	.debug_loc,"",%progbits
 6999              	.Ldebug_loc0:
 7000              	.LLST0:
 7001 0000 00000000 		.4byte	.LVL0
 7002 0004 0C000000 		.4byte	.LVL1
 7003 0008 0100     		.2byte	0x1
 7004 000a 50       		.byte	0x50
 7005 000b 0C000000 		.4byte	.LVL1
 7006 000f 0E000000 		.4byte	.LVL2
 7007 0013 0400     		.2byte	0x4
 7008 0015 F3       		.byte	0xf3
 7009 0016 01       		.uleb128 0x1
 7010 0017 50       		.byte	0x50
 7011 0018 9F       		.byte	0x9f
 7012 0019 0E000000 		.4byte	.LVL2
 7013 001d 1A000000 		.4byte	.LVL3
 7014 0021 0100     		.2byte	0x1
 7015 0023 50       		.byte	0x50
 7016 0024 1A000000 		.4byte	.LVL3
 7017 0028 1C000000 		.4byte	.LVL4
 7018 002c 0400     		.2byte	0x4
 7019 002e F3       		.byte	0xf3
 7020 002f 01       		.uleb128 0x1
 7021 0030 50       		.byte	0x50
 7022 0031 9F       		.byte	0x9f
 7023 0032 1C000000 		.4byte	.LVL4
 7024 0036 28000000 		.4byte	.LVL5
 7025 003a 0100     		.2byte	0x1
 7026 003c 50       		.byte	0x50
 7027 003d 28000000 		.4byte	.LVL5
 7028 0041 2A000000 		.4byte	.LVL6
 7029 0045 0400     		.2byte	0x4
 7030 0047 F3       		.byte	0xf3
 7031 0048 01       		.uleb128 0x1
 7032 0049 50       		.byte	0x50
 7033 004a 9F       		.byte	0x9f
 7034 004b 2A000000 		.4byte	.LVL6
 7035 004f 2C000000 		.4byte	.LVL7
 7036 0053 0100     		.2byte	0x1
 7037 0055 50       		.byte	0x50
 7038 0056 2C000000 		.4byte	.LVL7
 7039 005a 30000000 		.4byte	.LFE4
 7040 005e 0400     		.2byte	0x4
 7041 0060 F3       		.byte	0xf3
 7042 0061 01       		.uleb128 0x1
 7043 0062 50       		.byte	0x50
 7044 0063 9F       		.byte	0x9f
 7045 0064 00000000 		.4byte	0
 7046 0068 00000000 		.4byte	0
 7047              	.LLST1:
 7048 006c 00000000 		.4byte	.LVL8
 7049 0070 0A000000 		.4byte	.LVL9
 7050 0074 0100     		.2byte	0x1
 7051 0076 50       		.byte	0x50
 7052 0077 0A000000 		.4byte	.LVL9
 7053 007b 1E000000 		.4byte	.LFE5
 7054 007f 0100     		.2byte	0x1
ARM GAS  C:\Users\armst\AppData\Local\Temp\ccFg2asa.s 			page 143


 7055 0081 52       		.byte	0x52
 7056 0082 00000000 		.4byte	0
 7057 0086 00000000 		.4byte	0
 7058              	.LLST2:
 7059 008a 00000000 		.4byte	.LVL13
 7060 008e 04000000 		.4byte	.LVL15
 7061 0092 0100     		.2byte	0x1
 7062 0094 50       		.byte	0x50
 7063 0095 04000000 		.4byte	.LVL15
 7064 0099 2E000000 		.4byte	.LVL19
 7065 009d 0100     		.2byte	0x1
 7066 009f 54       		.byte	0x54
 7067 00a0 2E000000 		.4byte	.LVL19
 7068 00a4 3C000000 		.4byte	.LVL22
 7069 00a8 0300     		.2byte	0x3
 7070 00aa 74       		.byte	0x74
 7071 00ab 02       		.sleb128 2
 7072 00ac 9F       		.byte	0x9f
 7073 00ad 3C000000 		.4byte	.LVL22
 7074 00b1 52000000 		.4byte	.LVL27
 7075 00b5 0100     		.2byte	0x1
 7076 00b7 57       		.byte	0x57
 7077 00b8 52000000 		.4byte	.LVL27
 7078 00bc 70000000 		.4byte	.LVL31
 7079 00c0 0100     		.2byte	0x1
 7080 00c2 54       		.byte	0x54
 7081 00c3 70000000 		.4byte	.LVL31
 7082 00c7 74000000 		.4byte	.LVL33
 7083 00cb 0300     		.2byte	0x3
 7084 00cd 74       		.byte	0x74
 7085 00ce 02       		.sleb128 2
 7086 00cf 9F       		.byte	0x9f
 7087 00d0 74000000 		.4byte	.LVL33
 7088 00d4 7C000000 		.4byte	.LVL37
 7089 00d8 0100     		.2byte	0x1
 7090 00da 57       		.byte	0x57
 7091 00db 7C000000 		.4byte	.LVL37
 7092 00df 82000000 		.4byte	.LVL39
 7093 00e3 0100     		.2byte	0x1
 7094 00e5 54       		.byte	0x54
 7095 00e6 00000000 		.4byte	0
 7096 00ea 00000000 		.4byte	0
 7097              	.LLST3:
 7098 00ee 00000000 		.4byte	.LVL13
 7099 00f2 33000000 		.4byte	.LVL20-1
 7100 00f6 0100     		.2byte	0x1
 7101 00f8 51       		.byte	0x51
 7102 00f9 33000000 		.4byte	.LVL20-1
 7103 00fd 52000000 		.4byte	.LVL27
 7104 0101 0400     		.2byte	0x4
 7105 0103 F3       		.byte	0xf3
 7106 0104 01       		.uleb128 0x1
 7107 0105 51       		.byte	0x51
 7108 0106 9F       		.byte	0x9f
 7109 0107 52000000 		.4byte	.LVL27
 7110 010b 58000000 		.4byte	.LVL28
 7111 010f 0100     		.2byte	0x1
ARM GAS  C:\Users\armst\AppData\Local\Temp\ccFg2asa.s 			page 144


 7112 0111 51       		.byte	0x51
 7113 0112 58000000 		.4byte	.LVL28
 7114 0116 6C000000 		.4byte	.LVL30
 7115 011a 0400     		.2byte	0x4
 7116 011c F3       		.byte	0xf3
 7117 011d 01       		.uleb128 0x1
 7118 011e 51       		.byte	0x51
 7119 011f 9F       		.byte	0x9f
 7120 0120 6C000000 		.4byte	.LVL30
 7121 0124 70000000 		.4byte	.LVL31
 7122 0128 0100     		.2byte	0x1
 7123 012a 51       		.byte	0x51
 7124 012b 70000000 		.4byte	.LVL31
 7125 012f 7C000000 		.4byte	.LVL37
 7126 0133 0400     		.2byte	0x4
 7127 0135 F3       		.byte	0xf3
 7128 0136 01       		.uleb128 0x1
 7129 0137 51       		.byte	0x51
 7130 0138 9F       		.byte	0x9f
 7131 0139 7C000000 		.4byte	.LVL37
 7132 013d 80000000 		.4byte	.LVL38
 7133 0141 0100     		.2byte	0x1
 7134 0143 51       		.byte	0x51
 7135 0144 80000000 		.4byte	.LVL38
 7136 0148 88000000 		.4byte	.LFE6
 7137 014c 0400     		.2byte	0x4
 7138 014e F3       		.byte	0xf3
 7139 014f 01       		.uleb128 0x1
 7140 0150 51       		.byte	0x51
 7141 0151 9F       		.byte	0x9f
 7142 0152 00000000 		.4byte	0
 7143 0156 00000000 		.4byte	0
 7144              	.LLST4:
 7145 015a 02000000 		.4byte	.LVL14
 7146 015e 0E000000 		.4byte	.LVL16
 7147 0162 0200     		.2byte	0x2
 7148 0164 30       		.byte	0x30
 7149 0165 9F       		.byte	0x9f
 7150 0166 0E000000 		.4byte	.LVL16
 7151 016a 6C000000 		.4byte	.LVL30
 7152 016e 0100     		.2byte	0x1
 7153 0170 55       		.byte	0x55
 7154 0171 6C000000 		.4byte	.LVL30
 7155 0175 70000000 		.4byte	.LVL31
 7156 0179 0200     		.2byte	0x2
 7157 017b 30       		.byte	0x30
 7158 017c 9F       		.byte	0x9f
 7159 017d 70000000 		.4byte	.LVL31
 7160 0181 82000000 		.4byte	.LVL39
 7161 0185 0100     		.2byte	0x1
 7162 0187 55       		.byte	0x55
 7163 0188 00000000 		.4byte	0
 7164 018c 00000000 		.4byte	0
 7165              	.LLST5:
 7166 0190 36000000 		.4byte	.LVL21
 7167 0194 3E000000 		.4byte	.LVL23
 7168 0198 0100     		.2byte	0x1
ARM GAS  C:\Users\armst\AppData\Local\Temp\ccFg2asa.s 			page 145


 7169 019a 50       		.byte	0x50
 7170 019b 3E000000 		.4byte	.LVL23
 7171 019f 48000000 		.4byte	.LVL25
 7172 01a3 0100     		.2byte	0x1
 7173 01a5 56       		.byte	0x56
 7174 01a6 70000000 		.4byte	.LVL31
 7175 01aa 72000000 		.4byte	.LVL32
 7176 01ae 0100     		.2byte	0x1
 7177 01b0 50       		.byte	0x50
 7178 01b1 72000000 		.4byte	.LVL32
 7179 01b5 78000000 		.4byte	.LVL35
 7180 01b9 0100     		.2byte	0x1
 7181 01bb 56       		.byte	0x56
 7182 01bc 00000000 		.4byte	0
 7183 01c0 00000000 		.4byte	0
 7184              	.LLST6:
 7185 01c4 42000000 		.4byte	.LVL24
 7186 01c8 4A000000 		.4byte	.LVL26
 7187 01cc 0100     		.2byte	0x1
 7188 01ce 50       		.byte	0x50
 7189 01cf 74000000 		.4byte	.LVL33
 7190 01d3 76000000 		.4byte	.LVL34
 7191 01d7 0100     		.2byte	0x1
 7192 01d9 50       		.byte	0x50
 7193 01da 00000000 		.4byte	0
 7194 01de 00000000 		.4byte	0
 7195              	.LLST7:
 7196 01e2 4A000000 		.4byte	.LVL26
 7197 01e6 52000000 		.4byte	.LVL27
 7198 01ea 0100     		.2byte	0x1
 7199 01ec 50       		.byte	0x50
 7200 01ed 78000000 		.4byte	.LVL35
 7201 01f1 7A000000 		.4byte	.LVL36
 7202 01f5 0100     		.2byte	0x1
 7203 01f7 50       		.byte	0x50
 7204 01f8 00000000 		.4byte	0
 7205 01fc 00000000 		.4byte	0
 7206              	.LLST8:
 7207 0200 00000000 		.4byte	.LVL40
 7208 0204 24000000 		.4byte	.LVL43
 7209 0208 0100     		.2byte	0x1
 7210 020a 50       		.byte	0x50
 7211 020b 24000000 		.4byte	.LVL43
 7212 020f 32050000 		.4byte	.LVL192
 7213 0213 0100     		.2byte	0x1
 7214 0215 54       		.byte	0x54
 7215 0216 32050000 		.4byte	.LVL192
 7216 021a 34050000 		.4byte	.LVL193
 7217 021e 0100     		.2byte	0x1
 7218 0220 50       		.byte	0x50
 7219 0221 34050000 		.4byte	.LVL193
 7220 0225 36050000 		.4byte	.LVL194
 7221 0229 0100     		.2byte	0x1
 7222 022b 54       		.byte	0x54
 7223 022c 00000000 		.4byte	0
 7224 0230 00000000 		.4byte	0
 7225              	.LLST9:
ARM GAS  C:\Users\armst\AppData\Local\Temp\ccFg2asa.s 			page 146


 7226 0234 00000000 		.4byte	.LVL40
 7227 0238 24000000 		.4byte	.LVL43
 7228 023c 0200     		.2byte	0x2
 7229 023e 91       		.byte	0x91
 7230 023f 74       		.sleb128 -12
 7231 0240 24000000 		.4byte	.LVL43
 7232 0244 32050000 		.4byte	.LVL192
 7233 0248 0100     		.2byte	0x1
 7234 024a 56       		.byte	0x56
 7235 024b 32050000 		.4byte	.LVL192
 7236 024f 34050000 		.4byte	.LVL193
 7237 0253 0200     		.2byte	0x2
 7238 0255 91       		.byte	0x91
 7239 0256 74       		.sleb128 -12
 7240 0257 00000000 		.4byte	0
 7241 025b 00000000 		.4byte	0
 7242              	.LLST10:
 7243 025f 14000000 		.4byte	.LVL41
 7244 0263 30050000 		.4byte	.LVL191
 7245 0267 0200     		.2byte	0x2
 7246 0269 30       		.byte	0x30
 7247 026a 9F       		.byte	0x9f
 7248 026b 30050000 		.4byte	.LVL191
 7249 026f 32050000 		.4byte	.LVL192
 7250 0273 0100     		.2byte	0x1
 7251 0275 50       		.byte	0x50
 7252 0276 32050000 		.4byte	.LVL192
 7253 027a 34050000 		.4byte	.LVL193
 7254 027e 0200     		.2byte	0x2
 7255 0280 30       		.byte	0x30
 7256 0281 9F       		.byte	0x9f
 7257 0282 00000000 		.4byte	0
 7258 0286 00000000 		.4byte	0
 7259              	.LLST11:
 7260 028a 14000000 		.4byte	.LVL41
 7261 028e 24000000 		.4byte	.LVL43
 7262 0292 0200     		.2byte	0x2
 7263 0294 30       		.byte	0x30
 7264 0295 9F       		.byte	0x9f
 7265 0296 24000000 		.4byte	.LVL43
 7266 029a F6040000 		.4byte	.LVL178
 7267 029e 0100     		.2byte	0x1
 7268 02a0 58       		.byte	0x58
 7269 02a1 F8040000 		.4byte	.LVL179
 7270 02a5 32050000 		.4byte	.LVL192
 7271 02a9 0100     		.2byte	0x1
 7272 02ab 58       		.byte	0x58
 7273 02ac 32050000 		.4byte	.LVL192
 7274 02b0 34050000 		.4byte	.LVL193
 7275 02b4 0200     		.2byte	0x2
 7276 02b6 30       		.byte	0x30
 7277 02b7 9F       		.byte	0x9f
 7278 02b8 00000000 		.4byte	0
 7279 02bc 00000000 		.4byte	0
 7280              	.LLST12:
 7281 02c0 1C000000 		.4byte	.LVL42
 7282 02c4 24000000 		.4byte	.LVL43
ARM GAS  C:\Users\armst\AppData\Local\Temp\ccFg2asa.s 			page 147


 7283 02c8 0100     		.2byte	0x1
 7284 02ca 50       		.byte	0x50
 7285 02cb 24000000 		.4byte	.LVL43
 7286 02cf 4A030000 		.4byte	.LVL124
 7287 02d3 0100     		.2byte	0x1
 7288 02d5 55       		.byte	0x55
 7289 02d6 4C030000 		.4byte	.LVL125
 7290 02da 90030000 		.4byte	.LVL131
 7291 02de 0100     		.2byte	0x1
 7292 02e0 55       		.byte	0x55
 7293 02e1 A8030000 		.4byte	.LVL137
 7294 02e5 B4030000 		.4byte	.LVL139
 7295 02e9 0100     		.2byte	0x1
 7296 02eb 55       		.byte	0x55
 7297 02ec BE030000 		.4byte	.LVL140
 7298 02f0 60040000 		.4byte	.LVL157
 7299 02f4 0100     		.2byte	0x1
 7300 02f6 55       		.byte	0x55
 7301 02f7 60040000 		.4byte	.LVL157
 7302 02fb 62040000 		.4byte	.LVL158
 7303 02ff 0300     		.2byte	0x3
 7304 0301 75       		.byte	0x75
 7305 0302 06       		.sleb128 6
 7306 0303 9F       		.byte	0x9f
 7307 0304 62040000 		.4byte	.LVL158
 7308 0308 9C040000 		.4byte	.LVL168
 7309 030c 0100     		.2byte	0x1
 7310 030e 57       		.byte	0x57
 7311 030f 9C040000 		.4byte	.LVL168
 7312 0313 AA040000 		.4byte	.LVL170
 7313 0317 0100     		.2byte	0x1
 7314 0319 55       		.byte	0x55
 7315 031a EE040000 		.4byte	.LVL175
 7316 031e F2040000 		.4byte	.LVL176
 7317 0322 0100     		.2byte	0x1
 7318 0324 54       		.byte	0x54
 7319 0325 F2040000 		.4byte	.LVL176
 7320 0329 F8040000 		.4byte	.LVL179
 7321 032d 0100     		.2byte	0x1
 7322 032f 55       		.byte	0x55
 7323 0330 FA040000 		.4byte	.LVL180
 7324 0334 32050000 		.4byte	.LVL192
 7325 0338 0100     		.2byte	0x1
 7326 033a 55       		.byte	0x55
 7327 033b 00000000 		.4byte	0
 7328 033f 00000000 		.4byte	0
 7329              	.LLST13:
 7330 0343 26000000 		.4byte	.LVL44
 7331 0347 3A000000 		.4byte	.LVL45
 7332 034b 0100     		.2byte	0x1
 7333 034d 53       		.byte	0x53
 7334 034e F2040000 		.4byte	.LVL176
 7335 0352 F4040000 		.4byte	.LVL177
 7336 0356 0100     		.2byte	0x1
 7337 0358 53       		.byte	0x53
 7338 0359 06050000 		.4byte	.LVL181
 7339 035d 0A050000 		.4byte	.LVL182
ARM GAS  C:\Users\armst\AppData\Local\Temp\ccFg2asa.s 			page 148


 7340 0361 0100     		.2byte	0x1
 7341 0363 53       		.byte	0x53
 7342 0364 00000000 		.4byte	0
 7343 0368 00000000 		.4byte	0
 7344              	.LLST14:
 7345 036c 4A000000 		.4byte	.LVL46
 7346 0370 7E000000 		.4byte	.LVL49
 7347 0374 0200     		.2byte	0x2
 7348 0376 30       		.byte	0x30
 7349 0377 9F       		.byte	0x9f
 7350 0378 7E000000 		.4byte	.LVL49
 7351 037c 8A000000 		.4byte	.LVL50
 7352 0380 0100     		.2byte	0x1
 7353 0382 53       		.byte	0x53
 7354 0383 00000000 		.4byte	0
 7355 0387 00000000 		.4byte	0
 7356              	.LLST15:
 7357 038b 50000000 		.4byte	.LVL47
 7358 038f 74000000 		.4byte	.LVL48
 7359 0393 0100     		.2byte	0x1
 7360 0395 53       		.byte	0x53
 7361 0396 00000000 		.4byte	0
 7362 039a 00000000 		.4byte	0
 7363              	.LLST16:
 7364 039e 8A000000 		.4byte	.LVL50
 7365 03a2 DE000000 		.4byte	.LVL53
 7366 03a6 0200     		.2byte	0x2
 7367 03a8 30       		.byte	0x30
 7368 03a9 9F       		.byte	0x9f
 7369 03aa DE000000 		.4byte	.LVL53
 7370 03ae EA000000 		.4byte	.LVL54
 7371 03b2 0100     		.2byte	0x1
 7372 03b4 51       		.byte	0x51
 7373 03b5 0E050000 		.4byte	.LVL183
 7374 03b9 12050000 		.4byte	.LVL184
 7375 03bd 0200     		.2byte	0x2
 7376 03bf 30       		.byte	0x30
 7377 03c0 9F       		.byte	0x9f
 7378 03c1 00000000 		.4byte	0
 7379 03c5 00000000 		.4byte	0
 7380              	.LLST17:
 7381 03c9 90000000 		.4byte	.LVL51
 7382 03cd B4000000 		.4byte	.LVL52
 7383 03d1 0100     		.2byte	0x1
 7384 03d3 53       		.byte	0x53
 7385 03d4 00000000 		.4byte	0
 7386 03d8 00000000 		.4byte	0
 7387              	.LLST18:
 7388 03dc EA000000 		.4byte	.LVL54
 7389 03e0 FA000000 		.4byte	.LVL55
 7390 03e4 0200     		.2byte	0x2
 7391 03e6 30       		.byte	0x30
 7392 03e7 9F       		.byte	0x9f
 7393 03e8 FA000000 		.4byte	.LVL55
 7394 03ec 04010000 		.4byte	.LVL56
 7395 03f0 0100     		.2byte	0x1
 7396 03f2 5A       		.byte	0x5a
ARM GAS  C:\Users\armst\AppData\Local\Temp\ccFg2asa.s 			page 149


 7397 03f3 04010000 		.4byte	.LVL56
 7398 03f7 08010000 		.4byte	.LVL57
 7399 03fb 0100     		.2byte	0x1
 7400 03fd 51       		.byte	0x51
 7401 03fe 08010000 		.4byte	.LVL57
 7402 0402 12010000 		.4byte	.LVL58
 7403 0406 0100     		.2byte	0x1
 7404 0408 5A       		.byte	0x5a
 7405 0409 12010000 		.4byte	.LVL58
 7406 040d 16010000 		.4byte	.LVL59
 7407 0411 0100     		.2byte	0x1
 7408 0413 51       		.byte	0x51
 7409 0414 16010000 		.4byte	.LVL59
 7410 0418 74010000 		.4byte	.LVL72
 7411 041c 0100     		.2byte	0x1
 7412 041e 5A       		.byte	0x5a
 7413 041f 74010000 		.4byte	.LVL72
 7414 0423 7A010000 		.4byte	.LVL73
 7415 0427 0100     		.2byte	0x1
 7416 0429 53       		.byte	0x53
 7417 042a 7A010000 		.4byte	.LVL73
 7418 042e 86010000 		.4byte	.LVL76
 7419 0432 0100     		.2byte	0x1
 7420 0434 5A       		.byte	0x5a
 7421 0435 88010000 		.4byte	.LVL77
 7422 0439 8E010000 		.4byte	.LVL78
 7423 043d 0100     		.2byte	0x1
 7424 043f 5A       		.byte	0x5a
 7425 0440 90010000 		.4byte	.LVL79
 7426 0444 98010000 		.4byte	.LVL82
 7427 0448 0100     		.2byte	0x1
 7428 044a 5A       		.byte	0x5a
 7429 044b 98010000 		.4byte	.LVL82
 7430 044f A2010000 		.4byte	.LVL83
 7431 0453 0200     		.2byte	0x2
 7432 0455 30       		.byte	0x30
 7433 0456 9F       		.byte	0x9f
 7434 0457 A2010000 		.4byte	.LVL83
 7435 045b FE010000 		.4byte	.LVL94
 7436 045f 0100     		.2byte	0x1
 7437 0461 5A       		.byte	0x5a
 7438 0462 FE010000 		.4byte	.LVL94
 7439 0466 00020000 		.4byte	.LVL95
 7440 046a 0100     		.2byte	0x1
 7441 046c 53       		.byte	0x53
 7442 046d 00020000 		.4byte	.LVL95
 7443 0471 12020000 		.4byte	.LVL97
 7444 0475 0100     		.2byte	0x1
 7445 0477 5A       		.byte	0x5a
 7446 0478 12050000 		.4byte	.LVL184
 7447 047c 16050000 		.4byte	.LVL185
 7448 0480 0100     		.2byte	0x1
 7449 0482 5A       		.byte	0x5a
 7450 0483 16050000 		.4byte	.LVL185
 7451 0487 1A050000 		.4byte	.LVL186
 7452 048b 0100     		.2byte	0x1
 7453 048d 53       		.byte	0x53
ARM GAS  C:\Users\armst\AppData\Local\Temp\ccFg2asa.s 			page 150


 7454 048e 1A050000 		.4byte	.LVL186
 7455 0492 26050000 		.4byte	.LVL189
 7456 0496 0100     		.2byte	0x1
 7457 0498 5A       		.byte	0x5a
 7458 0499 00000000 		.4byte	0
 7459 049d 00000000 		.4byte	0
 7460              	.LLST19:
 7461 04a1 EA000000 		.4byte	.LVL54
 7462 04a5 FA000000 		.4byte	.LVL55
 7463 04a9 0300     		.2byte	0x3
 7464 04ab 09       		.byte	0x9
 7465 04ac FF       		.byte	0xff
 7466 04ad 9F       		.byte	0x9f
 7467 04ae FA000000 		.4byte	.LVL55
 7468 04b2 46010000 		.4byte	.LVL65
 7469 04b6 0100     		.2byte	0x1
 7470 04b8 57       		.byte	0x57
 7471 04b9 4C010000 		.4byte	.LVL66
 7472 04bd 4E010000 		.4byte	.LVL67
 7473 04c1 0100     		.2byte	0x1
 7474 04c3 53       		.byte	0x53
 7475 04c4 4E010000 		.4byte	.LVL67
 7476 04c8 98010000 		.4byte	.LVL82
 7477 04cc 0100     		.2byte	0x1
 7478 04ce 57       		.byte	0x57
 7479 04cf 98010000 		.4byte	.LVL82
 7480 04d3 A2010000 		.4byte	.LVL83
 7481 04d7 0300     		.2byte	0x3
 7482 04d9 09       		.byte	0x9
 7483 04da FF       		.byte	0xff
 7484 04db 9F       		.byte	0x9f
 7485 04dc A2010000 		.4byte	.LVL83
 7486 04e0 F2010000 		.4byte	.LVL90
 7487 04e4 0100     		.2byte	0x1
 7488 04e6 57       		.byte	0x57
 7489 04e7 F4010000 		.4byte	.LVL91
 7490 04eb 12020000 		.4byte	.LVL97
 7491 04ef 0100     		.2byte	0x1
 7492 04f1 57       		.byte	0x57
 7493 04f2 12050000 		.4byte	.LVL184
 7494 04f6 26050000 		.4byte	.LVL189
 7495 04fa 0100     		.2byte	0x1
 7496 04fc 57       		.byte	0x57
 7497 04fd 00000000 		.4byte	0
 7498 0501 00000000 		.4byte	0
 7499              	.LLST20:
 7500 0505 EA000000 		.4byte	.LVL54
 7501 0509 FA000000 		.4byte	.LVL55
 7502 050d 0200     		.2byte	0x2
 7503 050f 30       		.byte	0x30
 7504 0510 9F       		.byte	0x9f
 7505 0511 FA000000 		.4byte	.LVL55
 7506 0515 3E010000 		.4byte	.LVL63
 7507 0519 0100     		.2byte	0x1
 7508 051b 59       		.byte	0x59
 7509 051c 3E010000 		.4byte	.LVL63
 7510 0520 42010000 		.4byte	.LVL64
ARM GAS  C:\Users\armst\AppData\Local\Temp\ccFg2asa.s 			page 151


 7511 0524 0100     		.2byte	0x1
 7512 0526 53       		.byte	0x53
 7513 0527 42010000 		.4byte	.LVL64
 7514 052b 52010000 		.4byte	.LVL68
 7515 052f 0100     		.2byte	0x1
 7516 0531 59       		.byte	0x59
 7517 0532 52010000 		.4byte	.LVL68
 7518 0536 54010000 		.4byte	.LVL69
 7519 053a 0100     		.2byte	0x1
 7520 053c 53       		.byte	0x53
 7521 053d 54010000 		.4byte	.LVL69
 7522 0541 5A010000 		.4byte	.LVL70
 7523 0545 0100     		.2byte	0x1
 7524 0547 59       		.byte	0x59
 7525 0548 5A010000 		.4byte	.LVL70
 7526 054c 5C010000 		.4byte	.LVL71
 7527 0550 0100     		.2byte	0x1
 7528 0552 52       		.byte	0x52
 7529 0553 5C010000 		.4byte	.LVL71
 7530 0557 80010000 		.4byte	.LVL74
 7531 055b 0100     		.2byte	0x1
 7532 055d 59       		.byte	0x59
 7533 055e 80010000 		.4byte	.LVL74
 7534 0562 82010000 		.4byte	.LVL75
 7535 0566 0100     		.2byte	0x1
 7536 0568 53       		.byte	0x53
 7537 0569 82010000 		.4byte	.LVL75
 7538 056d 90010000 		.4byte	.LVL79
 7539 0571 0100     		.2byte	0x1
 7540 0573 59       		.byte	0x59
 7541 0574 90010000 		.4byte	.LVL79
 7542 0578 94010000 		.4byte	.LVL80
 7543 057c 0100     		.2byte	0x1
 7544 057e 52       		.byte	0x52
 7545 057f 94010000 		.4byte	.LVL80
 7546 0583 98010000 		.4byte	.LVL82
 7547 0587 0100     		.2byte	0x1
 7548 0589 59       		.byte	0x59
 7549 058a 98010000 		.4byte	.LVL82
 7550 058e A2010000 		.4byte	.LVL83
 7551 0592 0200     		.2byte	0x2
 7552 0594 30       		.byte	0x30
 7553 0595 9F       		.byte	0x9f
 7554 0596 A2010000 		.4byte	.LVL83
 7555 059a EA010000 		.4byte	.LVL87
 7556 059e 0100     		.2byte	0x1
 7557 05a0 59       		.byte	0x59
 7558 05a1 EA010000 		.4byte	.LVL87
 7559 05a5 EC010000 		.4byte	.LVL88
 7560 05a9 0100     		.2byte	0x1
 7561 05ab 53       		.byte	0x53
 7562 05ac EC010000 		.4byte	.LVL88
 7563 05b0 F0010000 		.4byte	.LVL89
 7564 05b4 0100     		.2byte	0x1
 7565 05b6 59       		.byte	0x59
 7566 05b7 F4010000 		.4byte	.LVL91
 7567 05bb F6010000 		.4byte	.LVL92
ARM GAS  C:\Users\armst\AppData\Local\Temp\ccFg2asa.s 			page 152


 7568 05bf 0100     		.2byte	0x1
 7569 05c1 53       		.byte	0x53
 7570 05c2 F6010000 		.4byte	.LVL92
 7571 05c6 12020000 		.4byte	.LVL97
 7572 05ca 0100     		.2byte	0x1
 7573 05cc 59       		.byte	0x59
 7574 05cd 12050000 		.4byte	.LVL184
 7575 05d1 1E050000 		.4byte	.LVL187
 7576 05d5 0100     		.2byte	0x1
 7577 05d7 59       		.byte	0x59
 7578 05d8 1E050000 		.4byte	.LVL187
 7579 05dc 22050000 		.4byte	.LVL188
 7580 05e0 0100     		.2byte	0x1
 7581 05e2 53       		.byte	0x53
 7582 05e3 22050000 		.4byte	.LVL188
 7583 05e7 26050000 		.4byte	.LVL189
 7584 05eb 0100     		.2byte	0x1
 7585 05ed 59       		.byte	0x59
 7586 05ee 00000000 		.4byte	0
 7587 05f2 00000000 		.4byte	0
 7588              	.LLST21:
 7589 05f6 22010000 		.4byte	.LVL60
 7590 05fa 5C010000 		.4byte	.LVL71
 7591 05fe 0100     		.2byte	0x1
 7592 0600 5B       		.byte	0x5b
 7593 0601 00000000 		.4byte	0
 7594 0605 00000000 		.4byte	0
 7595              	.LLST22:
 7596 0609 A4010000 		.4byte	.LVL84
 7597 060d CA010000 		.4byte	.LVL85
 7598 0611 0100     		.2byte	0x1
 7599 0613 53       		.byte	0x53
 7600 0614 00000000 		.4byte	0
 7601 0618 00000000 		.4byte	0
 7602              	.LLST23:
 7603 061c 12020000 		.4byte	.LVL97
 7604 0620 20020000 		.4byte	.LVL98
 7605 0624 0200     		.2byte	0x2
 7606 0626 30       		.byte	0x30
 7607 0627 9F       		.byte	0x9f
 7608 0628 20020000 		.4byte	.LVL98
 7609 062c 4E020000 		.4byte	.LVL101
 7610 0630 0100     		.2byte	0x1
 7611 0632 50       		.byte	0x50
 7612 0633 50020000 		.4byte	.LVL102
 7613 0637 52020000 		.4byte	.LVL103
 7614 063b 0200     		.2byte	0x2
 7615 063d 30       		.byte	0x30
 7616 063e 9F       		.byte	0x9f
 7617 063f 52020000 		.4byte	.LVL103
 7618 0643 5E020000 		.4byte	.LVL104
 7619 0647 0100     		.2byte	0x1
 7620 0649 50       		.byte	0x50
 7621 064a 00000000 		.4byte	0
 7622 064e 00000000 		.4byte	0
 7623              	.LLST24:
 7624 0652 24020000 		.4byte	.LVL99
ARM GAS  C:\Users\armst\AppData\Local\Temp\ccFg2asa.s 			page 153


 7625 0656 48020000 		.4byte	.LVL100
 7626 065a 0100     		.2byte	0x1
 7627 065c 52       		.byte	0x52
 7628 065d 00000000 		.4byte	0
 7629 0661 00000000 		.4byte	0
 7630              	.LLST25:
 7631 0665 66020000 		.4byte	.LVL105
 7632 0669 6C020000 		.4byte	.LVL106
 7633 066d 0100     		.2byte	0x1
 7634 066f 51       		.byte	0x51
 7635 0670 6C020000 		.4byte	.LVL106
 7636 0674 72020000 		.4byte	.LVL108
 7637 0678 0300     		.2byte	0x3
 7638 067a 71       		.byte	0x71
 7639 067b 01       		.sleb128 1
 7640 067c 9F       		.byte	0x9f
 7641 067d 72020000 		.4byte	.LVL108
 7642 0681 A2020000 		.4byte	.LVL111
 7643 0685 0100     		.2byte	0x1
 7644 0687 51       		.byte	0x51
 7645 0688 00000000 		.4byte	0
 7646 068c 00000000 		.4byte	0
 7647              	.LLST26:
 7648 0690 74020000 		.4byte	.LVL109
 7649 0694 98020000 		.4byte	.LVL110
 7650 0698 0100     		.2byte	0x1
 7651 069a 52       		.byte	0x52
 7652 069b 00000000 		.4byte	0
 7653 069f 00000000 		.4byte	0
 7654              	.LLST27:
 7655 06a3 FC020000 		.4byte	.LVL118
 7656 06a7 0C030000 		.4byte	.LVL120
 7657 06ab 0100     		.2byte	0x1
 7658 06ad 57       		.byte	0x57
 7659 06ae 00000000 		.4byte	0
 7660 06b2 00000000 		.4byte	0
 7661              	.LLST28:
 7662 06b6 B4020000 		.4byte	.LVL112
 7663 06ba B6020000 		.4byte	.LVL113
 7664 06be 0100     		.2byte	0x1
 7665 06c0 53       		.byte	0x53
 7666 06c1 B6020000 		.4byte	.LVL113
 7667 06c5 F0020000 		.4byte	.LVL116
 7668 06c9 0300     		.2byte	0x3
 7669 06cb 73       		.byte	0x73
 7670 06cc 7F       		.sleb128 -1
 7671 06cd 9F       		.byte	0x9f
 7672 06ce F0020000 		.4byte	.LVL116
 7673 06d2 F6020000 		.4byte	.LVL117
 7674 06d6 0100     		.2byte	0x1
 7675 06d8 53       		.byte	0x53
 7676 06d9 2E050000 		.4byte	.LVL190
 7677 06dd 32050000 		.4byte	.LVL192
 7678 06e1 0300     		.2byte	0x3
 7679 06e3 73       		.byte	0x73
 7680 06e4 7F       		.sleb128 -1
 7681 06e5 9F       		.byte	0x9f
ARM GAS  C:\Users\armst\AppData\Local\Temp\ccFg2asa.s 			page 154


 7682 06e6 00000000 		.4byte	0
 7683 06ea 00000000 		.4byte	0
 7684              	.LLST29:
 7685 06ee B8020000 		.4byte	.LVL114
 7686 06f2 EA020000 		.4byte	.LVL115
 7687 06f6 0100     		.2byte	0x1
 7688 06f8 51       		.byte	0x51
 7689 06f9 00000000 		.4byte	0
 7690 06fd 00000000 		.4byte	0
 7691              	.LLST30:
 7692 0701 14030000 		.4byte	.LVL121
 7693 0705 BE030000 		.4byte	.LVL140
 7694 0709 0100     		.2byte	0x1
 7695 070b 57       		.byte	0x57
 7696 070c 00000000 		.4byte	0
 7697 0710 00000000 		.4byte	0
 7698              	.LLST31:
 7699 0714 14030000 		.4byte	.LVL121
 7700 0718 90030000 		.4byte	.LVL131
 7701 071c 0300     		.2byte	0x3
 7702 071e 09       		.byte	0x9
 7703 071f FF       		.byte	0xff
 7704 0720 9F       		.byte	0x9f
 7705 0721 90030000 		.4byte	.LVL131
 7706 0725 96030000 		.4byte	.LVL132
 7707 0729 0100     		.2byte	0x1
 7708 072b 50       		.byte	0x50
 7709 072c 96030000 		.4byte	.LVL132
 7710 0730 A8030000 		.4byte	.LVL137
 7711 0734 0100     		.2byte	0x1
 7712 0736 55       		.byte	0x55
 7713 0737 A8030000 		.4byte	.LVL137
 7714 073b B4030000 		.4byte	.LVL139
 7715 073f 0300     		.2byte	0x3
 7716 0741 09       		.byte	0x9
 7717 0742 FF       		.byte	0xff
 7718 0743 9F       		.byte	0x9f
 7719 0744 B4030000 		.4byte	.LVL139
 7720 0748 BE030000 		.4byte	.LVL140
 7721 074c 0100     		.2byte	0x1
 7722 074e 55       		.byte	0x55
 7723 074f 00000000 		.4byte	0
 7724 0753 00000000 		.4byte	0
 7725              	.LLST32:
 7726 0757 14030000 		.4byte	.LVL121
 7727 075b 9C030000 		.4byte	.LVL134
 7728 075f 0300     		.2byte	0x3
 7729 0761 09       		.byte	0x9
 7730 0762 FF       		.byte	0xff
 7731 0763 9F       		.byte	0x9f
 7732 0764 9C030000 		.4byte	.LVL134
 7733 0768 A2030000 		.4byte	.LVL135
 7734 076c 0100     		.2byte	0x1
 7735 076e 50       		.byte	0x50
 7736 076f A2030000 		.4byte	.LVL135
 7737 0773 A8030000 		.4byte	.LVL137
 7738 0777 0100     		.2byte	0x1
ARM GAS  C:\Users\armst\AppData\Local\Temp\ccFg2asa.s 			page 155


 7739 0779 5A       		.byte	0x5a
 7740 077a A8030000 		.4byte	.LVL137
 7741 077e B4030000 		.4byte	.LVL139
 7742 0782 0300     		.2byte	0x3
 7743 0784 09       		.byte	0x9
 7744 0785 FF       		.byte	0xff
 7745 0786 9F       		.byte	0x9f
 7746 0787 B4030000 		.4byte	.LVL139
 7747 078b BE030000 		.4byte	.LVL140
 7748 078f 0100     		.2byte	0x1
 7749 0791 5A       		.byte	0x5a
 7750 0792 00000000 		.4byte	0
 7751 0796 00000000 		.4byte	0
 7752              	.LLST33:
 7753 079a 14030000 		.4byte	.LVL121
 7754 079e A6030000 		.4byte	.LVL136
 7755 07a2 0300     		.2byte	0x3
 7756 07a4 09       		.byte	0x9
 7757 07a5 FF       		.byte	0xff
 7758 07a6 9F       		.byte	0x9f
 7759 07a7 A6030000 		.4byte	.LVL136
 7760 07ab A8030000 		.4byte	.LVL137
 7761 07af 0100     		.2byte	0x1
 7762 07b1 50       		.byte	0x50
 7763 07b2 A8030000 		.4byte	.LVL137
 7764 07b6 B4030000 		.4byte	.LVL139
 7765 07ba 0300     		.2byte	0x3
 7766 07bc 09       		.byte	0x9
 7767 07bd FF       		.byte	0xff
 7768 07be 9F       		.byte	0x9f
 7769 07bf B4030000 		.4byte	.LVL139
 7770 07c3 BE030000 		.4byte	.LVL140
 7771 07c7 0100     		.2byte	0x1
 7772 07c9 50       		.byte	0x50
 7773 07ca 00000000 		.4byte	0
 7774 07ce 00000000 		.4byte	0
 7775              	.LLST34:
 7776 07d2 1A030000 		.4byte	.LVL122
 7777 07d6 3E030000 		.4byte	.LVL123
 7778 07da 0100     		.2byte	0x1
 7779 07dc 50       		.byte	0x50
 7780 07dd 00000000 		.4byte	0
 7781 07e1 00000000 		.4byte	0
 7782              	.LLST35:
 7783 07e5 4C030000 		.4byte	.LVL125
 7784 07e9 5A030000 		.4byte	.LVL127
 7785 07ed 0100     		.2byte	0x1
 7786 07ef 53       		.byte	0x53
 7787 07f0 5C030000 		.4byte	.LVL128
 7788 07f4 62030000 		.4byte	.LVL129
 7789 07f8 0100     		.2byte	0x1
 7790 07fa 53       		.byte	0x53
 7791 07fb A8030000 		.4byte	.LVL137
 7792 07ff AC030000 		.4byte	.LVL138
 7793 0803 0100     		.2byte	0x1
 7794 0805 53       		.byte	0x53
 7795 0806 00000000 		.4byte	0
ARM GAS  C:\Users\armst\AppData\Local\Temp\ccFg2asa.s 			page 156


 7796 080a 00000000 		.4byte	0
 7797              	.LLST36:
 7798 080e C8030000 		.4byte	.LVL141
 7799 0812 D0030000 		.4byte	.LVL143
 7800 0816 0100     		.2byte	0x1
 7801 0818 53       		.byte	0x53
 7802 0819 D0030000 		.4byte	.LVL143
 7803 081d A0040000 		.4byte	.LVL169
 7804 0821 0100     		.2byte	0x1
 7805 0823 59       		.byte	0x59
 7806 0824 A0040000 		.4byte	.LVL169
 7807 0828 AA040000 		.4byte	.LVL170
 7808 082c 0100     		.2byte	0x1
 7809 082e 53       		.byte	0x53
 7810 082f AA040000 		.4byte	.LVL170
 7811 0833 BC040000 		.4byte	.LVL171
 7812 0837 0100     		.2byte	0x1
 7813 0839 59       		.byte	0x59
 7814 083a 00000000 		.4byte	0
 7815 083e 00000000 		.4byte	0
 7816              	.LLST37:
 7817 0842 C8030000 		.4byte	.LVL141
 7818 0846 48040000 		.4byte	.LVL151
 7819 084a 0300     		.2byte	0x3
 7820 084c 09       		.byte	0x9
 7821 084d FF       		.byte	0xff
 7822 084e 9F       		.byte	0x9f
 7823 084f 48040000 		.4byte	.LVL151
 7824 0853 4E040000 		.4byte	.LVL152
 7825 0857 0100     		.2byte	0x1
 7826 0859 50       		.byte	0x50
 7827 085a 4E040000 		.4byte	.LVL152
 7828 085e 9C040000 		.4byte	.LVL168
 7829 0862 0100     		.2byte	0x1
 7830 0864 5B       		.byte	0x5b
 7831 0865 9C040000 		.4byte	.LVL168
 7832 0869 AA040000 		.4byte	.LVL170
 7833 086d 0300     		.2byte	0x3
 7834 086f 09       		.byte	0x9
 7835 0870 FF       		.byte	0xff
 7836 0871 9F       		.byte	0x9f
 7837 0872 AA040000 		.4byte	.LVL170
 7838 0876 BC040000 		.4byte	.LVL171
 7839 087a 0100     		.2byte	0x1
 7840 087c 5B       		.byte	0x5b
 7841 087d 00000000 		.4byte	0
 7842 0881 00000000 		.4byte	0
 7843              	.LLST38:
 7844 0885 C8030000 		.4byte	.LVL141
 7845 0889 54040000 		.4byte	.LVL154
 7846 088d 0300     		.2byte	0x3
 7847 088f 09       		.byte	0x9
 7848 0890 FF       		.byte	0xff
 7849 0891 9F       		.byte	0x9f
 7850 0892 54040000 		.4byte	.LVL154
 7851 0896 5A040000 		.4byte	.LVL155
 7852 089a 0100     		.2byte	0x1
ARM GAS  C:\Users\armst\AppData\Local\Temp\ccFg2asa.s 			page 157


 7853 089c 50       		.byte	0x50
 7854 089d 5A040000 		.4byte	.LVL155
 7855 08a1 9C040000 		.4byte	.LVL168
 7856 08a5 0100     		.2byte	0x1
 7857 08a7 5A       		.byte	0x5a
 7858 08a8 9C040000 		.4byte	.LVL168
 7859 08ac AA040000 		.4byte	.LVL170
 7860 08b0 0300     		.2byte	0x3
 7861 08b2 09       		.byte	0x9
 7862 08b3 FF       		.byte	0xff
 7863 08b4 9F       		.byte	0x9f
 7864 08b5 AA040000 		.4byte	.LVL170
 7865 08b9 BC040000 		.4byte	.LVL171
 7866 08bd 0100     		.2byte	0x1
 7867 08bf 5A       		.byte	0x5a
 7868 08c0 00000000 		.4byte	0
 7869 08c4 00000000 		.4byte	0
 7870              	.LLST39:
 7871 08c8 C8030000 		.4byte	.LVL141
 7872 08cc 60040000 		.4byte	.LVL157
 7873 08d0 0300     		.2byte	0x3
 7874 08d2 09       		.byte	0x9
 7875 08d3 FF       		.byte	0xff
 7876 08d4 9F       		.byte	0x9f
 7877 08d5 60040000 		.4byte	.LVL157
 7878 08d9 6A040000 		.4byte	.LVL159
 7879 08dd 0100     		.2byte	0x1
 7880 08df 50       		.byte	0x50
 7881 08e0 6A040000 		.4byte	.LVL159
 7882 08e4 82040000 		.4byte	.LVL164
 7883 08e8 0300     		.2byte	0x3
 7884 08ea 91       		.byte	0x91
 7885 08eb A47F     		.sleb128 -92
 7886 08ed 82040000 		.4byte	.LVL164
 7887 08f1 84040000 		.4byte	.LVL165
 7888 08f5 0100     		.2byte	0x1
 7889 08f7 50       		.byte	0x50
 7890 08f8 84040000 		.4byte	.LVL165
 7891 08fc 9C040000 		.4byte	.LVL168
 7892 0900 0300     		.2byte	0x3
 7893 0902 91       		.byte	0x91
 7894 0903 A47F     		.sleb128 -92
 7895 0905 9C040000 		.4byte	.LVL168
 7896 0909 AA040000 		.4byte	.LVL170
 7897 090d 0300     		.2byte	0x3
 7898 090f 09       		.byte	0x9
 7899 0910 FF       		.byte	0xff
 7900 0911 9F       		.byte	0x9f
 7901 0912 AA040000 		.4byte	.LVL170
 7902 0916 BC040000 		.4byte	.LVL171
 7903 091a 0300     		.2byte	0x3
 7904 091c 91       		.byte	0x91
 7905 091d A47F     		.sleb128 -92
 7906 091f 00000000 		.4byte	0
 7907 0923 00000000 		.4byte	0
 7908              	.LLST40:
 7909 0927 C8030000 		.4byte	.LVL141
ARM GAS  C:\Users\armst\AppData\Local\Temp\ccFg2asa.s 			page 158


 7910 092b 9A040000 		.4byte	.LVL167
 7911 092f 0300     		.2byte	0x3
 7912 0931 09       		.byte	0x9
 7913 0932 FF       		.byte	0xff
 7914 0933 9F       		.byte	0x9f
 7915 0934 9A040000 		.4byte	.LVL167
 7916 0938 9C040000 		.4byte	.LVL168
 7917 093c 0100     		.2byte	0x1
 7918 093e 50       		.byte	0x50
 7919 093f 9C040000 		.4byte	.LVL168
 7920 0943 AA040000 		.4byte	.LVL170
 7921 0947 0300     		.2byte	0x3
 7922 0949 09       		.byte	0x9
 7923 094a FF       		.byte	0xff
 7924 094b 9F       		.byte	0x9f
 7925 094c AA040000 		.4byte	.LVL170
 7926 0950 BC040000 		.4byte	.LVL171
 7927 0954 0100     		.2byte	0x1
 7928 0956 50       		.byte	0x50
 7929 0957 00000000 		.4byte	0
 7930 095b 00000000 		.4byte	0
 7931              	.LLST41:
 7932 095f CE030000 		.4byte	.LVL142
 7933 0963 F2030000 		.4byte	.LVL144
 7934 0967 0100     		.2byte	0x1
 7935 0969 50       		.byte	0x50
 7936 096a 00000000 		.4byte	0
 7937 096e 00000000 		.4byte	0
 7938              	.LLST42:
 7939 0972 02040000 		.4byte	.LVL145
 7940 0976 10040000 		.4byte	.LVL147
 7941 097a 0100     		.2byte	0x1
 7942 097c 53       		.byte	0x53
 7943 097d 12040000 		.4byte	.LVL148
 7944 0981 18040000 		.4byte	.LVL149
 7945 0985 0100     		.2byte	0x1
 7946 0987 53       		.byte	0x53
 7947 0988 9C040000 		.4byte	.LVL168
 7948 098c A0040000 		.4byte	.LVL169
 7949 0990 0100     		.2byte	0x1
 7950 0992 53       		.byte	0x53
 7951 0993 00000000 		.4byte	0
 7952 0997 00000000 		.4byte	0
 7953              	.LLST43:
 7954 099b 6C040000 		.4byte	.LVL160
 7955 099f 7A040000 		.4byte	.LVL162
 7956 09a3 0100     		.2byte	0x1
 7957 09a5 55       		.byte	0x55
 7958 09a6 7A040000 		.4byte	.LVL162
 7959 09aa 7F040000 		.4byte	.LVL163-1
 7960 09ae 0100     		.2byte	0x1
 7961 09b0 53       		.byte	0x53
 7962 09b1 7F040000 		.4byte	.LVL163-1
 7963 09b5 82040000 		.4byte	.LVL164
 7964 09b9 0100     		.2byte	0x1
 7965 09bb 55       		.byte	0x55
 7966 09bc 86040000 		.4byte	.LVL166
ARM GAS  C:\Users\armst\AppData\Local\Temp\ccFg2asa.s 			page 159


 7967 09c0 9C040000 		.4byte	.LVL168
 7968 09c4 0100     		.2byte	0x1
 7969 09c6 55       		.byte	0x55
 7970 09c7 00000000 		.4byte	0
 7971 09cb 00000000 		.4byte	0
 7972              	.LLST44:
 7973 09cf 6C040000 		.4byte	.LVL160
 7974 09d3 7F040000 		.4byte	.LVL163-1
 7975 09d7 0100     		.2byte	0x1
 7976 09d9 50       		.byte	0x50
 7977 09da 80040000 		.4byte	.LVL163
 7978 09de 82040000 		.4byte	.LVL164
 7979 09e2 0100     		.2byte	0x1
 7980 09e4 50       		.byte	0x50
 7981 09e5 86040000 		.4byte	.LVL166
 7982 09e9 9A040000 		.4byte	.LVL167
 7983 09ed 0100     		.2byte	0x1
 7984 09ef 50       		.byte	0x50
 7985 09f0 00000000 		.4byte	0
 7986 09f4 00000000 		.4byte	0
 7987              	.LLST45:
 7988 09f8 C0040000 		.4byte	.LVL173
 7989 09fc E4040000 		.4byte	.LVL174
 7990 0a00 0100     		.2byte	0x1
 7991 0a02 52       		.byte	0x52
 7992 0a03 00000000 		.4byte	0
 7993 0a07 00000000 		.4byte	0
 7994              	.LLST46:
 7995 0a0b 00000000 		.4byte	.LVL195
 7996 0a0f 08000000 		.4byte	.LVL196
 7997 0a13 0100     		.2byte	0x1
 7998 0a15 50       		.byte	0x50
 7999 0a16 08000000 		.4byte	.LVL196
 8000 0a1a 26000000 		.4byte	.LVL199
 8001 0a1e 0100     		.2byte	0x1
 8002 0a20 54       		.byte	0x54
 8003 0a21 26000000 		.4byte	.LVL199
 8004 0a25 2C000000 		.4byte	.LFE8
 8005 0a29 0400     		.2byte	0x4
 8006 0a2b F3       		.byte	0xf3
 8007 0a2c 01       		.uleb128 0x1
 8008 0a2d 50       		.byte	0x50
 8009 0a2e 9F       		.byte	0x9f
 8010 0a2f 00000000 		.4byte	0
 8011 0a33 00000000 		.4byte	0
 8012              	.LLST47:
 8013 0a37 00000000 		.4byte	.LVL195
 8014 0a3b 0C000000 		.4byte	.LVL197
 8015 0a3f 0100     		.2byte	0x1
 8016 0a41 51       		.byte	0x51
 8017 0a42 0C000000 		.4byte	.LVL197
 8018 0a46 0F000000 		.4byte	.LVL198-1
 8019 0a4a 0100     		.2byte	0x1
 8020 0a4c 50       		.byte	0x50
 8021 0a4d 0F000000 		.4byte	.LVL198-1
 8022 0a51 2C000000 		.4byte	.LFE8
 8023 0a55 0400     		.2byte	0x4
ARM GAS  C:\Users\armst\AppData\Local\Temp\ccFg2asa.s 			page 160


 8024 0a57 F3       		.byte	0xf3
 8025 0a58 01       		.uleb128 0x1
 8026 0a59 51       		.byte	0x51
 8027 0a5a 9F       		.byte	0x9f
 8028 0a5b 00000000 		.4byte	0
 8029 0a5f 00000000 		.4byte	0
 8030              	.LLST48:
 8031 0a63 00000000 		.4byte	.LVL200
 8032 0a67 09000000 		.4byte	.LVL201-1
 8033 0a6b 0100     		.2byte	0x1
 8034 0a6d 50       		.byte	0x50
 8035 0a6e 09000000 		.4byte	.LVL201-1
 8036 0a72 CE000000 		.4byte	.LVL212
 8037 0a76 0100     		.2byte	0x1
 8038 0a78 54       		.byte	0x54
 8039 0a79 CE000000 		.4byte	.LVL212
 8040 0a7d F8000000 		.4byte	.LFE9
 8041 0a81 0400     		.2byte	0x4
 8042 0a83 F3       		.byte	0xf3
 8043 0a84 01       		.uleb128 0x1
 8044 0a85 50       		.byte	0x50
 8045 0a86 9F       		.byte	0x9f
 8046 0a87 00000000 		.4byte	0
 8047 0a8b 00000000 		.4byte	0
 8048              	.LLST49:
 8049 0a8f 00000000 		.4byte	.LVL200
 8050 0a93 09000000 		.4byte	.LVL201-1
 8051 0a97 0100     		.2byte	0x1
 8052 0a99 51       		.byte	0x51
 8053 0a9a 09000000 		.4byte	.LVL201-1
 8054 0a9e F8000000 		.4byte	.LFE9
 8055 0aa2 0400     		.2byte	0x4
 8056 0aa4 F3       		.byte	0xf3
 8057 0aa5 01       		.uleb128 0x1
 8058 0aa6 51       		.byte	0x51
 8059 0aa7 9F       		.byte	0x9f
 8060 0aa8 00000000 		.4byte	0
 8061 0aac 00000000 		.4byte	0
 8062              	.LLST50:
 8063 0ab0 00000000 		.4byte	.LVL213
 8064 0ab4 08000000 		.4byte	.LVL214
 8065 0ab8 0100     		.2byte	0x1
 8066 0aba 50       		.byte	0x50
 8067 0abb 08000000 		.4byte	.LVL214
 8068 0abf 2D000000 		.4byte	.LVL216-1
 8069 0ac3 0100     		.2byte	0x1
 8070 0ac5 53       		.byte	0x53
 8071 0ac6 2D000000 		.4byte	.LVL216-1
 8072 0aca 50000000 		.4byte	.LFE10
 8073 0ace 0400     		.2byte	0x4
 8074 0ad0 F3       		.byte	0xf3
 8075 0ad1 01       		.uleb128 0x1
 8076 0ad2 50       		.byte	0x50
 8077 0ad3 9F       		.byte	0x9f
 8078 0ad4 00000000 		.4byte	0
 8079 0ad8 00000000 		.4byte	0
 8080              	.LLST51:
ARM GAS  C:\Users\armst\AppData\Local\Temp\ccFg2asa.s 			page 161


 8081 0adc 00000000 		.4byte	.LVL213
 8082 0ae0 2A000000 		.4byte	.LVL215
 8083 0ae4 0100     		.2byte	0x1
 8084 0ae6 51       		.byte	0x51
 8085 0ae7 2A000000 		.4byte	.LVL215
 8086 0aeb 2D000000 		.4byte	.LVL216-1
 8087 0aef 0100     		.2byte	0x1
 8088 0af1 50       		.byte	0x50
 8089 0af2 2D000000 		.4byte	.LVL216-1
 8090 0af6 50000000 		.4byte	.LFE10
 8091 0afa 0400     		.2byte	0x4
 8092 0afc F3       		.byte	0xf3
 8093 0afd 01       		.uleb128 0x1
 8094 0afe 51       		.byte	0x51
 8095 0aff 9F       		.byte	0x9f
 8096 0b00 00000000 		.4byte	0
 8097 0b04 00000000 		.4byte	0
 8098              	.LLST52:
 8099 0b08 00000000 		.4byte	.LVL218
 8100 0b0c 08000000 		.4byte	.LVL219
 8101 0b10 0100     		.2byte	0x1
 8102 0b12 50       		.byte	0x50
 8103 0b13 08000000 		.4byte	.LVL219
 8104 0b17 82000000 		.4byte	.LVL223
 8105 0b1b 0100     		.2byte	0x1
 8106 0b1d 54       		.byte	0x54
 8107 0b1e 82000000 		.4byte	.LVL223
 8108 0b22 8C000000 		.4byte	.LFE11
 8109 0b26 0400     		.2byte	0x4
 8110 0b28 F3       		.byte	0xf3
 8111 0b29 01       		.uleb128 0x1
 8112 0b2a 50       		.byte	0x50
 8113 0b2b 9F       		.byte	0x9f
 8114 0b2c 00000000 		.4byte	0
 8115 0b30 00000000 		.4byte	0
 8116              	.LLST53:
 8117 0b34 00000000 		.4byte	.LVL218
 8118 0b38 3E000000 		.4byte	.LVL220
 8119 0b3c 0100     		.2byte	0x1
 8120 0b3e 51       		.byte	0x51
 8121 0b3f 3E000000 		.4byte	.LVL220
 8122 0b43 41000000 		.4byte	.LVL221-1
 8123 0b47 0100     		.2byte	0x1
 8124 0b49 50       		.byte	0x50
 8125 0b4a 41000000 		.4byte	.LVL221-1
 8126 0b4e 8C000000 		.4byte	.LFE11
 8127 0b52 0400     		.2byte	0x4
 8128 0b54 F3       		.byte	0xf3
 8129 0b55 01       		.uleb128 0x1
 8130 0b56 51       		.byte	0x51
 8131 0b57 9F       		.byte	0x9f
 8132 0b58 00000000 		.4byte	0
 8133 0b5c 00000000 		.4byte	0
 8134              	.LLST54:
 8135 0b60 00000000 		.4byte	.LVL224
 8136 0b64 08000000 		.4byte	.LVL225
 8137 0b68 0100     		.2byte	0x1
ARM GAS  C:\Users\armst\AppData\Local\Temp\ccFg2asa.s 			page 162


 8138 0b6a 50       		.byte	0x50
 8139 0b6b 08000000 		.4byte	.LVL225
 8140 0b6f 72000000 		.4byte	.LVL229
 8141 0b73 0100     		.2byte	0x1
 8142 0b75 54       		.byte	0x54
 8143 0b76 72000000 		.4byte	.LVL229
 8144 0b7a 7C000000 		.4byte	.LFE12
 8145 0b7e 0400     		.2byte	0x4
 8146 0b80 F3       		.byte	0xf3
 8147 0b81 01       		.uleb128 0x1
 8148 0b82 50       		.byte	0x50
 8149 0b83 9F       		.byte	0x9f
 8150 0b84 00000000 		.4byte	0
 8151 0b88 00000000 		.4byte	0
 8152              	.LLST55:
 8153 0b8c 00000000 		.4byte	.LVL224
 8154 0b90 44000000 		.4byte	.LVL226
 8155 0b94 0100     		.2byte	0x1
 8156 0b96 51       		.byte	0x51
 8157 0b97 44000000 		.4byte	.LVL226
 8158 0b9b 47000000 		.4byte	.LVL227-1
 8159 0b9f 0100     		.2byte	0x1
 8160 0ba1 50       		.byte	0x50
 8161 0ba2 47000000 		.4byte	.LVL227-1
 8162 0ba6 7C000000 		.4byte	.LFE12
 8163 0baa 0400     		.2byte	0x4
 8164 0bac F3       		.byte	0xf3
 8165 0bad 01       		.uleb128 0x1
 8166 0bae 51       		.byte	0x51
 8167 0baf 9F       		.byte	0x9f
 8168 0bb0 00000000 		.4byte	0
 8169 0bb4 00000000 		.4byte	0
 8170              	.LLST56:
 8171 0bb8 00000000 		.4byte	.LVL230
 8172 0bbc 08000000 		.4byte	.LVL231
 8173 0bc0 0100     		.2byte	0x1
 8174 0bc2 50       		.byte	0x50
 8175 0bc3 08000000 		.4byte	.LVL231
 8176 0bc7 51000000 		.4byte	.LVL233-1
 8177 0bcb 0100     		.2byte	0x1
 8178 0bcd 53       		.byte	0x53
 8179 0bce 51000000 		.4byte	.LVL233-1
 8180 0bd2 74000000 		.4byte	.LFE13
 8181 0bd6 0400     		.2byte	0x4
 8182 0bd8 F3       		.byte	0xf3
 8183 0bd9 01       		.uleb128 0x1
 8184 0bda 50       		.byte	0x50
 8185 0bdb 9F       		.byte	0x9f
 8186 0bdc 00000000 		.4byte	0
 8187 0be0 00000000 		.4byte	0
 8188              	.LLST57:
 8189 0be4 00000000 		.4byte	.LVL230
 8190 0be8 4E000000 		.4byte	.LVL232
 8191 0bec 0100     		.2byte	0x1
 8192 0bee 51       		.byte	0x51
 8193 0bef 4E000000 		.4byte	.LVL232
 8194 0bf3 51000000 		.4byte	.LVL233-1
ARM GAS  C:\Users\armst\AppData\Local\Temp\ccFg2asa.s 			page 163


 8195 0bf7 0100     		.2byte	0x1
 8196 0bf9 50       		.byte	0x50
 8197 0bfa 51000000 		.4byte	.LVL233-1
 8198 0bfe 74000000 		.4byte	.LFE13
 8199 0c02 0400     		.2byte	0x4
 8200 0c04 F3       		.byte	0xf3
 8201 0c05 01       		.uleb128 0x1
 8202 0c06 51       		.byte	0x51
 8203 0c07 9F       		.byte	0x9f
 8204 0c08 00000000 		.4byte	0
 8205 0c0c 00000000 		.4byte	0
 8206              	.LLST58:
 8207 0c10 00000000 		.4byte	.LVL235
 8208 0c14 08000000 		.4byte	.LVL236
 8209 0c18 0100     		.2byte	0x1
 8210 0c1a 50       		.byte	0x50
 8211 0c1b 08000000 		.4byte	.LVL236
 8212 0c1f 58000000 		.4byte	.LVL240
 8213 0c23 0100     		.2byte	0x1
 8214 0c25 54       		.byte	0x54
 8215 0c26 58000000 		.4byte	.LVL240
 8216 0c2a 64000000 		.4byte	.LFE14
 8217 0c2e 0400     		.2byte	0x4
 8218 0c30 F3       		.byte	0xf3
 8219 0c31 01       		.uleb128 0x1
 8220 0c32 50       		.byte	0x50
 8221 0c33 9F       		.byte	0x9f
 8222 0c34 00000000 		.4byte	0
 8223 0c38 00000000 		.4byte	0
 8224              	.LLST59:
 8225 0c3c 00000000 		.4byte	.LVL235
 8226 0c40 2A000000 		.4byte	.LVL237
 8227 0c44 0100     		.2byte	0x1
 8228 0c46 51       		.byte	0x51
 8229 0c47 2A000000 		.4byte	.LVL237
 8230 0c4b 2D000000 		.4byte	.LVL238-1
 8231 0c4f 0100     		.2byte	0x1
 8232 0c51 50       		.byte	0x50
 8233 0c52 2D000000 		.4byte	.LVL238-1
 8234 0c56 64000000 		.4byte	.LFE14
 8235 0c5a 0400     		.2byte	0x4
 8236 0c5c F3       		.byte	0xf3
 8237 0c5d 01       		.uleb128 0x1
 8238 0c5e 51       		.byte	0x51
 8239 0c5f 9F       		.byte	0x9f
 8240 0c60 00000000 		.4byte	0
 8241 0c64 00000000 		.4byte	0
 8242              	.LLST60:
 8243 0c68 00000000 		.4byte	.LVL241
 8244 0c6c 08000000 		.4byte	.LVL242
 8245 0c70 0100     		.2byte	0x1
 8246 0c72 50       		.byte	0x50
 8247 0c73 08000000 		.4byte	.LVL242
 8248 0c77 2D000000 		.4byte	.LVL244-1
 8249 0c7b 0100     		.2byte	0x1
 8250 0c7d 53       		.byte	0x53
 8251 0c7e 2D000000 		.4byte	.LVL244-1
ARM GAS  C:\Users\armst\AppData\Local\Temp\ccFg2asa.s 			page 164


 8252 0c82 50000000 		.4byte	.LFE15
 8253 0c86 0400     		.2byte	0x4
 8254 0c88 F3       		.byte	0xf3
 8255 0c89 01       		.uleb128 0x1
 8256 0c8a 50       		.byte	0x50
 8257 0c8b 9F       		.byte	0x9f
 8258 0c8c 00000000 		.4byte	0
 8259 0c90 00000000 		.4byte	0
 8260              	.LLST61:
 8261 0c94 00000000 		.4byte	.LVL241
 8262 0c98 2A000000 		.4byte	.LVL243
 8263 0c9c 0100     		.2byte	0x1
 8264 0c9e 51       		.byte	0x51
 8265 0c9f 2A000000 		.4byte	.LVL243
 8266 0ca3 2D000000 		.4byte	.LVL244-1
 8267 0ca7 0100     		.2byte	0x1
 8268 0ca9 50       		.byte	0x50
 8269 0caa 2D000000 		.4byte	.LVL244-1
 8270 0cae 50000000 		.4byte	.LFE15
 8271 0cb2 0400     		.2byte	0x4
 8272 0cb4 F3       		.byte	0xf3
 8273 0cb5 01       		.uleb128 0x1
 8274 0cb6 51       		.byte	0x51
 8275 0cb7 9F       		.byte	0x9f
 8276 0cb8 00000000 		.4byte	0
 8277 0cbc 00000000 		.4byte	0
 8278              	.LLST62:
 8279 0cc0 00000000 		.4byte	.LVL246
 8280 0cc4 08000000 		.4byte	.LVL247
 8281 0cc8 0100     		.2byte	0x1
 8282 0cca 50       		.byte	0x50
 8283 0ccb 08000000 		.4byte	.LVL247
 8284 0ccf 59000000 		.4byte	.LVL249-1
 8285 0cd3 0100     		.2byte	0x1
 8286 0cd5 53       		.byte	0x53
 8287 0cd6 59000000 		.4byte	.LVL249-1
 8288 0cda 7C000000 		.4byte	.LFE16
 8289 0cde 0400     		.2byte	0x4
 8290 0ce0 F3       		.byte	0xf3
 8291 0ce1 01       		.uleb128 0x1
 8292 0ce2 50       		.byte	0x50
 8293 0ce3 9F       		.byte	0x9f
 8294 0ce4 00000000 		.4byte	0
 8295 0ce8 00000000 		.4byte	0
 8296              	.LLST63:
 8297 0cec 00000000 		.4byte	.LVL246
 8298 0cf0 56000000 		.4byte	.LVL248
 8299 0cf4 0100     		.2byte	0x1
 8300 0cf6 51       		.byte	0x51
 8301 0cf7 56000000 		.4byte	.LVL248
 8302 0cfb 59000000 		.4byte	.LVL249-1
 8303 0cff 0100     		.2byte	0x1
 8304 0d01 50       		.byte	0x50
 8305 0d02 59000000 		.4byte	.LVL249-1
 8306 0d06 7C000000 		.4byte	.LFE16
 8307 0d0a 0400     		.2byte	0x4
 8308 0d0c F3       		.byte	0xf3
ARM GAS  C:\Users\armst\AppData\Local\Temp\ccFg2asa.s 			page 165


 8309 0d0d 01       		.uleb128 0x1
 8310 0d0e 51       		.byte	0x51
 8311 0d0f 9F       		.byte	0x9f
 8312 0d10 00000000 		.4byte	0
 8313 0d14 00000000 		.4byte	0
 8314              	.LLST64:
 8315 0d18 00000000 		.4byte	.LVL251
 8316 0d1c 08000000 		.4byte	.LVL252
 8317 0d20 0100     		.2byte	0x1
 8318 0d22 50       		.byte	0x50
 8319 0d23 08000000 		.4byte	.LVL252
 8320 0d27 9A000000 		.4byte	.LVL256
 8321 0d2b 0100     		.2byte	0x1
 8322 0d2d 54       		.byte	0x54
 8323 0d2e 9A000000 		.4byte	.LVL256
 8324 0d32 A4000000 		.4byte	.LFE17
 8325 0d36 0400     		.2byte	0x4
 8326 0d38 F3       		.byte	0xf3
 8327 0d39 01       		.uleb128 0x1
 8328 0d3a 50       		.byte	0x50
 8329 0d3b 9F       		.byte	0x9f
 8330 0d3c 00000000 		.4byte	0
 8331 0d40 00000000 		.4byte	0
 8332              	.LLST65:
 8333 0d44 00000000 		.4byte	.LVL251
 8334 0d48 3C000000 		.4byte	.LVL253
 8335 0d4c 0100     		.2byte	0x1
 8336 0d4e 51       		.byte	0x51
 8337 0d4f 3C000000 		.4byte	.LVL253
 8338 0d53 3F000000 		.4byte	.LVL254-1
 8339 0d57 0100     		.2byte	0x1
 8340 0d59 50       		.byte	0x50
 8341 0d5a 3F000000 		.4byte	.LVL254-1
 8342 0d5e A4000000 		.4byte	.LFE17
 8343 0d62 0400     		.2byte	0x4
 8344 0d64 F3       		.byte	0xf3
 8345 0d65 01       		.uleb128 0x1
 8346 0d66 51       		.byte	0x51
 8347 0d67 9F       		.byte	0x9f
 8348 0d68 00000000 		.4byte	0
 8349 0d6c 00000000 		.4byte	0
 8350              	.LLST66:
 8351 0d70 00000000 		.4byte	.LVL257
 8352 0d74 08000000 		.4byte	.LVL258
 8353 0d78 0100     		.2byte	0x1
 8354 0d7a 50       		.byte	0x50
 8355 0d7b 08000000 		.4byte	.LVL258
 8356 0d7f 62000000 		.4byte	.LVL262
 8357 0d83 0100     		.2byte	0x1
 8358 0d85 54       		.byte	0x54
 8359 0d86 62000000 		.4byte	.LVL262
 8360 0d8a 6C000000 		.4byte	.LFE18
 8361 0d8e 0400     		.2byte	0x4
 8362 0d90 F3       		.byte	0xf3
 8363 0d91 01       		.uleb128 0x1
 8364 0d92 50       		.byte	0x50
 8365 0d93 9F       		.byte	0x9f
ARM GAS  C:\Users\armst\AppData\Local\Temp\ccFg2asa.s 			page 166


 8366 0d94 00000000 		.4byte	0
 8367 0d98 00000000 		.4byte	0
 8368              	.LLST67:
 8369 0d9c 00000000 		.4byte	.LVL257
 8370 0da0 24000000 		.4byte	.LVL259
 8371 0da4 0100     		.2byte	0x1
 8372 0da6 51       		.byte	0x51
 8373 0da7 24000000 		.4byte	.LVL259
 8374 0dab 27000000 		.4byte	.LVL260-1
 8375 0daf 0100     		.2byte	0x1
 8376 0db1 50       		.byte	0x50
 8377 0db2 27000000 		.4byte	.LVL260-1
 8378 0db6 6C000000 		.4byte	.LFE18
 8379 0dba 0400     		.2byte	0x4
 8380 0dbc F3       		.byte	0xf3
 8381 0dbd 01       		.uleb128 0x1
 8382 0dbe 51       		.byte	0x51
 8383 0dbf 9F       		.byte	0x9f
 8384 0dc0 00000000 		.4byte	0
 8385 0dc4 00000000 		.4byte	0
 8386              	.LLST68:
 8387 0dc8 00000000 		.4byte	.LVL263
 8388 0dcc 0A000000 		.4byte	.LVL264
 8389 0dd0 0100     		.2byte	0x1
 8390 0dd2 50       		.byte	0x50
 8391 0dd3 0A000000 		.4byte	.LVL264
 8392 0dd7 54000000 		.4byte	.LVL268
 8393 0ddb 0100     		.2byte	0x1
 8394 0ddd 54       		.byte	0x54
 8395 0dde 54000000 		.4byte	.LVL268
 8396 0de2 60000000 		.4byte	.LFE19
 8397 0de6 0400     		.2byte	0x4
 8398 0de8 F3       		.byte	0xf3
 8399 0de9 01       		.uleb128 0x1
 8400 0dea 50       		.byte	0x50
 8401 0deb 9F       		.byte	0x9f
 8402 0dec 00000000 		.4byte	0
 8403 0df0 00000000 		.4byte	0
 8404              	.LLST69:
 8405 0df4 00000000 		.4byte	.LVL263
 8406 0df8 18000000 		.4byte	.LVL266
 8407 0dfc 0100     		.2byte	0x1
 8408 0dfe 51       		.byte	0x51
 8409 0dff 18000000 		.4byte	.LVL266
 8410 0e03 54000000 		.4byte	.LVL269
 8411 0e07 0100     		.2byte	0x1
 8412 0e09 55       		.byte	0x55
 8413 0e0a 54000000 		.4byte	.LVL269
 8414 0e0e 60000000 		.4byte	.LFE19
 8415 0e12 0400     		.2byte	0x4
 8416 0e14 F3       		.byte	0xf3
 8417 0e15 01       		.uleb128 0x1
 8418 0e16 51       		.byte	0x51
 8419 0e17 9F       		.byte	0x9f
 8420 0e18 00000000 		.4byte	0
 8421 0e1c 00000000 		.4byte	0
 8422              	.LLST70:
ARM GAS  C:\Users\armst\AppData\Local\Temp\ccFg2asa.s 			page 167


 8423 0e20 00000000 		.4byte	.LVL263
 8424 0e24 16000000 		.4byte	.LVL265
 8425 0e28 0100     		.2byte	0x1
 8426 0e2a 52       		.byte	0x52
 8427 0e2b 16000000 		.4byte	.LVL265
 8428 0e2f 54000000 		.4byte	.LVL270
 8429 0e33 0100     		.2byte	0x1
 8430 0e35 56       		.byte	0x56
 8431 0e36 54000000 		.4byte	.LVL270
 8432 0e3a 60000000 		.4byte	.LFE19
 8433 0e3e 0400     		.2byte	0x4
 8434 0e40 F3       		.byte	0xf3
 8435 0e41 01       		.uleb128 0x1
 8436 0e42 52       		.byte	0x52
 8437 0e43 9F       		.byte	0x9f
 8438 0e44 00000000 		.4byte	0
 8439 0e48 00000000 		.4byte	0
 8440              		.section	.debug_aranges,"",%progbits
 8441 0000 94000000 		.4byte	0x94
 8442 0004 0200     		.2byte	0x2
 8443 0006 00000000 		.4byte	.Ldebug_info0
 8444 000a 04       		.byte	0x4
 8445 000b 00       		.byte	0
 8446 000c 0000     		.2byte	0
 8447 000e 0000     		.2byte	0
 8448 0010 00000000 		.4byte	.LFB4
 8449 0014 30000000 		.4byte	.LFE4-.LFB4
 8450 0018 00000000 		.4byte	.LFB5
 8451 001c 1E000000 		.4byte	.LFE5-.LFB5
 8452 0020 00000000 		.4byte	.LFB6
 8453 0024 88000000 		.4byte	.LFE6-.LFB6
 8454 0028 00000000 		.4byte	.LFB7
 8455 002c 50050000 		.4byte	.LFE7-.LFB7
 8456 0030 00000000 		.4byte	.LFB8
 8457 0034 2C000000 		.4byte	.LFE8-.LFB8
 8458 0038 00000000 		.4byte	.LFB9
 8459 003c F8000000 		.4byte	.LFE9-.LFB9
 8460 0040 00000000 		.4byte	.LFB10
 8461 0044 50000000 		.4byte	.LFE10-.LFB10
 8462 0048 00000000 		.4byte	.LFB11
 8463 004c 8C000000 		.4byte	.LFE11-.LFB11
 8464 0050 00000000 		.4byte	.LFB12
 8465 0054 7C000000 		.4byte	.LFE12-.LFB12
 8466 0058 00000000 		.4byte	.LFB13
 8467 005c 74000000 		.4byte	.LFE13-.LFB13
 8468 0060 00000000 		.4byte	.LFB14
 8469 0064 64000000 		.4byte	.LFE14-.LFB14
 8470 0068 00000000 		.4byte	.LFB15
 8471 006c 50000000 		.4byte	.LFE15-.LFB15
 8472 0070 00000000 		.4byte	.LFB16
 8473 0074 7C000000 		.4byte	.LFE16-.LFB16
 8474 0078 00000000 		.4byte	.LFB17
 8475 007c A4000000 		.4byte	.LFE17-.LFB17
 8476 0080 00000000 		.4byte	.LFB18
 8477 0084 6C000000 		.4byte	.LFE18-.LFB18
 8478 0088 00000000 		.4byte	.LFB19
 8479 008c 60000000 		.4byte	.LFE19-.LFB19
ARM GAS  C:\Users\armst\AppData\Local\Temp\ccFg2asa.s 			page 168


 8480 0090 00000000 		.4byte	0
 8481 0094 00000000 		.4byte	0
 8482              		.section	.debug_ranges,"",%progbits
 8483              	.Ldebug_ranges0:
 8484 0000 2E000000 		.4byte	.LBB37
 8485 0004 52000000 		.4byte	.LBE37
 8486 0008 70000000 		.4byte	.LBB38
 8487 000c 7C000000 		.4byte	.LBE38
 8488 0010 00000000 		.4byte	0
 8489 0014 00000000 		.4byte	0
 8490 0018 24000000 		.4byte	.LBB39
 8491 001c 3E010000 		.4byte	.LBE39
 8492 0020 42010000 		.4byte	.LBB85
 8493 0024 80010000 		.4byte	.LBE85
 8494 0028 82010000 		.4byte	.LBB86
 8495 002c 4C020000 		.4byte	.LBE86
 8496 0030 50020000 		.4byte	.LBB87
 8497 0034 A8030000 		.4byte	.LBE87
 8498 0038 AC030000 		.4byte	.LBB88
 8499 003c 9C040000 		.4byte	.LBE88
 8500 0040 A0040000 		.4byte	.LBB89
 8501 0044 FA040000 		.4byte	.LBE89
 8502 0048 00000000 		.4byte	0
 8503 004c 00000000 		.4byte	0
 8504 0050 EA000000 		.4byte	.LBB46
 8505 0054 3E010000 		.4byte	.LBE46
 8506 0058 42010000 		.4byte	.LBB51
 8507 005c 80010000 		.4byte	.LBE51
 8508 0060 82010000 		.4byte	.LBB52
 8509 0064 10020000 		.4byte	.LBE52
 8510 0068 00000000 		.4byte	0
 8511 006c 00000000 		.4byte	0
 8512 0070 1A010000 		.4byte	.LBB47
 8513 0074 3E010000 		.4byte	.LBE47
 8514 0078 42010000 		.4byte	.LBB48
 8515 007c 5C010000 		.4byte	.LBE48
 8516 0080 00000000 		.4byte	0
 8517 0084 00000000 		.4byte	0
 8518 0088 12020000 		.4byte	.LBB53
 8519 008c 4C020000 		.4byte	.LBE53
 8520 0090 50020000 		.4byte	.LBB57
 8521 0094 5C020000 		.4byte	.LBE57
 8522 0098 00000000 		.4byte	0
 8523 009c 00000000 		.4byte	0
 8524 00a0 0C030000 		.4byte	.LBB65
 8525 00a4 A8030000 		.4byte	.LBE65
 8526 00a8 AC030000 		.4byte	.LBB72
 8527 00ac BC030000 		.4byte	.LBE72
 8528 00b0 00000000 		.4byte	0
 8529 00b4 00000000 		.4byte	0
 8530 00b8 4C030000 		.4byte	.LBB68
 8531 00bc 5A030000 		.4byte	.LBE68
 8532 00c0 5C030000 		.4byte	.LBB71
 8533 00c4 A8030000 		.4byte	.LBE71
 8534 00c8 00000000 		.4byte	0
 8535 00cc 00000000 		.4byte	0
 8536 00d0 4C030000 		.4byte	.LBB69
ARM GAS  C:\Users\armst\AppData\Local\Temp\ccFg2asa.s 			page 169


 8537 00d4 5A030000 		.4byte	.LBE69
 8538 00d8 5C030000 		.4byte	.LBB70
 8539 00dc 60030000 		.4byte	.LBE70
 8540 00e0 00000000 		.4byte	0
 8541 00e4 00000000 		.4byte	0
 8542 00e8 BE030000 		.4byte	.LBB73
 8543 00ec 9C040000 		.4byte	.LBE73
 8544 00f0 A0040000 		.4byte	.LBB82
 8545 00f4 BA040000 		.4byte	.LBE82
 8546 00f8 00000000 		.4byte	0
 8547 00fc 00000000 		.4byte	0
 8548 0100 02040000 		.4byte	.LBB76
 8549 0104 10040000 		.4byte	.LBE76
 8550 0108 12040000 		.4byte	.LBB81
 8551 010c 9C040000 		.4byte	.LBE81
 8552 0110 00000000 		.4byte	0
 8553 0114 00000000 		.4byte	0
 8554 0118 02040000 		.4byte	.LBB77
 8555 011c 10040000 		.4byte	.LBE77
 8556 0120 12040000 		.4byte	.LBB78
 8557 0124 16040000 		.4byte	.LBE78
 8558 0128 00000000 		.4byte	0
 8559 012c 00000000 		.4byte	0
 8560 0130 6C040000 		.4byte	.LBB79
 8561 0134 82040000 		.4byte	.LBE79
 8562 0138 86040000 		.4byte	.LBB80
 8563 013c 9A040000 		.4byte	.LBE80
 8564 0140 00000000 		.4byte	0
 8565 0144 00000000 		.4byte	0
 8566 0148 00000000 		.4byte	.LFB4
 8567 014c 30000000 		.4byte	.LFE4
 8568 0150 00000000 		.4byte	.LFB5
 8569 0154 1E000000 		.4byte	.LFE5
 8570 0158 00000000 		.4byte	.LFB6
 8571 015c 88000000 		.4byte	.LFE6
 8572 0160 00000000 		.4byte	.LFB7
 8573 0164 50050000 		.4byte	.LFE7
 8574 0168 00000000 		.4byte	.LFB8
 8575 016c 2C000000 		.4byte	.LFE8
 8576 0170 00000000 		.4byte	.LFB9
 8577 0174 F8000000 		.4byte	.LFE9
 8578 0178 00000000 		.4byte	.LFB10
 8579 017c 50000000 		.4byte	.LFE10
 8580 0180 00000000 		.4byte	.LFB11
 8581 0184 8C000000 		.4byte	.LFE11
 8582 0188 00000000 		.4byte	.LFB12
 8583 018c 7C000000 		.4byte	.LFE12
 8584 0190 00000000 		.4byte	.LFB13
 8585 0194 74000000 		.4byte	.LFE13
 8586 0198 00000000 		.4byte	.LFB14
 8587 019c 64000000 		.4byte	.LFE14
 8588 01a0 00000000 		.4byte	.LFB15
 8589 01a4 50000000 		.4byte	.LFE15
 8590 01a8 00000000 		.4byte	.LFB16
 8591 01ac 7C000000 		.4byte	.LFE16
 8592 01b0 00000000 		.4byte	.LFB17
 8593 01b4 A4000000 		.4byte	.LFE17
ARM GAS  C:\Users\armst\AppData\Local\Temp\ccFg2asa.s 			page 170


 8594 01b8 00000000 		.4byte	.LFB18
 8595 01bc 6C000000 		.4byte	.LFE18
 8596 01c0 00000000 		.4byte	.LFB19
 8597 01c4 60000000 		.4byte	.LFE19
 8598 01c8 00000000 		.4byte	0
 8599 01cc 00000000 		.4byte	0
 8600              		.section	.debug_line,"",%progbits
 8601              	.Ldebug_line0:
 8602 0000 23060000 		.section	.debug_str,"MS",%progbits,1
 8602      02005902 
 8602      00000201 
 8602      FB0E0D00 
 8602      01010101 
 8603              	.LASF34:
 8604 0000 4D494E4D 		.ascii	"MINMEA_SENTENCE_GLL\000"
 8604      45415F53 
 8604      454E5445 
 8604      4E43455F 
 8604      474C4C00 
 8605              	.LASF40:
 8606 0014 4D494E4D 		.ascii	"MINMEA_SENTENCE_ZDA\000"
 8606      45415F53 
 8606      454E5445 
 8606      4E43455F 
 8606      5A444100 
 8607              	.LASF101:
 8608 0028 73617473 		.ascii	"sats\000"
 8608      00
 8609              	.LASF54:
 8610 002d 6572725F 		.ascii	"err_latitude\000"
 8610      6C617469 
 8610      74756465 
 8610      00
 8611              	.LASF124:
 8612 003a 6D696E6D 		.ascii	"minmea_check\000"
 8612      65615F63 
 8612      6865636B 
 8612      00
 8613              	.LASF145:
 8614 0047 73417272 		.ascii	"sArr\000"
 8614      00
 8615              	.LASF104:
 8616 004c 6D696E6D 		.ascii	"minmea_sat_info\000"
 8616      65615F73 
 8616      61745F69 
 8616      6E666F00 
 8617              	.LASF131:
 8618 005c 666F726D 		.ascii	"format\000"
 8618      617400
 8619              	.LASF26:
 8620 0063 746D5F79 		.ascii	"tm_yday\000"
 8620      64617900 
 8621              	.LASF78:
 8622 006b 64677073 		.ascii	"dgps_age\000"
 8622      5F616765 
 8622      00
 8623              	.LASF30:
ARM GAS  C:\Users\armst\AppData\Local\Temp\ccFg2asa.s 			page 171


 8624 0074 4D494E4D 		.ascii	"MINMEA_INVALID\000"
 8624      45415F49 
 8624      4E56414C 
 8624      494400
 8625              	.LASF11:
 8626 0083 756E7369 		.ascii	"unsigned int\000"
 8626      676E6564 
 8626      20696E74 
 8626      00
 8627              	.LASF105:
 8628 0090 656C6576 		.ascii	"elevation\000"
 8628      6174696F 
 8628      6E00
 8629              	.LASF138:
 8630 009a 656E6470 		.ascii	"endptr\000"
 8630      747200
 8631              	.LASF66:
 8632 00a1 636F7572 		.ascii	"course\000"
 8632      736500
 8633              	.LASF163:
 8634 00a8 635F6B6E 		.ascii	"c_knots\000"
 8634      6F747300 
 8635              	.LASF22:
 8636 00b0 746D5F6D 		.ascii	"tm_mday\000"
 8636      64617900 
 8637              	.LASF65:
 8638 00b8 73706565 		.ascii	"speed\000"
 8638      6400
 8639              	.LASF10:
 8640 00be 5F5F696E 		.ascii	"__int_least32_t\000"
 8640      745F6C65 
 8640      61737433 
 8640      325F7400 
 8641              	.LASF41:
 8642 00ce 6D696E6D 		.ascii	"minmea_float\000"
 8642      65615F66 
 8642      6C6F6174 
 8642      00
 8643              	.LASF90:
 8644 00db 6D6F6465 		.ascii	"mode\000"
 8644      00
 8645              	.LASF70:
 8646 00e0 6D696E6D 		.ascii	"minmea_sentence_gga\000"
 8646      65615F73 
 8646      656E7465 
 8646      6E63655F 
 8646      67676100 
 8647              	.LASF164:
 8648 00f4 635F6B70 		.ascii	"c_kph\000"
 8648      6800
 8649              	.LASF157:
 8650 00fa 6D696E6D 		.ascii	"minmea_parse_gll\000"
 8650      65615F70 
 8650      61727365 
 8650      5F676C6C 
 8650      00
 8651              	.LASF166:
ARM GAS  C:\Users\armst\AppData\Local\Temp\ccFg2asa.s 			page 172


 8652 010b 6D696E6D 		.ascii	"minmea_parse_zda\000"
 8652      65615F70 
 8652      61727365 
 8652      5F7A6461 
 8652      00
 8653              	.LASF137:
 8654 011c 64696769 		.ascii	"digit\000"
 8654      7400
 8655              	.LASF79:
 8656 0122 6D696E6D 		.ascii	"minmea_sentence_id\000"
 8656      65615F73 
 8656      656E7465 
 8656      6E63655F 
 8656      696400
 8657              	.LASF72:
 8658 0135 73617465 		.ascii	"satellites_tracked\000"
 8658      6C6C6974 
 8658      65735F74 
 8658      7261636B 
 8658      656400
 8659              	.LASF97:
 8660 0148 6C6F6E67 		.ascii	"longitude_error_deviation\000"
 8660      69747564 
 8660      655F6572 
 8660      726F725F 
 8660      64657669 
 8661              	.LASF122:
 8662 0162 73656E74 		.ascii	"sentence\000"
 8662      656E6365 
 8662      00
 8663              	.LASF151:
 8664 016b 76616C69 		.ascii	"validity\000"
 8664      64697479 
 8664      00
 8665              	.LASF14:
 8666 0174 75696E74 		.ascii	"uint32_t\000"
 8666      33325F74 
 8666      00
 8667              	.LASF56:
 8668 017d 6572725F 		.ascii	"err_altitude\000"
 8668      616C7469 
 8668      74756465 
 8668      00
 8669              	.LASF23:
 8670 018a 746D5F6D 		.ascii	"tm_mon\000"
 8670      6F6E00
 8671              	.LASF52:
 8672 0191 6D696E6D 		.ascii	"minmea_sentence_gbs\000"
 8672      65615F73 
 8672      656E7465 
 8672      6E63655F 
 8672      67627300 
 8673              	.LASF29:
 8674 01a5 666C6F61 		.ascii	"float\000"
 8674      7400
 8675              	.LASF98:
 8676 01ab 616C7469 		.ascii	"altitude_error_deviation\000"
ARM GAS  C:\Users\armst\AppData\Local\Temp\ccFg2asa.s 			page 173


 8676      74756465 
 8676      5F657272 
 8676      6F725F64 
 8676      65766961 
 8677              	.LASF172:
 8678 01c4 474E5520 		.ascii	"GNU C11 5.4.1 20160609 (release) [ARM/embedded-5-br"
 8678      43313120 
 8678      352E342E 
 8678      31203230 
 8678      31363036 
 8679 01f7 616E6368 		.ascii	"anch revision 237715] -mcpu=cortex-m0plus -mthumb -"
 8679      20726576 
 8679      6973696F 
 8679      6E203233 
 8679      37373135 
 8680 022a 67202D4F 		.ascii	"g -Og -ffunction-sections -ffat-lto-objects\000"
 8680      67202D66 
 8680      66756E63 
 8680      74696F6E 
 8680      2D736563 
 8681              	.LASF134:
 8682 0256 6669656C 		.ascii	"field\000"
 8682      6400
 8683              	.LASF59:
 8684 025c 62696173 		.ascii	"bias\000"
 8684      00
 8685              	.LASF132:
 8686 0261 72657375 		.ascii	"result\000"
 8686      6C7400
 8687              	.LASF154:
 8688 0268 76617269 		.ascii	"variation_direction\000"
 8688      6174696F 
 8688      6E5F6469 
 8688      72656374 
 8688      696F6E00 
 8689              	.LASF102:
 8690 027c 70646F70 		.ascii	"pdop\000"
 8690      00
 8691              	.LASF161:
 8692 0281 635F7472 		.ascii	"c_true\000"
 8692      756500
 8693              	.LASF9:
 8694 0288 6C6F6E67 		.ascii	"long long unsigned int\000"
 8694      206C6F6E 
 8694      6720756E 
 8694      7369676E 
 8694      65642069 
 8695              	.LASF113:
 8696 029f 6D61676E 		.ascii	"magnetic_track_degrees\000"
 8696      65746963 
 8696      5F747261 
 8696      636B5F64 
 8696      65677265 
 8697              	.LASF174:
 8698 02b6 433A5C55 		.ascii	"C:\\Users\\armst\\Documents\\PSoC Creator\\Ocean Cl"
 8698      73657273 
 8698      5C61726D 
ARM GAS  C:\Users\armst\AppData\Local\Temp\ccFg2asa.s 			page 174


 8698      73745C44 
 8698      6F63756D 
 8699 02e4 65616E75 		.ascii	"eanup ROV Controls Firmware\\betawble.cydsn\000"
 8699      7020524F 
 8699      5620436F 
 8699      6E74726F 
 8699      6C732046 
 8700              	.LASF53:
 8701 030f 74696D65 		.ascii	"time\000"
 8701      00
 8702              	.LASF128:
 8703 0314 6C6F7765 		.ascii	"lower\000"
 8703      7200
 8704              	.LASF42:
 8705 031a 76616C75 		.ascii	"value\000"
 8705      6500
 8706              	.LASF31:
 8707 0320 4D494E4D 		.ascii	"MINMEA_UNKNOWN\000"
 8707      45415F55 
 8707      4E4B4E4F 
 8707      574E00
 8708              	.LASF120:
 8709 032f 5F5F676E 		.ascii	"__gnuc_va_list\000"
 8709      75635F76 
 8709      615F6C69 
 8709      737400
 8710              	.LASF73:
 8711 033e 68646F70 		.ascii	"hdop\000"
 8711      00
 8712              	.LASF136:
 8713 0343 7369676E 		.ascii	"sign\000"
 8713      00
 8714              	.LASF152:
 8715 0348 6C617469 		.ascii	"latitude_direction\000"
 8715      74756465 
 8715      5F646972 
 8715      65637469 
 8715      6F6E00
 8716              	.LASF114:
 8717 035b 73706565 		.ascii	"speed_knots\000"
 8717      645F6B6E 
 8717      6F747300 
 8718              	.LASF165:
 8719 0367 635F6661 		.ascii	"c_faa_mode\000"
 8719      615F6D6F 
 8719      646500
 8720              	.LASF69:
 8721 0372 5F426F6F 		.ascii	"_Bool\000"
 8721      6C00
 8722              	.LASF45:
 8723 0378 6D6F6E74 		.ascii	"month\000"
 8723      6800
 8724              	.LASF95:
 8725 037e 73656D69 		.ascii	"semi_major_orientation\000"
 8725      5F6D616A 
 8725      6F725F6F 
 8725      7269656E 
ARM GAS  C:\Users\armst\AppData\Local\Temp\ccFg2asa.s 			page 175


 8725      74617469 
 8726              	.LASF32:
 8727 0395 4D494E4D 		.ascii	"MINMEA_SENTENCE_GBS\000"
 8727      45415F53 
 8727      454E5445 
 8727      4E43455F 
 8727      47425300 
 8728              	.LASF81:
 8729 03a9 4D494E4D 		.ascii	"MINMEA_FAA_MODE_AUTONOMOUS\000"
 8729      45415F46 
 8729      41415F4D 
 8729      4F44455F 
 8729      4155544F 
 8730              	.LASF63:
 8731 03c4 6C617469 		.ascii	"latitude\000"
 8731      74756465 
 8731      00
 8732              	.LASF126:
 8733 03cd 63686563 		.ascii	"checksum\000"
 8733      6B73756D 
 8733      00
 8734              	.LASF82:
 8735 03d6 4D494E4D 		.ascii	"MINMEA_FAA_MODE_DIFFERENTIAL\000"
 8735      45415F46 
 8735      41415F4D 
 8735      4F44455F 
 8735      44494646 
 8736              	.LASF64:
 8737 03f3 6C6F6E67 		.ascii	"longitude\000"
 8737      69747564 
 8737      6500
 8738              	.LASF17:
 8739 03fd 63686172 		.ascii	"char\000"
 8739      00
 8740              	.LASF68:
 8741 0402 76617269 		.ascii	"variation\000"
 8741      6174696F 
 8741      6E00
 8742              	.LASF38:
 8743 040c 4D494E4D 		.ascii	"MINMEA_SENTENCE_RMC\000"
 8743      45415F53 
 8743      454E5445 
 8743      4E43455F 
 8743      524D4300 
 8744              	.LASF96:
 8745 0420 6C617469 		.ascii	"latitude_error_deviation\000"
 8745      74756465 
 8745      5F657272 
 8745      6F725F64 
 8745      65766961 
 8746              	.LASF92:
 8747 0439 726D735F 		.ascii	"rms_deviation\000"
 8747      64657669 
 8747      6174696F 
 8747      6E00
 8748              	.LASF24:
 8749 0447 746D5F79 		.ascii	"tm_year\000"
ARM GAS  C:\Users\armst\AppData\Local\Temp\ccFg2asa.s 			page 176


 8749      65617200 
 8750              	.LASF80:
 8751 044f 6D696E6D 		.ascii	"minmea_faa_mode\000"
 8751      65615F66 
 8751      61615F6D 
 8751      6F646500 
 8752              	.LASF108:
 8753 045f 746F7461 		.ascii	"total_msgs\000"
 8753      6C5F6D73 
 8753      677300
 8754              	.LASF142:
 8755 046a 74696D65 		.ascii	"time_\000"
 8755      5F00
 8756              	.LASF147:
 8757 0470 74616C6B 		.ascii	"talker\000"
 8757      657200
 8758              	.LASF67:
 8759 0477 64617465 		.ascii	"date\000"
 8759      00
 8760              	.LASF35:
 8761 047c 4D494E4D 		.ascii	"MINMEA_SENTENCE_GSA\000"
 8761      45415F53 
 8761      454E5445 
 8761      4E43455F 
 8761      47534100 
 8762              	.LASF13:
 8763 0490 75696E74 		.ascii	"uint8_t\000"
 8763      385F7400 
 8764              	.LASF89:
 8765 0498 73746174 		.ascii	"status\000"
 8765      757300
 8766              	.LASF55:
 8767 049f 6572725F 		.ascii	"err_longitude\000"
 8767      6C6F6E67 
 8767      69747564 
 8767      6500
 8768              	.LASF36:
 8769 04ad 4D494E4D 		.ascii	"MINMEA_SENTENCE_GST\000"
 8769      45415F53 
 8769      454E5445 
 8769      4E43455F 
 8769      47535400 
 8770              	.LASF37:
 8771 04c1 4D494E4D 		.ascii	"MINMEA_SENTENCE_GSV\000"
 8771      45415F53 
 8771      454E5445 
 8771      4E43455F 
 8771      47535600 
 8772              	.LASF39:
 8773 04d5 4D494E4D 		.ascii	"MINMEA_SENTENCE_VTG\000"
 8773      45415F53 
 8773      454E5445 
 8773      4E43455F 
 8773      56544700 
 8774              	.LASF88:
 8775 04e9 6D696E6D 		.ascii	"minmea_sentence_gll\000"
 8775      65615F73 
ARM GAS  C:\Users\armst\AppData\Local\Temp\ccFg2asa.s 			page 177


 8775      656E7465 
 8775      6E63655F 
 8775      676C6C00 
 8776              	.LASF117:
 8777 04fd 6D696E6D 		.ascii	"minmea_sentence_zda\000"
 8777      65615F73 
 8777      656E7465 
 8777      6E63655F 
 8777      7A646100 
 8778              	.LASF94:
 8779 0511 73656D69 		.ascii	"semi_minor_deviation\000"
 8779      5F6D696E 
 8779      6F725F64 
 8779      65766961 
 8779      74696F6E 
 8780              	.LASF121:
 8781 0526 76615F6C 		.ascii	"va_list\000"
 8781      69737400 
 8782              	.LASF8:
 8783 052e 6C6F6E67 		.ascii	"long long int\000"
 8783      206C6F6E 
 8783      6720696E 
 8783      7400
 8784              	.LASF167:
 8785 053c 6D696E6D 		.ascii	"minmea_getdatetime\000"
 8785      65615F67 
 8785      65746461 
 8785      74657469 
 8785      6D6500
 8786              	.LASF148:
 8787 054f 6D696E6D 		.ascii	"minmea_parse_gbs\000"
 8787      65615F70 
 8787      61727365 
 8787      5F676273 
 8787      00
 8788              	.LASF62:
 8789 0560 76616C69 		.ascii	"valid\000"
 8789      6400
 8790              	.LASF144:
 8791 0566 69417272 		.ascii	"iArr\000"
 8791      00
 8792              	.LASF129:
 8793 056b 65787065 		.ascii	"expected\000"
 8793      63746564 
 8793      00
 8794              	.LASF84:
 8795 0574 4D494E4D 		.ascii	"MINMEA_FAA_MODE_MANUAL\000"
 8795      45415F46 
 8795      41415F4D 
 8795      4F44455F 
 8795      4D414E55 
 8796              	.LASF175:
 8797 058b 5F5F6170 		.ascii	"__ap\000"
 8797      00
 8798              	.LASF119:
 8799 0590 6D696E75 		.ascii	"minute_offset\000"
 8799      74655F6F 
ARM GAS  C:\Users\armst\AppData\Local\Temp\ccFg2asa.s 			page 178


 8799      66667365 
 8799      7400
 8800              	.LASF43:
 8801 059e 7363616C 		.ascii	"scale\000"
 8801      6500
 8802              	.LASF171:
 8803 05a4 6D656D73 		.ascii	"memset\000"
 8803      657400
 8804              	.LASF74:
 8805 05ab 616C7469 		.ascii	"altitude\000"
 8805      74756465 
 8805      00
 8806              	.LASF153:
 8807 05b4 6C6F6E67 		.ascii	"longitude_direction\000"
 8807      69747564 
 8807      655F6469 
 8807      72656374 
 8807      696F6E00 
 8808              	.LASF150:
 8809 05c8 6D696E6D 		.ascii	"minmea_parse_rmc\000"
 8809      65615F70 
 8809      61727365 
 8809      5F726D63 
 8809      00
 8810              	.LASF50:
 8811 05d9 7365636F 		.ascii	"seconds\000"
 8811      6E647300 
 8812              	.LASF76:
 8813 05e1 68656967 		.ascii	"height\000"
 8813      687400
 8814              	.LASF103:
 8815 05e8 76646F70 		.ascii	"vdop\000"
 8815      00
 8816              	.LASF57:
 8817 05ed 73766964 		.ascii	"svid\000"
 8817      00
 8818              	.LASF156:
 8819 05f2 6D696E6D 		.ascii	"minmea_parse_gsa\000"
 8819      65615F70 
 8819      61727365 
 8819      5F677361 
 8819      00
 8820              	.LASF179:
 8821 0603 5F5F6374 		.ascii	"__ctype_ptr__\000"
 8821      7970655F 
 8821      7074725F 
 8821      5F00
 8822              	.LASF77:
 8823 0611 68656967 		.ascii	"height_units\000"
 8823      68745F75 
 8823      6E697473 
 8823      00
 8824              	.LASF110:
 8825 061e 746F7461 		.ascii	"total_sats\000"
 8825      6C5F7361 
 8825      747300
 8826              	.LASF158:
ARM GAS  C:\Users\armst\AppData\Local\Temp\ccFg2asa.s 			page 179


 8827 0629 6D696E6D 		.ascii	"minmea_parse_gst\000"
 8827      65615F70 
 8827      61727365 
 8827      5F677374 
 8827      00
 8828              	.LASF159:
 8829 063a 6D696E6D 		.ascii	"minmea_parse_gsv\000"
 8829      65615F70 
 8829      61727365 
 8829      5F677376 
 8829      00
 8830              	.LASF160:
 8831 064b 6D696E6D 		.ascii	"minmea_parse_vtg\000"
 8831      65615F70 
 8831      61727365 
 8831      5F767467 
 8831      00
 8832              	.LASF12:
 8833 065c 6C6F6E67 		.ascii	"long double\000"
 8833      20646F75 
 8833      626C6500 
 8834              	.LASF139:
 8835 0668 64417272 		.ascii	"dArr\000"
 8835      00
 8836              	.LASF177:
 8837 066d 68657832 		.ascii	"hex2int\000"
 8837      696E7400 
 8838              	.LASF141:
 8839 0675 79417272 		.ascii	"yArr\000"
 8839      00
 8840              	.LASF143:
 8841 067a 68417272 		.ascii	"hArr\000"
 8841      00
 8842              	.LASF112:
 8843 067f 74727565 		.ascii	"true_track_degrees\000"
 8843      5F747261 
 8843      636B5F64 
 8843      65677265 
 8843      657300
 8844              	.LASF93:
 8845 0692 73656D69 		.ascii	"semi_major_deviation\000"
 8845      5F6D616A 
 8845      6F725F64 
 8845      65766961 
 8845      74696F6E 
 8846              	.LASF33:
 8847 06a7 4D494E4D 		.ascii	"MINMEA_SENTENCE_GGA\000"
 8847      45415F53 
 8847      454E5445 
 8847      4E43455F 
 8847      47474100 
 8848              	.LASF2:
 8849 06bb 73686F72 		.ascii	"short int\000"
 8849      7420696E 
 8849      7400
 8850              	.LASF4:
 8851 06c5 6C6F6E67 		.ascii	"long int\000"
ARM GAS  C:\Users\armst\AppData\Local\Temp\ccFg2asa.s 			page 180


 8851      20696E74 
 8851      00
 8852              	.LASF71:
 8853 06ce 6669785F 		.ascii	"fix_quality\000"
 8853      7175616C 
 8853      69747900 
 8854              	.LASF47:
 8855 06da 6D696E6D 		.ascii	"minmea_time\000"
 8855      65615F74 
 8855      696D6500 
 8856              	.LASF146:
 8857 06e6 6D696E6D 		.ascii	"minmea_talker_id\000"
 8857      65615F74 
 8857      616C6B65 
 8857      725F6964 
 8857      00
 8858              	.LASF75:
 8859 06f7 616C7469 		.ascii	"altitude_units\000"
 8859      74756465 
 8859      5F756E69 
 8859      747300
 8860              	.LASF49:
 8861 0706 6D696E75 		.ascii	"minutes\000"
 8861      74657300 
 8862              	.LASF125:
 8863 070e 73747269 		.ascii	"strict\000"
 8863      637400
 8864              	.LASF176:
 8865 0715 6D696E6D 		.ascii	"minmea_isfield\000"
 8865      65615F69 
 8865      73666965 
 8865      6C6400
 8866              	.LASF118:
 8867 0724 686F7572 		.ascii	"hour_offset\000"
 8867      5F6F6666 
 8867      73657400 
 8868              	.LASF48:
 8869 0730 686F7572 		.ascii	"hours\000"
 8869      7300
 8870              	.LASF5:
 8871 0736 5F5F7569 		.ascii	"__uint8_t\000"
 8871      6E74385F 
 8871      7400
 8872              	.LASF44:
 8873 0740 6D696E6D 		.ascii	"minmea_date\000"
 8873      65615F64 
 8873      61746500 
 8874              	.LASF87:
 8875 074c 4D494E4D 		.ascii	"MINMEA_FAA_MODE_PRECISE\000"
 8875      45415F46 
 8875      41415F4D 
 8875      4F44455F 
 8875      50524543 
 8876              	.LASF123:
 8877 0764 6D696E6D 		.ascii	"minmea_checksum\000"
 8877      65615F63 
 8877      6865636B 
ARM GAS  C:\Users\armst\AppData\Local\Temp\ccFg2asa.s 			page 181


 8877      73756D00 
 8878              	.LASF83:
 8879 0774 4D494E4D 		.ascii	"MINMEA_FAA_MODE_ESTIMATED\000"
 8879      45415F46 
 8879      41415F4D 
 8879      4F44455F 
 8879      45535449 
 8880              	.LASF18:
 8881 078e 5F5F7661 		.ascii	"__va_list\000"
 8881      5F6C6973 
 8881      7400
 8882              	.LASF58:
 8883 0798 70726F62 		.ascii	"prob\000"
 8883      00
 8884              	.LASF16:
 8885 079d 73697A65 		.ascii	"sizetype\000"
 8885      74797065 
 8885      00
 8886              	.LASF116:
 8887 07a6 6661615F 		.ascii	"faa_mode\000"
 8887      6D6F6465 
 8887      00
 8888              	.LASF7:
 8889 07af 6C6F6E67 		.ascii	"long unsigned int\000"
 8889      20756E73 
 8889      69676E65 
 8889      6420696E 
 8889      7400
 8890              	.LASF60:
 8891 07c1 73746464 		.ascii	"stddev\000"
 8891      657600
 8892              	.LASF15:
 8893 07c8 696E745F 		.ascii	"int_least32_t\000"
 8893      6C656173 
 8893      7433325F 
 8893      7400
 8894              	.LASF46:
 8895 07d6 79656172 		.ascii	"year\000"
 8895      00
 8896              	.LASF20:
 8897 07db 746D5F6D 		.ascii	"tm_min\000"
 8897      696E00
 8898              	.LASF155:
 8899 07e2 6D696E6D 		.ascii	"minmea_parse_gga\000"
 8899      65615F70 
 8899      61727365 
 8899      5F676761 
 8899      00
 8900              	.LASF140:
 8901 07f3 6D417272 		.ascii	"mArr\000"
 8901      00
 8902              	.LASF135:
 8903 07f8 74797065 		.ascii	"type\000"
 8903      00
 8904              	.LASF1:
 8905 07fd 756E7369 		.ascii	"unsigned char\000"
 8905      676E6564 
ARM GAS  C:\Users\armst\AppData\Local\Temp\ccFg2asa.s 			page 182


 8905      20636861 
 8905      7200
 8906              	.LASF6:
 8907 080b 5F5F7569 		.ascii	"__uint32_t\000"
 8907      6E743332 
 8907      5F7400
 8908              	.LASF127:
 8909 0816 75707065 		.ascii	"upper\000"
 8909      7200
 8910              	.LASF51:
 8911 081c 6D696372 		.ascii	"microseconds\000"
 8911      6F736563 
 8911      6F6E6473 
 8911      00
 8912              	.LASF109:
 8913 0829 6D73675F 		.ascii	"msg_nr\000"
 8913      6E7200
 8914              	.LASF168:
 8915 0830 73747274 		.ascii	"strtol\000"
 8915      6F6C00
 8916              	.LASF106:
 8917 0837 617A696D 		.ascii	"azimuth\000"
 8917      75746800 
 8918              	.LASF85:
 8919 083f 4D494E4D 		.ascii	"MINMEA_FAA_MODE_SIMULATED\000"
 8919      45415F46 
 8919      41415F4D 
 8919      4F44455F 
 8919      53494D55 
 8920              	.LASF25:
 8921 0859 746D5F77 		.ascii	"tm_wday\000"
 8921      64617900 
 8922              	.LASF149:
 8923 0861 6672616D 		.ascii	"frame\000"
 8923      6500
 8924              	.LASF61:
 8925 0867 6D696E6D 		.ascii	"minmea_sentence_rmc\000"
 8925      65615F73 
 8925      656E7465 
 8925      6E63655F 
 8925      726D6300 
 8926              	.LASF21:
 8927 087b 746D5F68 		.ascii	"tm_hour\000"
 8927      6F757200 
 8928              	.LASF0:
 8929 0883 7369676E 		.ascii	"signed char\000"
 8929      65642063 
 8929      68617200 
 8930              	.LASF3:
 8931 088f 73686F72 		.ascii	"short unsigned int\000"
 8931      7420756E 
 8931      7369676E 
 8931      65642069 
 8931      6E7400
 8932              	.LASF19:
 8933 08a2 746D5F73 		.ascii	"tm_sec\000"
 8933      656300
ARM GAS  C:\Users\armst\AppData\Local\Temp\ccFg2asa.s 			page 183


 8934              	.LASF170:
 8935 08a9 6D656D63 		.ascii	"memcpy\000"
 8935      707900
 8936              	.LASF99:
 8937 08b0 6D696E6D 		.ascii	"minmea_sentence_gsa\000"
 8937      65615F73 
 8937      656E7465 
 8937      6E63655F 
 8937      67736100 
 8938              	.LASF27:
 8939 08c4 746D5F69 		.ascii	"tm_isdst\000"
 8939      73647374 
 8939      00
 8940              	.LASF100:
 8941 08cd 6669785F 		.ascii	"fix_type\000"
 8941      74797065 
 8941      00
 8942              	.LASF162:
 8943 08d6 635F6D61 		.ascii	"c_magnetic\000"
 8943      676E6574 
 8943      696300
 8944              	.LASF178:
 8945 08e1 70617273 		.ascii	"parse_error\000"
 8945      655F6572 
 8945      726F7200 
 8946              	.LASF28:
 8947 08ed 646F7562 		.ascii	"double\000"
 8947      6C6500
 8948              	.LASF91:
 8949 08f4 6D696E6D 		.ascii	"minmea_sentence_gst\000"
 8949      65615F73 
 8949      656E7465 
 8949      6E63655F 
 8949      67737400 
 8950              	.LASF107:
 8951 0908 6D696E6D 		.ascii	"minmea_sentence_gsv\000"
 8951      65615F73 
 8951      656E7465 
 8951      6E63655F 
 8951      67737600 
 8952              	.LASF111:
 8953 091c 6D696E6D 		.ascii	"minmea_sentence_vtg\000"
 8953      65615F73 
 8953      656E7465 
 8953      6E63655F 
 8953      76746700 
 8954              	.LASF130:
 8955 0930 6D696E6D 		.ascii	"minmea_scan\000"
 8955      65615F73 
 8955      63616E00 
 8956              	.LASF115:
 8957 093c 73706565 		.ascii	"speed_kph\000"
 8957      645F6B70 
 8957      6800
 8958              	.LASF169:
 8959 0946 73747263 		.ascii	"strcmp\000"
 8959      6D7000
ARM GAS  C:\Users\armst\AppData\Local\Temp\ccFg2asa.s 			page 184


 8960              	.LASF133:
 8961 094d 6F707469 		.ascii	"optional\000"
 8961      6F6E616C 
 8961      00
 8962              	.LASF173:
 8963 0956 6D696E6D 		.ascii	"minmea.c\000"
 8963      65612E63 
 8963      00
 8964              	.LASF86:
 8965 095f 4D494E4D 		.ascii	"MINMEA_FAA_MODE_NOT_VALID\000"
 8965      45415F46 
 8965      41415F4D 
 8965      4F44455F 
 8965      4E4F545F 
 8966              		.ident	"GCC: (GNU Tools for ARM Embedded Processors) 5.4.1 20160609 (release) [ARM/embedded-5-bran
