ARM GAS  C:\Users\armst\AppData\Local\Temp\ccNPhHLt.s 			page 1


   1              		.syntax unified
   2              		.cpu cortex-m4
   3              		.eabi_attribute 27, 1
   4              		.fpu fpv4-sp-d16
   5              		.eabi_attribute 20, 1
   6              		.eabi_attribute 21, 1
   7              		.eabi_attribute 23, 3
   8              		.eabi_attribute 24, 1
   9              		.eabi_attribute 25, 1
  10              		.eabi_attribute 26, 1
  11              		.eabi_attribute 30, 1
  12              		.eabi_attribute 34, 1
  13              		.eabi_attribute 18, 4
  14              		.thumb
  15              		.syntax unified
  16              		.file	"minmea.c"
  17              		.text
  18              	.Ltext0:
  19              		.cfi_sections	.debug_frame
  20              		.section	.text.hex2int,"ax",%progbits
  21              		.align	2
  22              		.thumb
  23              		.thumb_func
  24              		.type	hex2int, %function
  25              	hex2int:
  26              	.LFB5:
  27              		.file 1 "minmea.c"
   1:minmea.c      **** /*
   2:minmea.c      ****  * Copyright © 2014 Kosma Moczek <kosma@cloudyourcar.com>
   3:minmea.c      ****  * This program is free software. It comes without any warranty, to the extent
   4:minmea.c      ****  * permitted by applicable law. You can redistribute it and/or modify it under
   5:minmea.c      ****  * the terms of the Do What The Fuck You Want To Public License, Version 2, as
   6:minmea.c      ****  * published by Sam Hocevar. See the COPYING file for more details.
   7:minmea.c      ****  * Source: https://github.com/kosma/minmea/tree/master
   8:minmea.c      ****  */
   9:minmea.c      **** 
  10:minmea.c      **** #include "minmea.h"
  11:minmea.c      **** 
  12:minmea.c      **** #include <stdlib.h>
  13:minmea.c      **** #include <string.h>
  14:minmea.c      **** #include <stdarg.h>
  15:minmea.c      **** 
  16:minmea.c      **** #define boolstr(s) ((s) ? "true" : "false")
  17:minmea.c      **** 
  18:minmea.c      **** static int hex2int(char c)
  19:minmea.c      **** {
  28              		.loc 1 19 0
  29              		.cfi_startproc
  30              		@ args = 0, pretend = 0, frame = 0
  31              		@ frame_needed = 0, uses_anonymous_args = 0
  32              		@ link register save eliminated.
  33              	.LVL0:
  20:minmea.c      ****     if (c >= '0' && c <= '9')
  34              		.loc 1 20 0
  35 0000 A0F13003 		sub	r3, r0, #48
  36 0004 DBB2     		uxtb	r3, r3
  37 0006 092B     		cmp	r3, #9
ARM GAS  C:\Users\armst\AppData\Local\Temp\ccNPhHLt.s 			page 2


  38 0008 01D8     		bhi	.L2
  21:minmea.c      ****         return c - '0';
  39              		.loc 1 21 0
  40 000a 3038     		subs	r0, r0, #48
  41              	.LVL1:
  42 000c 7047     		bx	lr
  43              	.LVL2:
  44              	.L2:
  22:minmea.c      ****     if (c >= 'A' && c <= 'F')
  45              		.loc 1 22 0
  46 000e A0F14103 		sub	r3, r0, #65
  47 0012 DBB2     		uxtb	r3, r3
  48 0014 052B     		cmp	r3, #5
  49 0016 01D8     		bhi	.L4
  23:minmea.c      ****         return c - 'A' + 10;
  50              		.loc 1 23 0
  51 0018 3738     		subs	r0, r0, #55
  52              	.LVL3:
  53 001a 7047     		bx	lr
  54              	.LVL4:
  55              	.L4:
  24:minmea.c      ****     if (c >= 'a' && c <= 'f')
  56              		.loc 1 24 0
  57 001c A0F16103 		sub	r3, r0, #97
  58 0020 DBB2     		uxtb	r3, r3
  59 0022 052B     		cmp	r3, #5
  60 0024 01D8     		bhi	.L5
  25:minmea.c      ****         return c - 'a' + 10;
  61              		.loc 1 25 0
  62 0026 5738     		subs	r0, r0, #87
  63              	.LVL5:
  64 0028 7047     		bx	lr
  65              	.LVL6:
  66              	.L5:
  26:minmea.c      ****     return -1;
  67              		.loc 1 26 0
  68 002a 4FF0FF30 		mov	r0, #-1
  69              	.LVL7:
  27:minmea.c      **** }
  70              		.loc 1 27 0
  71 002e 7047     		bx	lr
  72              		.cfi_endproc
  73              	.LFE5:
  74              		.size	hex2int, .-hex2int
  75              		.section	.text.minmea_checksum,"ax",%progbits
  76              		.align	2
  77              		.global	minmea_checksum
  78              		.thumb
  79              		.thumb_func
  80              		.type	minmea_checksum, %function
  81              	minmea_checksum:
  82              	.LFB6:
  28:minmea.c      **** 
  29:minmea.c      **** uint8_t minmea_checksum(const char *sentence)
  30:minmea.c      **** {
  83              		.loc 1 30 0
  84              		.cfi_startproc
ARM GAS  C:\Users\armst\AppData\Local\Temp\ccNPhHLt.s 			page 3


  85              		@ args = 0, pretend = 0, frame = 0
  86              		@ frame_needed = 0, uses_anonymous_args = 0
  87              		@ link register save eliminated.
  88              	.LVL8:
  89 0000 0246     		mov	r2, r0
  31:minmea.c      ****     // Support senteces with or without the starting dollar sign.
  32:minmea.c      ****     if (*sentence == '$')
  90              		.loc 1 32 0
  91 0002 0378     		ldrb	r3, [r0]	@ zero_extendqisi2
  92 0004 242B     		cmp	r3, #36
  93 0006 00D1     		bne	.L7
  33:minmea.c      ****         sentence++;
  94              		.loc 1 33 0
  95 0008 0132     		adds	r2, r2, #1
  96              	.LVL9:
  97              	.L7:
  30:minmea.c      ****     // Support senteces with or without the starting dollar sign.
  98              		.loc 1 30 0
  99 000a 0020     		movs	r0, #0
 100 000c 01E0     		b	.L8
 101              	.LVL10:
 102              	.L10:
  34:minmea.c      **** 
  35:minmea.c      ****     uint8_t checksum = 0x00;
  36:minmea.c      **** 
  37:minmea.c      ****     // The optional checksum is an XOR of all bytes between "$" and "*".
  38:minmea.c      ****     while (*sentence && *sentence != '*')
  39:minmea.c      ****         checksum ^= *sentence++;
 103              		.loc 1 39 0
 104 000e 0132     		adds	r2, r2, #1
 105              	.LVL11:
 106 0010 5840     		eors	r0, r0, r3
 107              	.LVL12:
 108              	.L8:
  38:minmea.c      ****         checksum ^= *sentence++;
 109              		.loc 1 38 0
 110 0012 1378     		ldrb	r3, [r2]	@ zero_extendqisi2
 111 0014 0BB1     		cbz	r3, .L9
  38:minmea.c      ****         checksum ^= *sentence++;
 112              		.loc 1 38 0 is_stmt 0 discriminator 1
 113 0016 2A2B     		cmp	r3, #42
 114 0018 F9D1     		bne	.L10
 115              	.L9:
  40:minmea.c      **** 
  41:minmea.c      ****     return checksum;
  42:minmea.c      **** }
 116              		.loc 1 42 0 is_stmt 1
 117 001a 7047     		bx	lr
 118              		.cfi_endproc
 119              	.LFE6:
 120              		.size	minmea_checksum, .-minmea_checksum
 121              		.section	.text.minmea_check,"ax",%progbits
 122              		.align	2
 123              		.global	minmea_check
 124              		.thumb
 125              		.thumb_func
 126              		.type	minmea_check, %function
ARM GAS  C:\Users\armst\AppData\Local\Temp\ccNPhHLt.s 			page 4


 127              	minmea_check:
 128              	.LFB7:
  43:minmea.c      **** 
  44:minmea.c      **** bool minmea_check(const char *sentence, bool strict)
  45:minmea.c      **** {
 129              		.loc 1 45 0
 130              		.cfi_startproc
 131              		@ args = 0, pretend = 0, frame = 0
 132              		@ frame_needed = 0, uses_anonymous_args = 0
 133              	.LVL13:
 134 0000 F8B5     		push	{r3, r4, r5, r6, r7, lr}
 135              		.cfi_def_cfa_offset 24
 136              		.cfi_offset 3, -24
 137              		.cfi_offset 4, -20
 138              		.cfi_offset 5, -16
 139              		.cfi_offset 6, -12
 140              		.cfi_offset 7, -8
 141              		.cfi_offset 14, -4
 142              	.LVL14:
  46:minmea.c      ****     uint8_t checksum = 0x00;
  47:minmea.c      **** 
  48:minmea.c      ****     // A valid sentence starts with "$".
  49:minmea.c      ****     if (*sentence++ != '$')
 143              		.loc 1 49 0
 144 0002 0378     		ldrb	r3, [r0]	@ zero_extendqisi2
 145 0004 242B     		cmp	r3, #36
 146 0006 30D1     		bne	.L20
 147 0008 441C     		adds	r4, r0, #1
 148              	.LVL15:
 149 000a 0025     		movs	r5, #0
 150 000c 01E0     		b	.L13
 151              	.LVL16:
 152              	.L15:
  50:minmea.c      ****         return false;
  51:minmea.c      **** 
  52:minmea.c      ****     // The optional checksum is an XOR of all bytes between "$" and "*".
  53:minmea.c      ****     while (*sentence && *sentence != '*' && isprint((unsigned char) *sentence))
  54:minmea.c      ****         checksum ^= *sentence++;
 153              		.loc 1 54 0
 154 000e 0134     		adds	r4, r4, #1
 155              	.LVL17:
 156 0010 5D40     		eors	r5, r5, r3
 157              	.LVL18:
 158              	.L13:
  53:minmea.c      ****         checksum ^= *sentence++;
 159              		.loc 1 53 0
 160 0012 2378     		ldrb	r3, [r4]	@ zero_extendqisi2
 161 0014 43B1     		cbz	r3, .L14
  53:minmea.c      ****         checksum ^= *sentence++;
 162              		.loc 1 53 0 is_stmt 0 discriminator 1
 163 0016 2A2B     		cmp	r3, #42
 164 0018 06D0     		beq	.L14
  53:minmea.c      ****         checksum ^= *sentence++;
 165              		.loc 1 53 0 discriminator 2
 166 001a 1A4A     		ldr	r2, .L27
 167 001c 1268     		ldr	r2, [r2]
 168 001e 1A44     		add	r2, r2, r3
ARM GAS  C:\Users\armst\AppData\Local\Temp\ccNPhHLt.s 			page 5


 169 0020 5278     		ldrb	r2, [r2, #1]	@ zero_extendqisi2
 170 0022 12F0970F 		tst	r2, #151
 171 0026 F2D1     		bne	.L15
 172              	.L14:
  55:minmea.c      **** 
  56:minmea.c      ****     // If checksum is present...
  57:minmea.c      ****     if (*sentence == '*') {
 173              		.loc 1 57 0 is_stmt 1
 174 0028 2A2B     		cmp	r3, #42
 175 002a 13D1     		bne	.L16
 176              	.LVL19:
 177              	.LBB37:
  58:minmea.c      ****         // Extract checksum.
  59:minmea.c      ****         sentence++;
  60:minmea.c      ****         int upper = hex2int(*sentence++);
 178              		.loc 1 60 0
 179 002c 6078     		ldrb	r0, [r4, #1]	@ zero_extendqisi2
 180 002e FFF7FEFF 		bl	hex2int
 181              	.LVL20:
 182 0032 0646     		mov	r6, r0
 183              	.LVL21:
  61:minmea.c      ****         if (upper == -1)
 184              		.loc 1 61 0
 185 0034 B0F1FF3F 		cmp	r0, #-1
 186 0038 19D0     		beq	.L21
  62:minmea.c      ****             return false;
  63:minmea.c      ****         int lower = hex2int(*sentence++);
 187              		.loc 1 63 0
 188 003a E71C     		adds	r7, r4, #3
 189              	.LVL22:
 190 003c A078     		ldrb	r0, [r4, #2]	@ zero_extendqisi2
 191              	.LVL23:
 192 003e FFF7FEFF 		bl	hex2int
 193              	.LVL24:
  64:minmea.c      ****         if (lower == -1)
 194              		.loc 1 64 0
 195 0042 B0F1FF3F 		cmp	r0, #-1
 196 0046 14D0     		beq	.L22
  65:minmea.c      ****             return false;
  66:minmea.c      ****         int expected = upper << 4 | lower;
 197              		.loc 1 66 0
 198 0048 40EA0610 		orr	r0, r0, r6, lsl #4
 199              	.LVL25:
  67:minmea.c      **** 
  68:minmea.c      ****         // Check for checksum mismatch.
  69:minmea.c      ****         if (checksum != expected)
 200              		.loc 1 69 0
 201 004c A842     		cmp	r0, r5
 202 004e 12D1     		bne	.L23
  63:minmea.c      ****         if (lower == -1)
 203              		.loc 1 63 0
 204 0050 3C46     		mov	r4, r7
 205 0052 02E0     		b	.L18
 206              	.LVL26:
 207              	.L16:
 208              	.LBE37:
  70:minmea.c      ****             return false;
ARM GAS  C:\Users\armst\AppData\Local\Temp\ccNPhHLt.s 			page 6


  71:minmea.c      ****     } else if (strict) {
 209              		.loc 1 71 0
 210 0054 09B1     		cbz	r1, .L18
 211 0056 10E0     		b	.L24
 212              	.LVL27:
 213              	.L19:
  72:minmea.c      ****         // Discard non-checksummed frames in strict mode.
  73:minmea.c      ****         return false;
  74:minmea.c      ****     }
  75:minmea.c      **** 
  76:minmea.c      ****     // The only stuff allowed at this point is a newline.
  77:minmea.c      ****     while (*sentence == '\r' || *sentence == '\n') {
  78:minmea.c      ****         sentence++;
 214              		.loc 1 78 0
 215 0058 0134     		adds	r4, r4, #1
 216              	.LVL28:
 217              	.L18:
  77:minmea.c      ****         sentence++;
 218              		.loc 1 77 0
 219 005a 2378     		ldrb	r3, [r4]	@ zero_extendqisi2
 220 005c 0D2B     		cmp	r3, #13
 221 005e FBD0     		beq	.L19
  77:minmea.c      ****         sentence++;
 222              		.loc 1 77 0 is_stmt 0 discriminator 1
 223 0060 0A2B     		cmp	r3, #10
 224 0062 F9D0     		beq	.L19
  79:minmea.c      ****     }
  80:minmea.c      ****     
  81:minmea.c      ****     if (*sentence) {
 225              		.loc 1 81 0 is_stmt 1
 226 0064 5BB1     		cbz	r3, .L25
  82:minmea.c      ****         return false;
 227              		.loc 1 82 0
 228 0066 0020     		movs	r0, #0
 229 0068 F8BD     		pop	{r3, r4, r5, r6, r7, pc}
 230              	.LVL29:
 231              	.L20:
  50:minmea.c      **** 
 232              		.loc 1 50 0
 233 006a 0020     		movs	r0, #0
 234              	.LVL30:
 235 006c F8BD     		pop	{r3, r4, r5, r6, r7, pc}
 236              	.LVL31:
 237              	.L21:
 238              	.LBB38:
  62:minmea.c      ****         int lower = hex2int(*sentence++);
 239              		.loc 1 62 0
 240 006e 0020     		movs	r0, #0
 241              	.LVL32:
 242 0070 F8BD     		pop	{r3, r4, r5, r6, r7, pc}
 243              	.LVL33:
 244              	.L22:
  65:minmea.c      ****         int expected = upper << 4 | lower;
 245              		.loc 1 65 0
 246 0072 0020     		movs	r0, #0
 247              	.LVL34:
 248 0074 F8BD     		pop	{r3, r4, r5, r6, r7, pc}
ARM GAS  C:\Users\armst\AppData\Local\Temp\ccNPhHLt.s 			page 7


 249              	.LVL35:
 250              	.L23:
  70:minmea.c      ****     } else if (strict) {
 251              		.loc 1 70 0
 252 0076 0020     		movs	r0, #0
 253              	.LVL36:
 254 0078 F8BD     		pop	{r3, r4, r5, r6, r7, pc}
 255              	.LVL37:
 256              	.L24:
 257              	.LBE38:
  73:minmea.c      ****     }
 258              		.loc 1 73 0
 259 007a 0020     		movs	r0, #0
 260 007c F8BD     		pop	{r3, r4, r5, r6, r7, pc}
 261              	.LVL38:
 262              	.L25:
  83:minmea.c      ****     }
  84:minmea.c      **** 
  85:minmea.c      ****     return true;
 263              		.loc 1 85 0
 264 007e 0120     		movs	r0, #1
  86:minmea.c      **** }
 265              		.loc 1 86 0
 266 0080 F8BD     		pop	{r3, r4, r5, r6, r7, pc}
 267              	.LVL39:
 268              	.L28:
 269 0082 00BF     		.align	2
 270              	.L27:
 271 0084 00000000 		.word	__ctype_ptr__
 272              		.cfi_endproc
 273              	.LFE7:
 274              		.size	minmea_check, .-minmea_check
 275              		.section	.text.minmea_scan,"ax",%progbits
 276              		.align	2
 277              		.global	minmea_scan
 278              		.thumb
 279              		.thumb_func
 280              		.type	minmea_scan, %function
 281              	minmea_scan:
 282              	.LFB8:
  87:minmea.c      **** 
  88:minmea.c      **** bool minmea_scan(const char *sentence, const char *format, ...)
  89:minmea.c      **** {
 283              		.loc 1 89 0
 284              		.cfi_startproc
 285              		@ args = 4, pretend = 12, frame = 16
 286              		@ frame_needed = 0, uses_anonymous_args = 1
 287              	.LVL40:
 288 0000 0EB4     		push	{r1, r2, r3}
 289              		.cfi_def_cfa_offset 12
 290              		.cfi_offset 1, -12
 291              		.cfi_offset 2, -8
 292              		.cfi_offset 3, -4
 293 0002 2DE9F04F 		push	{r4, r5, r6, r7, r8, r9, r10, fp, lr}
 294              		.cfi_def_cfa_offset 48
 295              		.cfi_offset 4, -48
 296              		.cfi_offset 5, -44
ARM GAS  C:\Users\armst\AppData\Local\Temp\ccNPhHLt.s 			page 8


 297              		.cfi_offset 6, -40
 298              		.cfi_offset 7, -36
 299              		.cfi_offset 8, -32
 300              		.cfi_offset 9, -28
 301              		.cfi_offset 10, -24
 302              		.cfi_offset 11, -20
 303              		.cfi_offset 14, -16
 304 0006 84B0     		sub	sp, sp, #16
 305              		.cfi_def_cfa_offset 64
 306 0008 0D9D     		ldr	r5, [sp, #52]
 307              	.LVL41:
  90:minmea.c      ****     bool result = false;
  91:minmea.c      ****     bool optional = false;
  92:minmea.c      **** 
  93:minmea.c      ****     if (sentence == NULL)
 308              		.loc 1 93 0
 309 000a 0028     		cmp	r0, #0
 310 000c 00F0CC82 		beq	.L94
 311 0010 0446     		mov	r4, r0
  94:minmea.c      ****         return false;
  95:minmea.c      **** 
  96:minmea.c      ****     va_list ap;
  97:minmea.c      ****     va_start(ap, format);
 312              		.loc 1 97 0
 313 0012 0EAB     		add	r3, sp, #56
 314 0014 0393     		str	r3, [sp, #12]
 315              	.LVL42:
  98:minmea.c      **** 
  99:minmea.c      ****     const char *field = sentence;
 316              		.loc 1 99 0
 317 0016 0746     		mov	r7, r0
  91:minmea.c      **** 
 318              		.loc 1 91 0
 319 0018 0026     		movs	r6, #0
 100:minmea.c      **** #define next_field() \
 101:minmea.c      ****     do { \
 102:minmea.c      ****         /* Progress to the next field. */ \
 103:minmea.c      ****         while (minmea_isfield(*sentence)) \
 104:minmea.c      ****             sentence++; \
 105:minmea.c      ****         /* Make sure there is a field there. */ \
 106:minmea.c      ****         if (*sentence == ',') { \
 107:minmea.c      ****             sentence++; \
 108:minmea.c      ****             field = sentence; \
 109:minmea.c      ****         } else { \
 110:minmea.c      ****             field = NULL; \
 111:minmea.c      ****         } \
 112:minmea.c      ****     } while (0)
 113:minmea.c      **** 
 114:minmea.c      ****     while (*format) {
 320              		.loc 1 114 0
 321 001a A9E2     		b	.L31
 322              	.LVL43:
 323              	.L93:
 324              	.LBB39:
 115:minmea.c      ****         char type = *format++;
 325              		.loc 1 115 0
 326 001c 0135     		adds	r5, r5, #1
ARM GAS  C:\Users\armst\AppData\Local\Temp\ccNPhHLt.s 			page 9


 327              	.LVL44:
 116:minmea.c      **** 
 117:minmea.c      ****         if (type == ';') {
 328              		.loc 1 117 0
 329 001e 3B2B     		cmp	r3, #59
 330 0020 00F0A382 		beq	.L95
 118:minmea.c      ****             // All further fields are optional.
 119:minmea.c      ****             optional = true;
 120:minmea.c      ****             continue;
 121:minmea.c      ****         }
 122:minmea.c      **** 
 123:minmea.c      ****         if (!field && !optional) {
 331              		.loc 1 123 0
 332 0024 17B9     		cbnz	r7, .L33
 333              		.loc 1 123 0 is_stmt 0 discriminator 1
 334 0026 002E     		cmp	r6, #0
 335 0028 00F0A882 		beq	.L96
 336              	.L33:
 124:minmea.c      ****             // Field requested but we ran out if input. Bail out.
 125:minmea.c      ****             goto parse_error;
 126:minmea.c      ****         }
 127:minmea.c      **** 
 128:minmea.c      ****         switch (type) {
 337              		.loc 1 128 0 is_stmt 1
 338 002c 443B     		subs	r3, r3, #68
 339              	.LVL45:
 340 002e 302B     		cmp	r3, #48
 341 0030 00F2A682 		bhi	.L97
 342 0034 DFE813F0 		tbh	[pc, r3, lsl #1]
 343              	.L36:
 344 0038 8E01     		.2byte	(.L35-.L36)/2
 345 003a A402     		.2byte	(.L97-.L36)/2
 346 003c A402     		.2byte	(.L97-.L36)/2
 347 003e A402     		.2byte	(.L97-.L36)/2
 348 0040 A402     		.2byte	(.L97-.L36)/2
 349 0042 A402     		.2byte	(.L97-.L36)/2
 350 0044 A402     		.2byte	(.L97-.L36)/2
 351 0046 A402     		.2byte	(.L97-.L36)/2
 352 0048 A402     		.2byte	(.L97-.L36)/2
 353 004a A402     		.2byte	(.L97-.L36)/2
 354 004c A402     		.2byte	(.L97-.L36)/2
 355 004e A402     		.2byte	(.L97-.L36)/2
 356 0050 A402     		.2byte	(.L97-.L36)/2
 357 0052 A402     		.2byte	(.L97-.L36)/2
 358 0054 A402     		.2byte	(.L97-.L36)/2
 359 0056 A402     		.2byte	(.L97-.L36)/2
 360 0058 F101     		.2byte	(.L37-.L36)/2
 361 005a A402     		.2byte	(.L97-.L36)/2
 362 005c A402     		.2byte	(.L97-.L36)/2
 363 005e A402     		.2byte	(.L97-.L36)/2
 364 0060 A402     		.2byte	(.L97-.L36)/2
 365 0062 A402     		.2byte	(.L97-.L36)/2
 366 0064 A402     		.2byte	(.L97-.L36)/2
 367 0066 A402     		.2byte	(.L97-.L36)/2
 368 0068 A402     		.2byte	(.L97-.L36)/2
 369 006a A402     		.2byte	(.L97-.L36)/2
 370 006c A402     		.2byte	(.L97-.L36)/2
ARM GAS  C:\Users\armst\AppData\Local\Temp\ccNPhHLt.s 			page 10


 371 006e 7F02     		.2byte	(.L66-.L36)/2
 372 0070 A402     		.2byte	(.L97-.L36)/2
 373 0072 A402     		.2byte	(.L97-.L36)/2
 374 0074 A402     		.2byte	(.L97-.L36)/2
 375 0076 3100     		.2byte	(.L39-.L36)/2
 376 0078 4F00     		.2byte	(.L40-.L36)/2
 377 007a A402     		.2byte	(.L97-.L36)/2
 378 007c 8B00     		.2byte	(.L41-.L36)/2
 379 007e A402     		.2byte	(.L97-.L36)/2
 380 0080 A402     		.2byte	(.L97-.L36)/2
 381 0082 1601     		.2byte	(.L42-.L36)/2
 382 0084 A402     		.2byte	(.L97-.L36)/2
 383 0086 A402     		.2byte	(.L97-.L36)/2
 384 0088 A402     		.2byte	(.L97-.L36)/2
 385 008a A402     		.2byte	(.L97-.L36)/2
 386 008c A402     		.2byte	(.L97-.L36)/2
 387 008e A402     		.2byte	(.L97-.L36)/2
 388 0090 A402     		.2byte	(.L97-.L36)/2
 389 0092 A402     		.2byte	(.L97-.L36)/2
 390 0094 A402     		.2byte	(.L97-.L36)/2
 391 0096 3A01     		.2byte	(.L43-.L36)/2
 392 0098 5B01     		.2byte	(.L44-.L36)/2
 393              		.p2align 1
 394              	.L39:
 395              	.LVL46:
 396              	.LBB40:
 129:minmea.c      ****             case 'c': { // Single character field (char).
 130:minmea.c      ****                 char value = '\0';
 131:minmea.c      **** 
 132:minmea.c      ****                 if (field && minmea_isfield(*field))
 397              		.loc 1 132 0
 398 009a AFB1     		cbz	r7, .L98
 399              		.loc 1 132 0 is_stmt 0 discriminator 1
 400 009c 3B78     		ldrb	r3, [r7]	@ zero_extendqisi2
 401              	.LVL47:
 402              	.LBB41:
 403              	.LBB42:
 404              		.file 2 "minmea.h"
   1:minmea.h      **** /*
   2:minmea.h      ****  * Copyright © 2014 Kosma Moczek <kosma@cloudyourcar.com>
   3:minmea.h      ****  * This program is free software. It comes without any warranty, to the extent
   4:minmea.h      ****  * permitted by applicable law. You can redistribute it and/or modify it under
   5:minmea.h      ****  * the terms of the Do What The Fuck You Want To Public License, Version 2, as
   6:minmea.h      ****  * published by Sam Hocevar. See the COPYING file for more details.
   7:minmea.h      ****  * Source: https://github.com/kosma/minmea/tree/master
   8:minmea.h      ****  */
   9:minmea.h      **** 
  10:minmea.h      **** #ifndef MINMEA_H
  11:minmea.h      **** #define MINMEA_H
  12:minmea.h      **** 
  13:minmea.h      **** #ifdef __cplusplus
  14:minmea.h      **** extern "C" {
  15:minmea.h      **** #endif
  16:minmea.h      **** 
  17:minmea.h      **** #include <ctype.h>
  18:minmea.h      **** #include <stdint.h>
  19:minmea.h      **** #include <stdbool.h>
ARM GAS  C:\Users\armst\AppData\Local\Temp\ccNPhHLt.s 			page 11


  20:minmea.h      **** #include <time.h>
  21:minmea.h      **** #include <math.h>
  22:minmea.h      **** #ifdef MINMEA_INCLUDE_COMPAT
  23:minmea.h      **** #include <minmea_compat.h>
  24:minmea.h      **** #endif
  25:minmea.h      **** 
  26:minmea.h      **** #ifndef MINMEA_MAX_SENTENCE_LENGTH
  27:minmea.h      **** #define MINMEA_MAX_SENTENCE_LENGTH 80
  28:minmea.h      **** #endif
  29:minmea.h      **** 
  30:minmea.h      **** enum minmea_sentence_id {
  31:minmea.h      ****     MINMEA_INVALID = -1,
  32:minmea.h      ****     MINMEA_UNKNOWN = 0,
  33:minmea.h      ****     MINMEA_SENTENCE_GBS,
  34:minmea.h      ****     MINMEA_SENTENCE_GGA,
  35:minmea.h      ****     MINMEA_SENTENCE_GLL,
  36:minmea.h      ****     MINMEA_SENTENCE_GSA,
  37:minmea.h      ****     MINMEA_SENTENCE_GST,
  38:minmea.h      ****     MINMEA_SENTENCE_GSV,
  39:minmea.h      ****     MINMEA_SENTENCE_RMC,
  40:minmea.h      ****     MINMEA_SENTENCE_VTG,
  41:minmea.h      ****     MINMEA_SENTENCE_ZDA,
  42:minmea.h      **** };
  43:minmea.h      **** 
  44:minmea.h      **** struct minmea_float {
  45:minmea.h      ****     int_least32_t value;
  46:minmea.h      ****     int_least32_t scale;
  47:minmea.h      **** };
  48:minmea.h      **** 
  49:minmea.h      **** struct minmea_date {
  50:minmea.h      ****     int day;
  51:minmea.h      ****     int month;
  52:minmea.h      ****     int year;
  53:minmea.h      **** };
  54:minmea.h      **** 
  55:minmea.h      **** struct minmea_time {
  56:minmea.h      ****     int hours;
  57:minmea.h      ****     int minutes;
  58:minmea.h      ****     int seconds;
  59:minmea.h      ****     int microseconds;
  60:minmea.h      **** };
  61:minmea.h      **** 
  62:minmea.h      **** struct minmea_sentence_gbs {
  63:minmea.h      ****     struct minmea_time time;
  64:minmea.h      ****     struct minmea_float err_latitude;
  65:minmea.h      ****     struct minmea_float err_longitude;
  66:minmea.h      ****     struct minmea_float err_altitude;
  67:minmea.h      ****     int svid;
  68:minmea.h      ****     struct minmea_float prob;
  69:minmea.h      ****     struct minmea_float bias;
  70:minmea.h      ****     struct minmea_float stddev;
  71:minmea.h      **** };
  72:minmea.h      **** 
  73:minmea.h      **** struct minmea_sentence_rmc {
  74:minmea.h      ****     struct minmea_time time;
  75:minmea.h      ****     bool valid;
  76:minmea.h      ****     struct minmea_float latitude;
ARM GAS  C:\Users\armst\AppData\Local\Temp\ccNPhHLt.s 			page 12


  77:minmea.h      ****     struct minmea_float longitude;
  78:minmea.h      ****     struct minmea_float speed;
  79:minmea.h      ****     struct minmea_float course;
  80:minmea.h      ****     struct minmea_date date;
  81:minmea.h      ****     struct minmea_float variation;
  82:minmea.h      **** };
  83:minmea.h      **** 
  84:minmea.h      **** struct minmea_sentence_gga {
  85:minmea.h      ****     struct minmea_time time;
  86:minmea.h      ****     struct minmea_float latitude;
  87:minmea.h      ****     struct minmea_float longitude;
  88:minmea.h      ****     int fix_quality;
  89:minmea.h      ****     int satellites_tracked;
  90:minmea.h      ****     struct minmea_float hdop;
  91:minmea.h      ****     struct minmea_float altitude; char altitude_units;
  92:minmea.h      ****     struct minmea_float height; char height_units;
  93:minmea.h      ****     struct minmea_float dgps_age;
  94:minmea.h      **** };
  95:minmea.h      **** 
  96:minmea.h      **** enum minmea_gll_status {
  97:minmea.h      ****     MINMEA_GLL_STATUS_DATA_VALID = 'A',
  98:minmea.h      ****     MINMEA_GLL_STATUS_DATA_NOT_VALID = 'V',
  99:minmea.h      **** };
 100:minmea.h      **** 
 101:minmea.h      **** // FAA mode added to some fields in NMEA 2.3.
 102:minmea.h      **** enum minmea_faa_mode {
 103:minmea.h      ****     MINMEA_FAA_MODE_AUTONOMOUS = 'A',
 104:minmea.h      ****     MINMEA_FAA_MODE_DIFFERENTIAL = 'D',
 105:minmea.h      ****     MINMEA_FAA_MODE_ESTIMATED = 'E',
 106:minmea.h      ****     MINMEA_FAA_MODE_MANUAL = 'M',
 107:minmea.h      ****     MINMEA_FAA_MODE_SIMULATED = 'S',
 108:minmea.h      ****     MINMEA_FAA_MODE_NOT_VALID = 'N',
 109:minmea.h      ****     MINMEA_FAA_MODE_PRECISE = 'P',
 110:minmea.h      **** };
 111:minmea.h      **** 
 112:minmea.h      **** struct minmea_sentence_gll {
 113:minmea.h      ****     struct minmea_float latitude;
 114:minmea.h      ****     struct minmea_float longitude;
 115:minmea.h      ****     struct minmea_time time;
 116:minmea.h      ****     char status;
 117:minmea.h      ****     char mode;
 118:minmea.h      **** };
 119:minmea.h      **** 
 120:minmea.h      **** struct minmea_sentence_gst {
 121:minmea.h      ****     struct minmea_time time;
 122:minmea.h      ****     struct minmea_float rms_deviation;
 123:minmea.h      ****     struct minmea_float semi_major_deviation;
 124:minmea.h      ****     struct minmea_float semi_minor_deviation;
 125:minmea.h      ****     struct minmea_float semi_major_orientation;
 126:minmea.h      ****     struct minmea_float latitude_error_deviation;
 127:minmea.h      ****     struct minmea_float longitude_error_deviation;
 128:minmea.h      ****     struct minmea_float altitude_error_deviation;
 129:minmea.h      **** };
 130:minmea.h      **** 
 131:minmea.h      **** enum minmea_gsa_mode {
 132:minmea.h      ****     MINMEA_GPGSA_MODE_AUTO = 'A',
 133:minmea.h      ****     MINMEA_GPGSA_MODE_FORCED = 'M',
ARM GAS  C:\Users\armst\AppData\Local\Temp\ccNPhHLt.s 			page 13


 134:minmea.h      **** };
 135:minmea.h      **** 
 136:minmea.h      **** enum minmea_gsa_fix_type {
 137:minmea.h      ****     MINMEA_GPGSA_FIX_NONE = 1,
 138:minmea.h      ****     MINMEA_GPGSA_FIX_2D = 2,
 139:minmea.h      ****     MINMEA_GPGSA_FIX_3D = 3,
 140:minmea.h      **** };
 141:minmea.h      **** 
 142:minmea.h      **** struct minmea_sentence_gsa {
 143:minmea.h      ****     char mode;
 144:minmea.h      ****     int fix_type;
 145:minmea.h      ****     int sats[12];
 146:minmea.h      ****     struct minmea_float pdop;
 147:minmea.h      ****     struct minmea_float hdop;
 148:minmea.h      ****     struct minmea_float vdop;
 149:minmea.h      **** };
 150:minmea.h      **** 
 151:minmea.h      **** struct minmea_sat_info {
 152:minmea.h      ****     int nr;
 153:minmea.h      ****     int elevation;
 154:minmea.h      ****     int azimuth;
 155:minmea.h      ****     int snr;
 156:minmea.h      **** };
 157:minmea.h      **** 
 158:minmea.h      **** struct minmea_sentence_gsv {
 159:minmea.h      ****     int total_msgs;
 160:minmea.h      ****     int msg_nr;
 161:minmea.h      ****     int total_sats;
 162:minmea.h      ****     struct minmea_sat_info sats[4];
 163:minmea.h      **** };
 164:minmea.h      **** 
 165:minmea.h      **** struct minmea_sentence_vtg {
 166:minmea.h      ****     struct minmea_float true_track_degrees;
 167:minmea.h      ****     struct minmea_float magnetic_track_degrees;
 168:minmea.h      ****     struct minmea_float speed_knots;
 169:minmea.h      ****     struct minmea_float speed_kph;
 170:minmea.h      ****     enum minmea_faa_mode faa_mode;
 171:minmea.h      **** };
 172:minmea.h      **** 
 173:minmea.h      **** struct minmea_sentence_zda {
 174:minmea.h      ****     struct minmea_time time;
 175:minmea.h      ****     struct minmea_date date;
 176:minmea.h      ****     int hour_offset;
 177:minmea.h      ****     int minute_offset;
 178:minmea.h      **** };
 179:minmea.h      **** 
 180:minmea.h      **** /**
 181:minmea.h      ****  * Calculate raw sentence checksum. Does not check sentence integrity.
 182:minmea.h      ****  */
 183:minmea.h      **** uint8_t minmea_checksum(const char *sentence);
 184:minmea.h      **** 
 185:minmea.h      **** /**
 186:minmea.h      ****  * Check sentence validity and checksum. Returns true for valid sentences.
 187:minmea.h      ****  */
 188:minmea.h      **** bool minmea_check(const char *sentence, bool strict);
 189:minmea.h      **** 
 190:minmea.h      **** /**
ARM GAS  C:\Users\armst\AppData\Local\Temp\ccNPhHLt.s 			page 14


 191:minmea.h      ****  * Determine talker identifier.
 192:minmea.h      ****  */
 193:minmea.h      **** bool minmea_talker_id(char talker[3], const char *sentence);
 194:minmea.h      **** 
 195:minmea.h      **** /**
 196:minmea.h      ****  * Determine sentence identifier.
 197:minmea.h      ****  */
 198:minmea.h      **** enum minmea_sentence_id minmea_sentence_id(const char *sentence, bool strict);
 199:minmea.h      **** 
 200:minmea.h      **** /**
 201:minmea.h      ****  * Scanf-like processor for NMEA sentences. Supports the following formats:
 202:minmea.h      ****  * c - single character (char *)
 203:minmea.h      ****  * d - direction, returned as 1/-1, default 0 (int *)
 204:minmea.h      ****  * f - fractional, returned as value + scale (struct minmea_float *)
 205:minmea.h      ****  * i - decimal, default zero (int *)
 206:minmea.h      ****  * s - string (char *)
 207:minmea.h      ****  * t - talker identifier and type (char *)
 208:minmea.h      ****  * D - date (struct minmea_date *)
 209:minmea.h      ****  * T - time stamp (struct minmea_time *)
 210:minmea.h      ****  * _ - ignore this field
 211:minmea.h      ****  * ; - following fields are optional
 212:minmea.h      ****  * Returns true on success. See library source code for details.
 213:minmea.h      ****  */
 214:minmea.h      **** bool minmea_scan(const char *sentence, const char *format, ...);
 215:minmea.h      **** 
 216:minmea.h      **** /*
 217:minmea.h      ****  * Parse a specific type of sentence. Return true on success.
 218:minmea.h      ****  */
 219:minmea.h      **** bool minmea_parse_gbs(struct minmea_sentence_gbs *frame, const char *sentence);
 220:minmea.h      **** bool minmea_parse_rmc(struct minmea_sentence_rmc *frame, const char *sentence);
 221:minmea.h      **** bool minmea_parse_gga(struct minmea_sentence_gga *frame, const char *sentence);
 222:minmea.h      **** bool minmea_parse_gsa(struct minmea_sentence_gsa *frame, const char *sentence);
 223:minmea.h      **** bool minmea_parse_gll(struct minmea_sentence_gll *frame, const char *sentence);
 224:minmea.h      **** bool minmea_parse_gst(struct minmea_sentence_gst *frame, const char *sentence);
 225:minmea.h      **** bool minmea_parse_gsv(struct minmea_sentence_gsv *frame, const char *sentence);
 226:minmea.h      **** bool minmea_parse_vtg(struct minmea_sentence_vtg *frame, const char *sentence);
 227:minmea.h      **** bool minmea_parse_zda(struct minmea_sentence_zda *frame, const char *sentence);
 228:minmea.h      **** 
 229:minmea.h      **** /**
 230:minmea.h      ****  * Convert GPS UTC date/time representation to a UNIX calendar time.
 231:minmea.h      ****  */
 232:minmea.h      **** int minmea_getdatetime(struct tm *tm, const struct minmea_date *date, const struct minmea_time *tim
 233:minmea.h      **** 
 234:minmea.h      **** /**
 235:minmea.h      ****  * Convert GPS UTC date/time representation to a UNIX timestamp.
 236:minmea.h      ****  */
 237:minmea.h      **** // int minmea_gettime(struct timespec *ts, const struct minmea_date *date, const struct minmea_time
 238:minmea.h      **** 
 239:minmea.h      **** /**
 240:minmea.h      ****  * Rescale a fixed-point value to a different scale. Rounds towards zero.
 241:minmea.h      ****  */
 242:minmea.h      **** static inline int_least32_t minmea_rescale(const struct minmea_float *f, int_least32_t new_scale)
 243:minmea.h      **** {
 244:minmea.h      ****     if (f->scale == 0)
 245:minmea.h      ****         return 0;
 246:minmea.h      ****     if (f->scale == new_scale)
 247:minmea.h      ****         return f->value;
ARM GAS  C:\Users\armst\AppData\Local\Temp\ccNPhHLt.s 			page 15


 248:minmea.h      ****     if (f->scale > new_scale)
 249:minmea.h      ****         return (f->value + ((f->value > 0) - (f->value < 0)) * f->scale/new_scale/2) / (f->scale/ne
 250:minmea.h      ****     else
 251:minmea.h      ****         return f->value * (new_scale/f->scale);
 252:minmea.h      **** }
 253:minmea.h      **** 
 254:minmea.h      **** /**
 255:minmea.h      ****  * Convert a fixed-point value to a floating-point value.
 256:minmea.h      ****  * Returns NaN for "unknown" values.
 257:minmea.h      ****  */
 258:minmea.h      **** static inline float minmea_tofloat(const struct minmea_float *f)
 259:minmea.h      **** {
 260:minmea.h      ****     if (f->scale == 0)
 261:minmea.h      ****         return NAN;
 262:minmea.h      ****     return (float) f->value / (float) f->scale;
 263:minmea.h      **** }
 264:minmea.h      **** 
 265:minmea.h      **** /**
 266:minmea.h      ****  * Convert a raw coordinate to a floating point DD.DDD... value.
 267:minmea.h      ****  * Returns NaN for "unknown" values.
 268:minmea.h      ****  */
 269:minmea.h      **** static inline float minmea_tocoord(const struct minmea_float *f)
 270:minmea.h      **** {
 271:minmea.h      ****     if (f->scale == 0)
 272:minmea.h      ****         return NAN;
 273:minmea.h      ****     if (f->scale  > (INT_LEAST32_MAX / 100))
 274:minmea.h      ****         return NAN;
 275:minmea.h      ****     if (f->scale < (INT_LEAST32_MIN / 100))
 276:minmea.h      ****         return NAN;
 277:minmea.h      ****     int_least32_t degrees = f->value / (f->scale * 100);
 278:minmea.h      ****     int_least32_t minutes = f->value % (f->scale * 100);
 279:minmea.h      ****     return (float) degrees + (float) minutes / (60 * f->scale);
 280:minmea.h      **** }
 281:minmea.h      **** 
 282:minmea.h      **** /**
 283:minmea.h      ****  * Return the heading (labeled as 'course').
 284:minmea.h      ****  * Returns NaN for "unknown" values.
 285:minmea.h      ****  */
 286:minmea.h      **** static inline float minmea_getheading(const struct minmea_float *f)
 287:minmea.h      **** {
 288:minmea.h      ****     if (f->scale == 0)
 289:minmea.h      ****         return NAN;
 290:minmea.h      ****     if (f->scale  > (INT_LEAST32_MAX / 100))
 291:minmea.h      ****         return NAN;
 292:minmea.h      ****     if (f->scale < (INT_LEAST32_MIN / 100))
 293:minmea.h      ****         return NAN;
 294:minmea.h      ****     return (float) f->value;
 295:minmea.h      **** }
 296:minmea.h      **** 
 297:minmea.h      **** /**
 298:minmea.h      ****  * Check whether a character belongs to the set of characters allowed in a
 299:minmea.h      ****  * sentence data field.
 300:minmea.h      ****  */
 301:minmea.h      **** static inline bool minmea_isfield(char c) {
 302:minmea.h      ****     return isprint((unsigned char) c) && c != ',' && c != '*';
 405              		.loc 2 302 0 is_stmt 1 discriminator 1
 406 009e A24A     		ldr	r2, .L153
ARM GAS  C:\Users\armst\AppData\Local\Temp\ccNPhHLt.s 			page 16


 407 00a0 1268     		ldr	r2, [r2]
 408 00a2 1A44     		add	r2, r2, r3
 409 00a4 5278     		ldrb	r2, [r2, #1]	@ zero_extendqisi2
 410 00a6 12F0970F 		tst	r2, #151
 411 00aa 05D0     		beq	.L99
 412              		.loc 2 302 0 is_stmt 0
 413 00ac 2C2B     		cmp	r3, #44
 414 00ae 05D0     		beq	.L100
 415 00b0 2A2B     		cmp	r3, #42
 416 00b2 05D1     		bne	.L101
 417 00b4 0022     		movs	r2, #0
 418 00b6 04E0     		b	.L46
 419              	.L99:
 420 00b8 0022     		movs	r2, #0
 421 00ba 02E0     		b	.L46
 422              	.L100:
 423 00bc 0022     		movs	r2, #0
 424 00be 00E0     		b	.L46
 425              	.L101:
 426 00c0 0122     		movs	r2, #1
 427              	.L46:
 428              	.LVL48:
 429              	.LBE42:
 430              	.LBE41:
 431              		.loc 1 132 0 is_stmt 1
 432 00c2 12B9     		cbnz	r2, .L45
 130:minmea.c      **** 
 433              		.loc 1 130 0
 434 00c4 0023     		movs	r3, #0
 435 00c6 00E0     		b	.L45
 436              	.L98:
 437 00c8 0023     		movs	r3, #0
 438              	.L45:
 439              	.LVL49:
 133:minmea.c      ****                     value = *field;
 134:minmea.c      **** 
 135:minmea.c      ****                 *va_arg(ap, char *) = value;
 440              		.loc 1 135 0
 441 00ca 039A     		ldr	r2, [sp, #12]
 442 00cc 111D     		adds	r1, r2, #4
 443 00ce 0391     		str	r1, [sp, #12]
 444 00d0 1268     		ldr	r2, [r2]
 445 00d2 1370     		strb	r3, [r2]
 446              	.LBE40:
 136:minmea.c      ****             } break;
 447              		.loc 1 136 0
 448 00d4 2FE2     		b	.L66
 449              	.LVL50:
 450              	.L40:
 451              	.LBB43:
 137:minmea.c      **** 
 138:minmea.c      ****             case 'd': { // Single character direction field (int).
 139:minmea.c      ****                 int value = 0;
 140:minmea.c      **** 
 141:minmea.c      ****                 if (field && minmea_isfield(*field)) {
 452              		.loc 1 141 0
 453 00d6 77B3     		cbz	r7, .L102
ARM GAS  C:\Users\armst\AppData\Local\Temp\ccNPhHLt.s 			page 17


 454              		.loc 1 141 0 is_stmt 0 discriminator 1
 455 00d8 3B78     		ldrb	r3, [r7]	@ zero_extendqisi2
 456              	.LVL51:
 457              	.LBB44:
 458              	.LBB45:
 459              		.loc 2 302 0 is_stmt 1 discriminator 1
 460 00da 934A     		ldr	r2, .L153
 461 00dc 1268     		ldr	r2, [r2]
 462 00de 1A44     		add	r2, r2, r3
 463 00e0 5278     		ldrb	r2, [r2, #1]	@ zero_extendqisi2
 464 00e2 12F0970F 		tst	r2, #151
 465 00e6 05D0     		beq	.L103
 466              		.loc 2 302 0 is_stmt 0
 467 00e8 2C2B     		cmp	r3, #44
 468 00ea 05D0     		beq	.L104
 469 00ec 2A2B     		cmp	r3, #42
 470 00ee 05D1     		bne	.L105
 471 00f0 0022     		movs	r2, #0
 472 00f2 04E0     		b	.L48
 473              	.L103:
 474 00f4 0022     		movs	r2, #0
 475 00f6 02E0     		b	.L48
 476              	.L104:
 477 00f8 0022     		movs	r2, #0
 478 00fa 00E0     		b	.L48
 479              	.L105:
 480 00fc 0122     		movs	r2, #1
 481              	.L48:
 482              	.LVL52:
 483              	.LBE45:
 484              	.LBE44:
 485              		.loc 1 141 0 is_stmt 1
 486 00fe E2B1     		cbz	r2, .L106
 142:minmea.c      ****                     switch (*field) {
 487              		.loc 1 142 0
 488 0100 453B     		subs	r3, r3, #69
 489 0102 122B     		cmp	r3, #18
 490 0104 00F23E82 		bhi	.L107
 491 0108 DFE813F0 		tbh	[pc, r3, lsl #1]
 492              	.L50:
 493 010c 1300     		.2byte	(.L49-.L50)/2
 494 010e 3C02     		.2byte	(.L107-.L50)/2
 495 0110 3C02     		.2byte	(.L107-.L50)/2
 496 0112 3C02     		.2byte	(.L107-.L50)/2
 497 0114 3C02     		.2byte	(.L107-.L50)/2
 498 0116 3C02     		.2byte	(.L107-.L50)/2
 499 0118 3C02     		.2byte	(.L107-.L50)/2
 500 011a 3C02     		.2byte	(.L107-.L50)/2
 501 011c 3C02     		.2byte	(.L107-.L50)/2
 502 011e 1300     		.2byte	(.L49-.L50)/2
 503 0120 3C02     		.2byte	(.L107-.L50)/2
 504 0122 3C02     		.2byte	(.L107-.L50)/2
 505 0124 3C02     		.2byte	(.L107-.L50)/2
 506 0126 3C02     		.2byte	(.L107-.L50)/2
 507 0128 1900     		.2byte	(.L108-.L50)/2
 508 012a 3C02     		.2byte	(.L107-.L50)/2
 509 012c 3C02     		.2byte	(.L107-.L50)/2
ARM GAS  C:\Users\armst\AppData\Local\Temp\ccNPhHLt.s 			page 18


 510 012e 3C02     		.2byte	(.L107-.L50)/2
 511 0130 1900     		.2byte	(.L108-.L50)/2
 512              		.p2align 1
 513              	.L49:
 143:minmea.c      ****                         case 'N':
 144:minmea.c      ****                         case 'E':
 145:minmea.c      ****                             value = 1;
 514              		.loc 1 145 0
 515 0132 0121     		movs	r1, #1
 516 0134 05E0     		b	.L47
 517              	.L102:
 139:minmea.c      **** 
 518              		.loc 1 139 0
 519 0136 0021     		movs	r1, #0
 520 0138 03E0     		b	.L47
 521              	.L106:
 522 013a 0021     		movs	r1, #0
 523 013c 01E0     		b	.L47
 524              	.L108:
 146:minmea.c      ****                             break;
 147:minmea.c      ****                         case 'S':
 148:minmea.c      ****                         case 'W':
 149:minmea.c      ****                             value = -1;
 525              		.loc 1 149 0
 526 013e 4FF0FF31 		mov	r1, #-1
 527              	.L47:
 528              	.LVL53:
 150:minmea.c      ****                             break;
 151:minmea.c      ****                         default:
 152:minmea.c      ****                             goto parse_error;
 153:minmea.c      ****                     }
 154:minmea.c      ****                 }
 155:minmea.c      **** 
 156:minmea.c      ****                 *va_arg(ap, int *) = value;
 529              		.loc 1 156 0
 530 0142 039B     		ldr	r3, [sp, #12]
 531 0144 1A1D     		adds	r2, r3, #4
 532 0146 0392     		str	r2, [sp, #12]
 533 0148 1B68     		ldr	r3, [r3]
 534 014a 1960     		str	r1, [r3]
 535              	.LBE43:
 157:minmea.c      ****             } break;
 536              		.loc 1 157 0
 537 014c F3E1     		b	.L66
 538              	.LVL54:
 539              	.L41:
 540              	.LBB46:
 158:minmea.c      **** 
 159:minmea.c      ****             case 'f': { // Fractional value with scale (struct minmea_float).
 160:minmea.c      ****                 int sign = 0;
 161:minmea.c      ****                 int_least32_t value = -1;
 162:minmea.c      ****                 int_least32_t scale = 0;
 163:minmea.c      **** 
 164:minmea.c      ****                 if (field) {
 541              		.loc 1 164 0
 542 014e 002F     		cmp	r7, #0
 543 0150 4DD1     		bne	.L109
ARM GAS  C:\Users\armst\AppData\Local\Temp\ccNPhHLt.s 			page 19


 162:minmea.c      **** 
 544              		.loc 1 162 0
 545 0152 0020     		movs	r0, #0
 161:minmea.c      ****                 int_least32_t scale = 0;
 546              		.loc 1 161 0
 547 0154 4FF0FF32 		mov	r2, #-1
 160:minmea.c      ****                 int_least32_t value = -1;
 548              		.loc 1 160 0
 549 0158 8646     		mov	lr, r0
 550 015a 66E0     		b	.L52
 551              	.LVL55:
 552              	.L61:
 165:minmea.c      ****                     while (minmea_isfield(*field)) {
 166:minmea.c      ****                         if (*field == '+' && !sign && value == -1) {
 553              		.loc 1 166 0
 554 015c 2B2B     		cmp	r3, #43
 555 015e 05D1     		bne	.L53
 556              		.loc 1 166 0 is_stmt 0 discriminator 1
 557 0160 BEF1000F 		cmp	lr, #0
 558 0164 02D1     		bne	.L53
 559              		.loc 1 166 0 discriminator 2
 560 0166 B2F1FF3F 		cmp	r2, #-1
 561 016a 37D0     		beq	.L110
 562              	.L53:
 167:minmea.c      ****                             sign = 1;
 168:minmea.c      ****                         } else if (*field == '-' && !sign && value == -1) {
 563              		.loc 1 168 0 is_stmt 1
 564 016c 2D2B     		cmp	r3, #45
 565 016e 05D1     		bne	.L55
 566              		.loc 1 168 0 is_stmt 0 discriminator 1
 567 0170 BEF1000F 		cmp	lr, #0
 568 0174 02D1     		bne	.L55
 569              		.loc 1 168 0 discriminator 2
 570 0176 B2F1FF3F 		cmp	r2, #-1
 571 017a 32D0     		beq	.L111
 572              	.L55:
 169:minmea.c      ****                             sign = -1;
 170:minmea.c      ****                         } else if (isdigit((unsigned char) *field)) {
 573              		.loc 1 170 0 is_stmt 1
 574 017c 11F0040F 		tst	r1, #4
 575 0180 1CD0     		beq	.L56
 576              	.LBB47:
 171:minmea.c      ****                             int digit = *field - '0';
 577              		.loc 1 171 0
 578 0182 303B     		subs	r3, r3, #48
 579              	.LVL56:
 172:minmea.c      ****                             if (value == -1)
 580              		.loc 1 172 0
 581 0184 B2F1FF3F 		cmp	r2, #-1
 582 0188 00D1     		bne	.L57
 173:minmea.c      ****                                 value = 0;
 583              		.loc 1 173 0
 584 018a 0022     		movs	r2, #0
 585              	.LVL57:
 586              	.L57:
 174:minmea.c      ****                             if (value > (INT_LEAST32_MAX-digit) / 10) {
 587              		.loc 1 174 0
ARM GAS  C:\Users\armst\AppData\Local\Temp\ccNPhHLt.s 			page 20


 588 018c 6FF00041 		mvn	r1, #-2147483648
 589 0190 C91A     		subs	r1, r1, r3
 590 0192 DFF898C1 		ldr	ip, .L153+4
 591 0196 8CFB018C 		smull	r8, ip, ip, r1
 592 019a C917     		asrs	r1, r1, #31
 593 019c C1EBAC01 		rsb	r1, r1, ip, asr #2
 594 01a0 8A42     		cmp	r2, r1
 595 01a2 02DD     		ble	.L58
 175:minmea.c      ****                                 /* we ran out of bits, what do we do? */
 176:minmea.c      ****                                 if (scale) {
 596              		.loc 1 176 0
 597 01a4 0028     		cmp	r0, #0
 598 01a6 40D1     		bne	.L52
 599 01a8 FFE1     		b	.L30
 600              	.L58:
 177:minmea.c      ****                                     /* truncate extra precision */
 178:minmea.c      ****                                     break;
 179:minmea.c      ****                                 } else {
 180:minmea.c      ****                                     /* integer overflow. bail out. */
 181:minmea.c      ****                                     goto parse_error;
 182:minmea.c      ****                                 }
 183:minmea.c      ****                             }
 184:minmea.c      ****                             value = (10 * value) + digit;
 601              		.loc 1 184 0
 602 01aa 02EB8202 		add	r2, r2, r2, lsl #2
 603              	.LVL58:
 604 01ae 5100     		lsls	r1, r2, #1
 605 01b0 5A18     		adds	r2, r3, r1
 606              	.LVL59:
 185:minmea.c      ****                             if (scale)
 607              		.loc 1 185 0
 608 01b2 D0B1     		cbz	r0, .L54
 186:minmea.c      ****                                 scale *= 10;
 609              		.loc 1 186 0
 610 01b4 00EB8003 		add	r3, r0, r0, lsl #2
 611              	.LVL60:
 612 01b8 5800     		lsls	r0, r3, #1
 613              	.LVL61:
 614 01ba 16E0     		b	.L54
 615              	.LVL62:
 616              	.L56:
 617              	.LBE47:
 187:minmea.c      ****                         } else if (*field == '.' && scale == 0) {
 618              		.loc 1 187 0
 619 01bc 2E2B     		cmp	r3, #46
 620 01be 00D1     		bne	.L59
 621              		.loc 1 187 0 is_stmt 0 discriminator 1
 622 01c0 90B1     		cbz	r0, .L113
 623              	.L59:
 188:minmea.c      ****                             scale = 1;
 189:minmea.c      ****                         } else if (*field == ' ') {
 624              		.loc 1 189 0 is_stmt 1
 625 01c2 202B     		cmp	r3, #32
 626 01c4 40F0E081 		bne	.L114
 190:minmea.c      ****                             /* Allow spaces at the start of the field. Not NMEA
 191:minmea.c      ****                              * conformant, but some modules do this. */
 192:minmea.c      ****                             if (sign != 0 || value != -1 || scale != 0)
ARM GAS  C:\Users\armst\AppData\Local\Temp\ccNPhHLt.s 			page 21


 627              		.loc 1 192 0
 628 01c8 BEF1000F 		cmp	lr, #0
 629 01cc 40F0DE81 		bne	.L115
 630              		.loc 1 192 0 is_stmt 0 discriminator 1
 631 01d0 B2F1FF3F 		cmp	r2, #-1
 632 01d4 40F0DC81 		bne	.L116
 633              		.loc 1 192 0 discriminator 2
 634 01d8 38B1     		cbz	r0, .L54
 635              	.LBE46:
 636              	.LBE39:
 637 01da DBE1     		b	.L117
 638              	.L110:
 639              	.LBB83:
 640              	.LBB50:
 167:minmea.c      ****                         } else if (*field == '-' && !sign && value == -1) {
 641              		.loc 1 167 0 is_stmt 1
 642 01dc 4FF0010E 		mov	lr, #1
 643              	.LVL63:
 644 01e0 03E0     		b	.L54
 645              	.LVL64:
 646              	.L111:
 169:minmea.c      ****                         } else if (isdigit((unsigned char) *field)) {
 647              		.loc 1 169 0
 648 01e2 4FF0FF3E 		mov	lr, #-1
 649              	.LVL65:
 650 01e6 00E0     		b	.L54
 651              	.LVL66:
 652              	.L113:
 188:minmea.c      ****                         } else if (*field == ' ') {
 653              		.loc 1 188 0
 654 01e8 0120     		movs	r0, #1
 655              	.LVL67:
 656              	.L54:
 193:minmea.c      ****                                 goto parse_error;
 194:minmea.c      ****                         } else {
 195:minmea.c      ****                             goto parse_error;
 196:minmea.c      ****                         }
 197:minmea.c      ****                         field++;
 657              		.loc 1 197 0
 658 01ea 0137     		adds	r7, r7, #1
 659              	.LVL68:
 660 01ec 03E0     		b	.L51
 661              	.LVL69:
 662              	.L109:
 663 01ee 0020     		movs	r0, #0
 664 01f0 4FF0FF32 		mov	r2, #-1
 665 01f4 8646     		mov	lr, r0
 666              	.LVL70:
 667              	.L51:
 165:minmea.c      ****                         if (*field == '+' && !sign && value == -1) {
 668              		.loc 1 165 0
 669 01f6 3B78     		ldrb	r3, [r7]	@ zero_extendqisi2
 670              	.LVL71:
 671              	.LBB48:
 672              	.LBB49:
 673              		.loc 2 302 0
 674 01f8 4B49     		ldr	r1, .L153
ARM GAS  C:\Users\armst\AppData\Local\Temp\ccNPhHLt.s 			page 22


 675 01fa 0968     		ldr	r1, [r1]
 676 01fc 1944     		add	r1, r1, r3
 677 01fe 4978     		ldrb	r1, [r1, #1]	@ zero_extendqisi2
 678 0200 11F0970F 		tst	r1, #151
 679 0204 06D0     		beq	.L118
 680 0206 2C2B     		cmp	r3, #44
 681 0208 07D0     		beq	.L119
 682 020a 2A2B     		cmp	r3, #42
 683 020c 08D1     		bne	.L120
 684 020e 4FF0000C 		mov	ip, #0
 685 0212 07E0     		b	.L60
 686              	.L118:
 687 0214 4FF0000C 		mov	ip, #0
 688 0218 04E0     		b	.L60
 689              	.L119:
 690 021a 4FF0000C 		mov	ip, #0
 691 021e 01E0     		b	.L60
 692              	.L120:
 693 0220 4FF0010C 		mov	ip, #1
 694              	.L60:
 695              	.LVL72:
 696              	.LBE49:
 697              	.LBE48:
 165:minmea.c      ****                         if (*field == '+' && !sign && value == -1) {
 698              		.loc 1 165 0
 699 0224 BCF1000F 		cmp	ip, #0
 700 0228 98D1     		bne	.L61
 701              	.LVL73:
 702              	.L52:
 198:minmea.c      ****                     }
 199:minmea.c      ****                 }
 200:minmea.c      **** 
 201:minmea.c      ****                 if ((sign || scale) && value == -1)
 703              		.loc 1 201 0
 704 022a BEF1000F 		cmp	lr, #0
 705 022e 00D1     		bne	.L62
 706              		.loc 1 201 0 is_stmt 0 discriminator 2
 707 0230 18B1     		cbz	r0, .L63
 708              	.L62:
 709              		.loc 1 201 0 discriminator 3
 710 0232 B2F1FF3F 		cmp	r2, #-1
 711 0236 00F0AF81 		beq	.L121
 712              	.L63:
 202:minmea.c      ****                     goto parse_error;
 203:minmea.c      **** 
 204:minmea.c      ****                 if (value == -1) {
 713              		.loc 1 204 0 is_stmt 1
 714 023a B2F1FF3F 		cmp	r2, #-1
 715 023e 01D0     		beq	.L122
 205:minmea.c      ****                     /* No digits were scanned. */
 206:minmea.c      ****                     value = 0;
 207:minmea.c      ****                     scale = 0;
 208:minmea.c      ****                 } else if (scale == 0) {
 716              		.loc 1 208 0
 717 0240 18B1     		cbz	r0, .L123
 718 0242 03E0     		b	.L64
 719              	.L122:
ARM GAS  C:\Users\armst\AppData\Local\Temp\ccNPhHLt.s 			page 23


 207:minmea.c      ****                 } else if (scale == 0) {
 720              		.loc 1 207 0
 721 0244 0020     		movs	r0, #0
 722              	.LVL74:
 206:minmea.c      ****                     scale = 0;
 723              		.loc 1 206 0
 724 0246 0246     		mov	r2, r0
 725              	.LVL75:
 726 0248 00E0     		b	.L64
 727              	.LVL76:
 728              	.L123:
 209:minmea.c      ****                     /* No decimal point. */
 210:minmea.c      ****                     scale = 1;
 729              		.loc 1 210 0
 730 024a 0120     		movs	r0, #1
 731              	.LVL77:
 732              	.L64:
 211:minmea.c      ****                 }
 212:minmea.c      ****                 if (sign)
 733              		.loc 1 212 0
 734 024c BEF1000F 		cmp	lr, #0
 735 0250 01D0     		beq	.L65
 213:minmea.c      ****                     value *= sign;
 736              		.loc 1 213 0
 737 0252 0EFB02F2 		mul	r2, lr, r2
 738              	.LVL78:
 739              	.L65:
 214:minmea.c      **** 
 215:minmea.c      ****                 *va_arg(ap, struct minmea_float *) = (struct minmea_float) {value, scale};
 740              		.loc 1 215 0
 741 0256 039B     		ldr	r3, [sp, #12]
 742 0258 191D     		adds	r1, r3, #4
 743 025a 0391     		str	r1, [sp, #12]
 744 025c 1B68     		ldr	r3, [r3]
 745 025e 1A60     		str	r2, [r3]
 746 0260 5860     		str	r0, [r3, #4]
 747              	.LBE50:
 216:minmea.c      ****             } break;
 748              		.loc 1 216 0
 749 0262 68E1     		b	.L66
 750              	.LVL79:
 751              	.L42:
 752              	.LBB51:
 217:minmea.c      **** 
 218:minmea.c      ****             case 'i': { // Integer value, default 0 (int).
 219:minmea.c      ****                 int value = 0;
 220:minmea.c      **** 
 221:minmea.c      ****                 if (field) {
 753              		.loc 1 221 0
 754 0264 DFB1     		cbz	r7, .L124
 755              	.LBB52:
 222:minmea.c      ****                     char *endptr;
 223:minmea.c      ****                     value = strtol(field, &endptr, 10);
 756              		.loc 1 223 0
 757 0266 0A22     		movs	r2, #10
 758 0268 02A9     		add	r1, sp, #8
 759 026a 3846     		mov	r0, r7
ARM GAS  C:\Users\armst\AppData\Local\Temp\ccNPhHLt.s 			page 24


 760 026c FFF7FEFF 		bl	strtol
 761              	.LVL80:
 224:minmea.c      ****                     if (minmea_isfield(*endptr))
 762              		.loc 1 224 0
 763 0270 029B     		ldr	r3, [sp, #8]
 764 0272 1A78     		ldrb	r2, [r3]	@ zero_extendqisi2
 765              	.LVL81:
 766              	.LBB53:
 767              	.LBB54:
 768              		.loc 2 302 0
 769 0274 2C4B     		ldr	r3, .L153
 770 0276 1B68     		ldr	r3, [r3]
 771 0278 1344     		add	r3, r3, r2
 772 027a 5B78     		ldrb	r3, [r3, #1]	@ zero_extendqisi2
 773 027c 13F0970F 		tst	r3, #151
 774 0280 05D0     		beq	.L125
 775 0282 2C2A     		cmp	r2, #44
 776 0284 05D0     		beq	.L126
 777 0286 2A2A     		cmp	r2, #42
 778 0288 05D1     		bne	.L127
 779 028a 0023     		movs	r3, #0
 780 028c 04E0     		b	.L68
 781              	.L125:
 782 028e 0023     		movs	r3, #0
 783 0290 02E0     		b	.L68
 784              	.L126:
 785 0292 0023     		movs	r3, #0
 786 0294 00E0     		b	.L68
 787              	.L127:
 788 0296 0123     		movs	r3, #1
 789              	.L68:
 790              	.LVL82:
 791              	.LBE54:
 792              	.LBE53:
 793              		.loc 1 224 0
 794 0298 13B1     		cbz	r3, .L67
 795              	.LBE52:
 796              	.LBE51:
 797              	.LBE83:
  90:minmea.c      ****     bool optional = false;
 798              		.loc 1 90 0
 799 029a 0020     		movs	r0, #0
 800              	.LVL83:
 801 029c 85E1     		b	.L30
 802              	.LVL84:
 803              	.L124:
 804              	.LBB84:
 805              	.LBB55:
 219:minmea.c      **** 
 806              		.loc 1 219 0
 807 029e 0020     		movs	r0, #0
 808              	.LVL85:
 809              	.L67:
 225:minmea.c      ****                         goto parse_error;
 226:minmea.c      ****                 }
 227:minmea.c      **** 
 228:minmea.c      ****                 *va_arg(ap, int *) = value;
ARM GAS  C:\Users\armst\AppData\Local\Temp\ccNPhHLt.s 			page 25


 810              		.loc 1 228 0
 811 02a0 039B     		ldr	r3, [sp, #12]
 812 02a2 1A1D     		adds	r2, r3, #4
 813 02a4 0392     		str	r2, [sp, #12]
 814 02a6 1B68     		ldr	r3, [r3]
 815 02a8 1860     		str	r0, [r3]
 816              	.LBE55:
 229:minmea.c      ****             } break;
 817              		.loc 1 229 0
 818 02aa 44E1     		b	.L66
 819              	.LVL86:
 820              	.L43:
 821              	.LBB56:
 230:minmea.c      **** 
 231:minmea.c      ****             case 's': { // String value (char *).
 232:minmea.c      ****                 char *buf = va_arg(ap, char *);
 822              		.loc 1 232 0
 823 02ac 039B     		ldr	r3, [sp, #12]
 824 02ae 1A1D     		adds	r2, r3, #4
 825 02b0 0392     		str	r2, [sp, #12]
 826 02b2 1968     		ldr	r1, [r3]
 827              	.LVL87:
 233:minmea.c      **** 
 234:minmea.c      ****                 if (field) {
 828              		.loc 1 234 0
 829 02b4 1FB9     		cbnz	r7, .L70
 830 02b6 17E0     		b	.L71
 831              	.L73:
 832              	.LVL88:
 235:minmea.c      ****                     while (minmea_isfield(*field))
 236:minmea.c      ****                         *buf++ = *field++;
 833              		.loc 1 236 0
 834 02b8 0137     		adds	r7, r7, #1
 835              	.LVL89:
 836 02ba 0A70     		strb	r2, [r1]
 837 02bc 0131     		adds	r1, r1, #1
 838              	.LVL90:
 839              	.L70:
 235:minmea.c      ****                     while (minmea_isfield(*field))
 840              		.loc 1 235 0
 841 02be 3A78     		ldrb	r2, [r7]	@ zero_extendqisi2
 842              	.LVL91:
 843              	.LBB57:
 844              	.LBB58:
 845              		.loc 2 302 0
 846 02c0 194B     		ldr	r3, .L153
 847 02c2 1B68     		ldr	r3, [r3]
 848 02c4 1344     		add	r3, r3, r2
 849 02c6 5B78     		ldrb	r3, [r3, #1]	@ zero_extendqisi2
 850 02c8 13F0970F 		tst	r3, #151
 851 02cc 05D0     		beq	.L128
 852 02ce 2C2A     		cmp	r2, #44
 853 02d0 05D0     		beq	.L129
 854 02d2 2A2A     		cmp	r2, #42
 855 02d4 05D1     		bne	.L130
 856 02d6 0023     		movs	r3, #0
 857 02d8 04E0     		b	.L72
ARM GAS  C:\Users\armst\AppData\Local\Temp\ccNPhHLt.s 			page 26


 858              	.L128:
 859 02da 0023     		movs	r3, #0
 860 02dc 02E0     		b	.L72
 861              	.L129:
 862 02de 0023     		movs	r3, #0
 863 02e0 00E0     		b	.L72
 864              	.L130:
 865 02e2 0123     		movs	r3, #1
 866              	.L72:
 867              	.LVL92:
 868              	.LBE58:
 869              	.LBE57:
 235:minmea.c      ****                     while (minmea_isfield(*field))
 870              		.loc 1 235 0
 871 02e4 002B     		cmp	r3, #0
 872 02e6 E7D1     		bne	.L73
 873              	.L71:
 237:minmea.c      ****                 }
 238:minmea.c      **** 
 239:minmea.c      ****                 *buf = '\0';
 874              		.loc 1 239 0
 875 02e8 0023     		movs	r3, #0
 876 02ea 0B70     		strb	r3, [r1]
 877              	.LBE56:
 240:minmea.c      ****             } break;
 878              		.loc 1 240 0
 879 02ec 23E1     		b	.L66
 880              	.LVL93:
 881              	.L44:
 882              	.LBB59:
 241:minmea.c      **** 
 242:minmea.c      ****             case 't': { // NMEA talker+sentence identifier (char *).
 243:minmea.c      ****                 // This field is always mandatory.
 244:minmea.c      ****                 if (!field)
 883              		.loc 1 244 0
 884 02ee 002F     		cmp	r7, #0
 885 02f0 00F05481 		beq	.L131
 245:minmea.c      ****                     goto parse_error;
 246:minmea.c      **** 
 247:minmea.c      ****                 if (field[0] != '$')
 886              		.loc 1 247 0
 887 02f4 3B78     		ldrb	r3, [r7]	@ zero_extendqisi2
 888 02f6 242B     		cmp	r3, #36
 889 02f8 40F05281 		bne	.L132
 890 02fc 0023     		movs	r3, #0
 891 02fe 1BE0     		b	.L74
 892              	.LVL94:
 893              	.L76:
 894              	.LBB60:
 248:minmea.c      ****                     goto parse_error;
 249:minmea.c      ****                 for (int f=0; f<5; f++)
 250:minmea.c      ****                     if (!minmea_isfield(field[1+f]))
 895              		.loc 1 250 0
 896 0300 0133     		adds	r3, r3, #1
 897              	.LVL95:
 898 0302 F95C     		ldrb	r1, [r7, r3]	@ zero_extendqisi2
 899              	.LVL96:
ARM GAS  C:\Users\armst\AppData\Local\Temp\ccNPhHLt.s 			page 27


 900              	.LBB61:
 901              	.LBB62:
 902              		.loc 2 302 0
 903 0304 084A     		ldr	r2, .L153
 904 0306 1268     		ldr	r2, [r2]
 905 0308 0A44     		add	r2, r2, r1
 906 030a 5278     		ldrb	r2, [r2, #1]	@ zero_extendqisi2
 907 030c 12F0970F 		tst	r2, #151
 908 0310 05D0     		beq	.L133
 909 0312 2C29     		cmp	r1, #44
 910 0314 05D0     		beq	.L134
 911 0316 2A29     		cmp	r1, #42
 912 0318 0AD1     		bne	.L135
 913 031a 0022     		movs	r2, #0
 914 031c 09E0     		b	.L75
 915              	.L133:
 916 031e 0022     		movs	r2, #0
 917 0320 07E0     		b	.L75
 918              	.L134:
 919 0322 0022     		movs	r2, #0
 920 0324 05E0     		b	.L75
 921              	.L154:
 922 0326 00BF     		.align	2
 923              	.L153:
 924 0328 00000000 		.word	__ctype_ptr__
 925 032c 67666666 		.word	1717986919
 926              	.L135:
 927 0330 0122     		movs	r2, #1
 928              	.L75:
 929              	.LVL97:
 930              	.LBE62:
 931              	.LBE61:
 932              		.loc 1 250 0
 933 0332 002A     		cmp	r2, #0
 934 0334 00F03681 		beq	.L136
 935              	.LVL98:
 936              	.L74:
 249:minmea.c      ****                     if (!minmea_isfield(field[1+f]))
 937              		.loc 1 249 0 discriminator 1
 938 0338 042B     		cmp	r3, #4
 939 033a E1DD     		ble	.L76
 940              	.LBE60:
 251:minmea.c      ****                         goto parse_error;
 252:minmea.c      **** 
 253:minmea.c      ****                 char *buf = va_arg(ap, char *);
 941              		.loc 1 253 0
 942 033c 039B     		ldr	r3, [sp, #12]
 943              	.LVL99:
 944 033e 1A1D     		adds	r2, r3, #4
 945 0340 0392     		str	r2, [sp, #12]
 946 0342 1B68     		ldr	r3, [r3]
 947              	.LVL100:
 254:minmea.c      ****                 memcpy(buf, field+1, 5);
 948              		.loc 1 254 0
 949 0344 57F8012F 		ldr	r2, [r7, #1]!	@ unaligned
 950              	.LVL101:
 951 0348 1A60     		str	r2, [r3]	@ unaligned
ARM GAS  C:\Users\armst\AppData\Local\Temp\ccNPhHLt.s 			page 28


 952 034a 3A79     		ldrb	r2, [r7, #4]	@ zero_extendqisi2
 953 034c 1A71     		strb	r2, [r3, #4]
 255:minmea.c      ****                 buf[5] = '\0';
 954              		.loc 1 255 0
 955 034e 0022     		movs	r2, #0
 956 0350 5A71     		strb	r2, [r3, #5]
 957              	.LBE59:
 256:minmea.c      ****             } break;
 958              		.loc 1 256 0
 959 0352 F0E0     		b	.L66
 960              	.LVL102:
 961              	.L35:
 962              	.LBB63:
 257:minmea.c      **** 
 258:minmea.c      ****             case 'D': { // Date (int, int, int), -1 if empty.
 259:minmea.c      ****                 struct minmea_date *date = va_arg(ap, struct minmea_date *);
 963              		.loc 1 259 0
 964 0354 039B     		ldr	r3, [sp, #12]
 965 0356 1A1D     		adds	r2, r3, #4
 966 0358 0392     		str	r2, [sp, #12]
 967 035a D3F80080 		ldr	r8, [r3]
 968              	.LVL103:
 260:minmea.c      **** 
 261:minmea.c      ****                 int d = -1, m = -1, y = -1;
 262:minmea.c      **** 
 263:minmea.c      ****                 if (field && minmea_isfield(*field)) {
 969              		.loc 1 263 0
 970 035e 002F     		cmp	r7, #0
 971 0360 50D0     		beq	.L137
 972              		.loc 1 263 0 is_stmt 0 discriminator 1
 973 0362 3878     		ldrb	r0, [r7]	@ zero_extendqisi2
 974              	.LVL104:
 975              	.LBB64:
 976              	.LBB65:
 977              		.loc 2 302 0 is_stmt 1 discriminator 1
 978 0364 934B     		ldr	r3, .L155
 979 0366 1968     		ldr	r1, [r3]
 980 0368 0B18     		adds	r3, r1, r0
 981 036a 5B78     		ldrb	r3, [r3, #1]	@ zero_extendqisi2
 982 036c 13F0970F 		tst	r3, #151
 983 0370 05D0     		beq	.L138
 984              		.loc 2 302 0 is_stmt 0
 985 0372 2C28     		cmp	r0, #44
 986 0374 05D0     		beq	.L139
 987 0376 2A28     		cmp	r0, #42
 988 0378 05D1     		bne	.L140
 989 037a 0023     		movs	r3, #0
 990 037c 04E0     		b	.L78
 991              	.L138:
 992 037e 0023     		movs	r3, #0
 993 0380 02E0     		b	.L78
 994              	.L139:
 995 0382 0023     		movs	r3, #0
 996 0384 00E0     		b	.L78
 997              	.L140:
 998 0386 0123     		movs	r3, #1
 999              	.L78:
ARM GAS  C:\Users\armst\AppData\Local\Temp\ccNPhHLt.s 			page 29


 1000              	.LVL105:
 1001              	.LBE65:
 1002              	.LBE64:
 1003              		.loc 1 263 0 is_stmt 1
 1004 0388 63B9     		cbnz	r3, .L141
 261:minmea.c      **** 
 1005              		.loc 1 261 0
 1006 038a 4FF0FF30 		mov	r0, #-1
 1007 038e 0746     		mov	r7, r0
 1008              	.LVL106:
 1009 0390 8246     		mov	r10, r0
 1010 0392 3BE0     		b	.L77
 1011              	.LVL107:
 1012              	.L81:
 1013              	.LBB66:
 1014              	.LBB67:
 264:minmea.c      ****                     // Always six digits.
 265:minmea.c      ****                     for (int f=0; f<6; f++)
 266:minmea.c      ****                         if (!isdigit((unsigned char) field[f]))
 1015              		.loc 1 266 0
 1016 0394 FA5C     		ldrb	r2, [r7, r3]	@ zero_extendqisi2
 1017 0396 0A44     		add	r2, r2, r1
 1018 0398 5278     		ldrb	r2, [r2, #1]	@ zero_extendqisi2
 1019 039a 12F0040F 		tst	r2, #4
 1020 039e 2FD0     		beq	.L80
 265:minmea.c      ****                         if (!isdigit((unsigned char) field[f]))
 1021              		.loc 1 265 0 discriminator 2
 1022 03a0 0133     		adds	r3, r3, #1
 1023              	.LVL108:
 1024 03a2 00E0     		b	.L79
 1025              	.LVL109:
 1026              	.L141:
 1027              	.LBE67:
 1028              	.LBE66:
 1029 03a4 0023     		movs	r3, #0
 1030              	.L79:
 1031              	.LVL110:
 1032              	.LBB69:
 1033              	.LBB68:
 265:minmea.c      ****                         if (!isdigit((unsigned char) field[f]))
 1034              		.loc 1 265 0 is_stmt 0 discriminator 1
 1035 03a6 052B     		cmp	r3, #5
 1036 03a8 F4DD     		ble	.L81
 1037              	.LBE68:
 267:minmea.c      ****                             goto parse_error;
 268:minmea.c      **** 
 269:minmea.c      ****                     char dArr[] = {field[0], field[1], '\0'};
 1038              		.loc 1 269 0 is_stmt 1
 1039 03aa 8DF80000 		strb	r0, [sp]
 1040 03ae 7B78     		ldrb	r3, [r7, #1]	@ zero_extendqisi2
 1041              	.LVL111:
 1042 03b0 8DF80130 		strb	r3, [sp, #1]
 1043 03b4 4FF00009 		mov	r9, #0
 1044 03b8 8DF80290 		strb	r9, [sp, #2]
 270:minmea.c      ****                     char mArr[] = {field[2], field[3], '\0'};
 1045              		.loc 1 270 0
 1046 03bc BB78     		ldrb	r3, [r7, #2]	@ zero_extendqisi2
ARM GAS  C:\Users\armst\AppData\Local\Temp\ccNPhHLt.s 			page 30


 1047 03be 8DF80430 		strb	r3, [sp, #4]
 1048 03c2 FB78     		ldrb	r3, [r7, #3]	@ zero_extendqisi2
 1049 03c4 8DF80530 		strb	r3, [sp, #5]
 1050 03c8 8DF80690 		strb	r9, [sp, #6]
 271:minmea.c      ****                     char yArr[] = {field[4], field[5], '\0'};
 1051              		.loc 1 271 0
 1052 03cc 3B79     		ldrb	r3, [r7, #4]	@ zero_extendqisi2
 1053 03ce 8DF80830 		strb	r3, [sp, #8]
 1054 03d2 7B79     		ldrb	r3, [r7, #5]	@ zero_extendqisi2
 1055 03d4 8DF80930 		strb	r3, [sp, #9]
 1056 03d8 8DF80A90 		strb	r9, [sp, #10]
 272:minmea.c      ****                     d = strtol(dArr, NULL, 10);
 1057              		.loc 1 272 0
 1058 03dc 0A22     		movs	r2, #10
 1059 03de 4946     		mov	r1, r9
 1060 03e0 6846     		mov	r0, sp
 1061 03e2 FFF7FEFF 		bl	strtol
 1062              	.LVL112:
 1063 03e6 8246     		mov	r10, r0
 1064              	.LVL113:
 273:minmea.c      ****                     m = strtol(mArr, NULL, 10);
 1065              		.loc 1 273 0
 1066 03e8 0A22     		movs	r2, #10
 1067 03ea 4946     		mov	r1, r9
 1068 03ec 01A8     		add	r0, sp, #4
 1069              	.LVL114:
 1070 03ee FFF7FEFF 		bl	strtol
 1071              	.LVL115:
 1072 03f2 0746     		mov	r7, r0
 1073              	.LVL116:
 274:minmea.c      ****                     y = strtol(yArr, NULL, 10);
 1074              		.loc 1 274 0
 1075 03f4 0A22     		movs	r2, #10
 1076 03f6 4946     		mov	r1, r9
 1077 03f8 02A8     		add	r0, sp, #8
 1078              	.LVL117:
 1079 03fa FFF7FEFF 		bl	strtol
 1080              	.LVL118:
 1081 03fe 05E0     		b	.L77
 1082              	.LVL119:
 1083              	.L80:
 1084              	.LBE69:
 1085              	.LBE63:
 1086              	.LBE84:
  90:minmea.c      ****     bool optional = false;
 1087              		.loc 1 90 0
 1088 0400 0020     		movs	r0, #0
 1089 0402 D2E0     		b	.L30
 1090              	.LVL120:
 1091              	.L137:
 1092              	.LBB85:
 1093              	.LBB70:
 261:minmea.c      **** 
 1094              		.loc 1 261 0
 1095 0404 4FF0FF30 		mov	r0, #-1
 1096 0408 0746     		mov	r7, r0
 1097              	.LVL121:
ARM GAS  C:\Users\armst\AppData\Local\Temp\ccNPhHLt.s 			page 31


 1098 040a 8246     		mov	r10, r0
 1099              	.LVL122:
 1100              	.L77:
 275:minmea.c      ****                 }
 276:minmea.c      **** 
 277:minmea.c      ****                 date->day = d;
 1101              		.loc 1 277 0
 1102 040c C8F800A0 		str	r10, [r8]
 278:minmea.c      ****                 date->month = m;
 1103              		.loc 1 278 0
 1104 0410 C8F80470 		str	r7, [r8, #4]
 279:minmea.c      ****                 date->year = y;
 1105              		.loc 1 279 0
 1106 0414 C8F80800 		str	r0, [r8, #8]
 1107              	.LBE70:
 280:minmea.c      ****             } break;
 1108              		.loc 1 280 0
 1109 0418 8DE0     		b	.L66
 1110              	.LVL123:
 1111              	.L37:
 1112              	.LBB71:
 281:minmea.c      **** 
 282:minmea.c      ****             case 'T': { // Time (int, int, int, int), -1 if empty.
 283:minmea.c      ****                 struct minmea_time *time_ = va_arg(ap, struct minmea_time *);
 1113              		.loc 1 283 0
 1114 041a 039B     		ldr	r3, [sp, #12]
 1115 041c 1A1D     		adds	r2, r3, #4
 1116 041e 0392     		str	r2, [sp, #12]
 1117 0420 D3F80080 		ldr	r8, [r3]
 1118              	.LVL124:
 284:minmea.c      **** 
 285:minmea.c      ****                 int h = -1, i = -1, s = -1, u = -1;
 286:minmea.c      **** 
 287:minmea.c      ****                 if (field && minmea_isfield(*field)) {
 1119              		.loc 1 287 0
 1120 0424 002F     		cmp	r7, #0
 1121 0426 77D0     		beq	.L142
 1122              		.loc 1 287 0 is_stmt 0 discriminator 1
 1123 0428 3878     		ldrb	r0, [r7]	@ zero_extendqisi2
 1124              	.LVL125:
 1125              	.LBB72:
 1126              	.LBB73:
 1127              		.loc 2 302 0 is_stmt 1 discriminator 1
 1128 042a 624B     		ldr	r3, .L155
 1129 042c 1968     		ldr	r1, [r3]
 1130 042e 0B18     		adds	r3, r1, r0
 1131 0430 5B78     		ldrb	r3, [r3, #1]	@ zero_extendqisi2
 1132 0432 13F0970F 		tst	r3, #151
 1133 0436 05D0     		beq	.L143
 1134              		.loc 2 302 0 is_stmt 0
 1135 0438 2C28     		cmp	r0, #44
 1136 043a 05D0     		beq	.L144
 1137 043c 2A28     		cmp	r0, #42
 1138 043e 05D1     		bne	.L145
 1139 0440 0023     		movs	r3, #0
 1140 0442 04E0     		b	.L83
 1141              	.L143:
ARM GAS  C:\Users\armst\AppData\Local\Temp\ccNPhHLt.s 			page 32


 1142 0444 0023     		movs	r3, #0
 1143 0446 02E0     		b	.L83
 1144              	.L144:
 1145 0448 0023     		movs	r3, #0
 1146 044a 00E0     		b	.L83
 1147              	.L145:
 1148 044c 0123     		movs	r3, #1
 1149              	.L83:
 1150              	.LVL126:
 1151              	.LBE73:
 1152              	.LBE72:
 1153              		.loc 1 287 0 is_stmt 1
 1154 044e 6BB9     		cbnz	r3, .L146
 285:minmea.c      **** 
 1155              		.loc 1 285 0
 1156 0450 4FF0FF33 		mov	r3, #-1
 1157 0454 1846     		mov	r0, r3
 1158 0456 9946     		mov	r9, r3
 1159 0458 9A46     		mov	r10, r3
 1160 045a 62E0     		b	.L82
 1161              	.LVL127:
 1162              	.L86:
 1163              	.LBB74:
 1164              	.LBB75:
 288:minmea.c      ****                     // Minimum required: integer time.
 289:minmea.c      ****                     for (int f=0; f<6; f++)
 290:minmea.c      ****                         if (!isdigit((unsigned char) field[f]))
 1165              		.loc 1 290 0
 1166 045c FA5C     		ldrb	r2, [r7, r3]	@ zero_extendqisi2
 1167 045e 0A44     		add	r2, r2, r1
 1168 0460 5278     		ldrb	r2, [r2, #1]	@ zero_extendqisi2
 1169 0462 12F0040F 		tst	r2, #4
 1170 0466 55D0     		beq	.L85
 289:minmea.c      ****                         if (!isdigit((unsigned char) field[f]))
 1171              		.loc 1 289 0 discriminator 2
 1172 0468 0133     		adds	r3, r3, #1
 1173              	.LVL128:
 1174 046a 00E0     		b	.L84
 1175              	.LVL129:
 1176              	.L146:
 1177              	.LBE75:
 1178              	.LBE74:
 1179 046c 0023     		movs	r3, #0
 1180              	.L84:
 1181              	.LVL130:
 1182              	.LBB79:
 1183              	.LBB76:
 289:minmea.c      ****                         if (!isdigit((unsigned char) field[f]))
 1184              		.loc 1 289 0 is_stmt 0 discriminator 1
 1185 046e 052B     		cmp	r3, #5
 1186 0470 F4DD     		ble	.L86
 1187              	.LBE76:
 291:minmea.c      ****                             goto parse_error;
 292:minmea.c      **** 
 293:minmea.c      ****                     char hArr[] = {field[0], field[1], '\0'};
 1188              		.loc 1 293 0 is_stmt 1
 1189 0472 8DF80000 		strb	r0, [sp]
ARM GAS  C:\Users\armst\AppData\Local\Temp\ccNPhHLt.s 			page 33


 1190 0476 7B78     		ldrb	r3, [r7, #1]	@ zero_extendqisi2
 1191              	.LVL131:
 1192 0478 8DF80130 		strb	r3, [sp, #1]
 1193 047c 4FF0000B 		mov	fp, #0
 1194 0480 8DF802B0 		strb	fp, [sp, #2]
 294:minmea.c      ****                     char iArr[] = {field[2], field[3], '\0'};
 1195              		.loc 1 294 0
 1196 0484 BB78     		ldrb	r3, [r7, #2]	@ zero_extendqisi2
 1197 0486 8DF80430 		strb	r3, [sp, #4]
 1198 048a FB78     		ldrb	r3, [r7, #3]	@ zero_extendqisi2
 1199 048c 8DF80530 		strb	r3, [sp, #5]
 1200 0490 8DF806B0 		strb	fp, [sp, #6]
 295:minmea.c      ****                     char sArr[] = {field[4], field[5], '\0'};
 1201              		.loc 1 295 0
 1202 0494 3B79     		ldrb	r3, [r7, #4]	@ zero_extendqisi2
 1203 0496 8DF80830 		strb	r3, [sp, #8]
 1204 049a 7B79     		ldrb	r3, [r7, #5]	@ zero_extendqisi2
 1205 049c 8DF80930 		strb	r3, [sp, #9]
 1206 04a0 8DF80AB0 		strb	fp, [sp, #10]
 296:minmea.c      ****                     h = strtol(hArr, NULL, 10);
 1207              		.loc 1 296 0
 1208 04a4 0A22     		movs	r2, #10
 1209 04a6 5946     		mov	r1, fp
 1210 04a8 6846     		mov	r0, sp
 1211 04aa FFF7FEFF 		bl	strtol
 1212              	.LVL132:
 1213 04ae 8246     		mov	r10, r0
 1214              	.LVL133:
 297:minmea.c      ****                     i = strtol(iArr, NULL, 10);
 1215              		.loc 1 297 0
 1216 04b0 0A22     		movs	r2, #10
 1217 04b2 5946     		mov	r1, fp
 1218 04b4 01A8     		add	r0, sp, #4
 1219              	.LVL134:
 1220 04b6 FFF7FEFF 		bl	strtol
 1221              	.LVL135:
 1222 04ba 8146     		mov	r9, r0
 1223              	.LVL136:
 298:minmea.c      ****                     s = strtol(sArr, NULL, 10);
 1224              		.loc 1 298 0
 1225 04bc 0A22     		movs	r2, #10
 1226 04be 5946     		mov	r1, fp
 1227 04c0 02A8     		add	r0, sp, #8
 1228              	.LVL137:
 1229 04c2 FFF7FEFF 		bl	strtol
 1230              	.LVL138:
 299:minmea.c      ****                     field += 6;
 300:minmea.c      **** 
 301:minmea.c      ****                     // Extra: fractional time. Saved as microseconds.
 302:minmea.c      ****                     if (*field++ == '.') {
 1231              		.loc 1 302 0
 1232 04c6 07F1070C 		add	ip, r7, #7
 1233              	.LVL139:
 1234 04ca BB79     		ldrb	r3, [r7, #6]	@ zero_extendqisi2
 1235 04cc 2E2B     		cmp	r3, #46
 1236 04ce 0FD0     		beq	.L147
 303:minmea.c      ****                         uint32_t value = 0;
ARM GAS  C:\Users\armst\AppData\Local\Temp\ccNPhHLt.s 			page 34


 304:minmea.c      ****                         uint32_t scale = 1000000LU;
 305:minmea.c      ****                         while (isdigit((unsigned char) *field) && scale > 1) {
 306:minmea.c      ****                             value = (value * 10) + (*field++ - '0');
 307:minmea.c      ****                             scale /= 10;
 308:minmea.c      ****                         }
 309:minmea.c      ****                         u = value * scale;
 310:minmea.c      ****                     } else {
 311:minmea.c      ****                         u = 0;
 1237              		.loc 1 311 0
 1238 04d0 5B46     		mov	r3, fp
 1239 04d2 26E0     		b	.L82
 1240              	.LVL140:
 1241              	.L90:
 1242              	.LBB77:
 306:minmea.c      ****                             scale /= 10;
 1243              		.loc 1 306 0
 1244 04d4 01EB8103 		add	r3, r1, r1, lsl #2
 1245 04d8 5F00     		lsls	r7, r3, #1
 1246 04da 0CF1010C 		add	ip, ip, #1
 1247              	.LVL141:
 1248 04de 0BEB0703 		add	r3, fp, r7
 1249 04e2 A3F13001 		sub	r1, r3, #48
 1250              	.LVL142:
 307:minmea.c      ****                         }
 1251              		.loc 1 307 0
 1252 04e6 344B     		ldr	r3, .L155+4
 1253 04e8 A3FB0223 		umull	r2, r3, r3, r2
 1254              	.LVL143:
 1255 04ec DA08     		lsrs	r2, r3, #3
 1256              	.LVL144:
 1257 04ee 01E0     		b	.L87
 1258              	.LVL145:
 1259              	.L147:
 1260              	.LBE77:
 1261 04f0 324A     		ldr	r2, .L155+8
 1262 04f2 0021     		movs	r1, #0
 1263              	.L87:
 1264              	.LVL146:
 1265              	.LBB78:
 305:minmea.c      ****                             value = (value * 10) + (*field++ - '0');
 1266              		.loc 1 305 0
 1267 04f4 9CF800B0 		ldrb	fp, [ip]	@ zero_extendqisi2
 1268 04f8 2E4B     		ldr	r3, .L155
 1269 04fa 1B68     		ldr	r3, [r3]
 1270 04fc 03EB0B0E 		add	lr, r3, fp
 1271 0500 9EF80130 		ldrb	r3, [lr, #1]	@ zero_extendqisi2
 1272 0504 13F0040F 		tst	r3, #4
 1273 0508 01D0     		beq	.L89
 305:minmea.c      ****                             value = (value * 10) + (*field++ - '0');
 1274              		.loc 1 305 0 is_stmt 0 discriminator 1
 1275 050a 012A     		cmp	r2, #1
 1276 050c E2D8     		bhi	.L90
 1277              	.L89:
 309:minmea.c      ****                     } else {
 1278              		.loc 1 309 0 is_stmt 1
 1279 050e 02FB01F3 		mul	r3, r2, r1
 1280              	.LVL147:
ARM GAS  C:\Users\armst\AppData\Local\Temp\ccNPhHLt.s 			page 35


 1281              	.LBE78:
 1282 0512 06E0     		b	.L82
 1283              	.LVL148:
 1284              	.L85:
 1285              	.LBE79:
 1286              	.LBE71:
 1287              	.LBE85:
  90:minmea.c      ****     bool optional = false;
 1288              		.loc 1 90 0
 1289 0514 0020     		movs	r0, #0
 1290 0516 48E0     		b	.L30
 1291              	.LVL149:
 1292              	.L142:
 1293              	.LBB86:
 1294              	.LBB80:
 285:minmea.c      **** 
 1295              		.loc 1 285 0
 1296 0518 4FF0FF33 		mov	r3, #-1
 1297 051c 1846     		mov	r0, r3
 1298 051e 9946     		mov	r9, r3
 1299 0520 9A46     		mov	r10, r3
 1300              	.LVL150:
 1301              	.L82:
 312:minmea.c      ****                     }
 313:minmea.c      ****                 }
 314:minmea.c      **** 
 315:minmea.c      ****                 time_->hours = h;
 1302              		.loc 1 315 0
 1303 0522 C8F800A0 		str	r10, [r8]
 316:minmea.c      ****                 time_->minutes = i;
 1304              		.loc 1 316 0
 1305 0526 C8F80490 		str	r9, [r8, #4]
 317:minmea.c      ****                 time_->seconds = s;
 1306              		.loc 1 317 0
 1307 052a C8F80800 		str	r0, [r8, #8]
 318:minmea.c      ****                 time_->microseconds = u;
 1308              		.loc 1 318 0
 1309 052e C8F80C30 		str	r3, [r8, #12]
 1310              	.LBE80:
 319:minmea.c      ****             } break;
 1311              		.loc 1 319 0
 1312 0532 00E0     		b	.L66
 1313              	.LVL151:
 1314              	.L92:
 320:minmea.c      **** 
 321:minmea.c      ****             case '_': { // Ignore the field.
 322:minmea.c      ****             } break;
 323:minmea.c      **** 
 324:minmea.c      ****             default: { // Unknown.
 325:minmea.c      ****                 goto parse_error;
 326:minmea.c      ****             }
 327:minmea.c      ****         }
 328:minmea.c      **** 
 329:minmea.c      ****         next_field();
 1315              		.loc 1 329 0 discriminator 2
 1316 0534 0134     		adds	r4, r4, #1
 1317              	.LVL152:
ARM GAS  C:\Users\armst\AppData\Local\Temp\ccNPhHLt.s 			page 36


 1318              	.L66:
 1319              		.loc 1 329 0 is_stmt 0 discriminator 1
 1320 0536 2278     		ldrb	r2, [r4]	@ zero_extendqisi2
 1321              	.LVL153:
 1322              	.LBB81:
 1323              	.LBB82:
 1324              		.loc 2 302 0 is_stmt 1 discriminator 1
 1325 0538 1E4B     		ldr	r3, .L155
 1326 053a 1B68     		ldr	r3, [r3]
 1327 053c 1344     		add	r3, r3, r2
 1328 053e 5B78     		ldrb	r3, [r3, #1]	@ zero_extendqisi2
 1329 0540 13F0970F 		tst	r3, #151
 1330 0544 05D0     		beq	.L148
 1331              		.loc 2 302 0 is_stmt 0
 1332 0546 2C2A     		cmp	r2, #44
 1333 0548 05D0     		beq	.L149
 1334 054a 2A2A     		cmp	r2, #42
 1335 054c 05D1     		bne	.L150
 1336 054e 0023     		movs	r3, #0
 1337 0550 04E0     		b	.L91
 1338              	.L148:
 1339 0552 0023     		movs	r3, #0
 1340 0554 02E0     		b	.L91
 1341              	.L149:
 1342 0556 0023     		movs	r3, #0
 1343 0558 00E0     		b	.L91
 1344              	.L150:
 1345 055a 0123     		movs	r3, #1
 1346              	.L91:
 1347              	.LVL154:
 1348              	.LBE82:
 1349              	.LBE81:
 1350              		.loc 1 329 0 is_stmt 1
 1351 055c 002B     		cmp	r3, #0
 1352 055e E9D1     		bne	.L92
 1353              		.loc 1 329 0 is_stmt 0 discriminator 3
 1354 0560 2C2A     		cmp	r2, #44
 1355 0562 04D1     		bne	.L151
 1356              		.loc 1 329 0 discriminator 4
 1357 0564 0134     		adds	r4, r4, #1
 1358              	.LVL155:
 1359 0566 2746     		mov	r7, r4
 1360 0568 02E0     		b	.L31
 1361              	.LVL156:
 1362              	.L95:
 119:minmea.c      ****             continue;
 1363              		.loc 1 119 0 is_stmt 1
 1364 056a 0126     		movs	r6, #1
 1365              	.LVL157:
 1366 056c 00E0     		b	.L31
 1367              	.LVL158:
 1368              	.L151:
 1369              		.loc 1 329 0
 1370 056e 0027     		movs	r7, #0
 1371              	.LVL159:
 1372              	.L31:
 1373              	.LBE86:
ARM GAS  C:\Users\armst\AppData\Local\Temp\ccNPhHLt.s 			page 37


 114:minmea.c      ****         char type = *format++;
 1374              		.loc 1 114 0
 1375 0570 2B78     		ldrb	r3, [r5]	@ zero_extendqisi2
 1376 0572 002B     		cmp	r3, #0
 1377 0574 7FF452AD 		bne	.L93
 330:minmea.c      ****     }
 331:minmea.c      **** 
 332:minmea.c      ****     result = true;
 1378              		.loc 1 332 0
 1379 0578 0120     		movs	r0, #1
 1380 057a 16E0     		b	.L30
 1381              	.LVL160:
 1382              	.L96:
  90:minmea.c      ****     bool optional = false;
 1383              		.loc 1 90 0
 1384 057c 0020     		movs	r0, #0
 1385 057e 14E0     		b	.L30
 1386              	.LVL161:
 1387              	.L97:
 1388 0580 0020     		movs	r0, #0
 1389 0582 12E0     		b	.L30
 1390              	.LVL162:
 1391              	.L107:
 1392 0584 0020     		movs	r0, #0
 1393 0586 10E0     		b	.L30
 1394              	.LVL163:
 1395              	.L114:
 1396 0588 0020     		movs	r0, #0
 1397              	.LVL164:
 1398 058a 0EE0     		b	.L30
 1399              	.LVL165:
 1400              	.L115:
 1401 058c 0020     		movs	r0, #0
 1402              	.LVL166:
 1403 058e 0CE0     		b	.L30
 1404              	.LVL167:
 1405              	.L116:
 1406 0590 0020     		movs	r0, #0
 1407              	.LVL168:
 1408 0592 0AE0     		b	.L30
 1409              	.LVL169:
 1410              	.L117:
 1411 0594 0020     		movs	r0, #0
 1412              	.LVL170:
 1413 0596 08E0     		b	.L30
 1414              	.LVL171:
 1415              	.L121:
 1416 0598 0020     		movs	r0, #0
 1417              	.LVL172:
 1418 059a 06E0     		b	.L30
 1419              	.LVL173:
 1420              	.L131:
 1421 059c 0020     		movs	r0, #0
 1422 059e 04E0     		b	.L30
 1423              	.L132:
 1424 05a0 0020     		movs	r0, #0
 1425 05a2 02E0     		b	.L30
ARM GAS  C:\Users\armst\AppData\Local\Temp\ccNPhHLt.s 			page 38


 1426              	.LVL174:
 1427              	.L136:
 1428 05a4 0020     		movs	r0, #0
 1429              	.L34:
 1430              	.LVL175:
 333:minmea.c      **** 
 334:minmea.c      **** parse_error:
 335:minmea.c      ****     va_end(ap);
 336:minmea.c      ****     return result;
 1431              		.loc 1 336 0
 1432 05a6 00E0     		b	.L30
 1433              	.LVL176:
 1434              	.L94:
  94:minmea.c      **** 
 1435              		.loc 1 94 0
 1436 05a8 0020     		movs	r0, #0
 1437              	.LVL177:
 1438              	.L30:
 337:minmea.c      **** }
 1439              		.loc 1 337 0
 1440 05aa 04B0     		add	sp, sp, #16
 1441              		.cfi_def_cfa_offset 48
 1442              		@ sp needed
 1443 05ac BDE8F04F 		pop	{r4, r5, r6, r7, r8, r9, r10, fp, lr}
 1444              		.cfi_restore 14
 1445              		.cfi_restore 11
 1446              		.cfi_restore 10
 1447              		.cfi_restore 9
 1448              		.cfi_restore 8
 1449              		.cfi_restore 7
 1450              		.cfi_restore 6
 1451              		.cfi_restore 5
 1452              		.cfi_restore 4
 1453              		.cfi_def_cfa_offset 12
 1454 05b0 03B0     		add	sp, sp, #12
 1455              		.cfi_restore 3
 1456              		.cfi_restore 2
 1457              		.cfi_restore 1
 1458              		.cfi_def_cfa_offset 0
 1459 05b2 7047     		bx	lr
 1460              	.L156:
 1461              		.align	2
 1462              	.L155:
 1463 05b4 00000000 		.word	__ctype_ptr__
 1464 05b8 CDCCCCCC 		.word	-858993459
 1465 05bc 40420F00 		.word	1000000
 1466              		.cfi_endproc
 1467              	.LFE8:
 1468              		.size	minmea_scan, .-minmea_scan
 1469              		.section	.text.minmea_talker_id,"ax",%progbits
 1470              		.align	2
 1471              		.global	minmea_talker_id
 1472              		.thumb
 1473              		.thumb_func
 1474              		.type	minmea_talker_id, %function
 1475              	minmea_talker_id:
 1476              	.LFB9:
ARM GAS  C:\Users\armst\AppData\Local\Temp\ccNPhHLt.s 			page 39


 338:minmea.c      **** 
 339:minmea.c      **** bool minmea_talker_id(char talker[3], const char *sentence)
 340:minmea.c      **** {
 1477              		.loc 1 340 0
 1478              		.cfi_startproc
 1479              		@ args = 0, pretend = 0, frame = 8
 1480              		@ frame_needed = 0, uses_anonymous_args = 0
 1481              	.LVL178:
 1482 0000 10B5     		push	{r4, lr}
 1483              		.cfi_def_cfa_offset 8
 1484              		.cfi_offset 4, -8
 1485              		.cfi_offset 14, -4
 1486 0002 82B0     		sub	sp, sp, #8
 1487              		.cfi_def_cfa_offset 16
 1488 0004 0446     		mov	r4, r0
 1489 0006 0846     		mov	r0, r1
 1490              	.LVL179:
 341:minmea.c      ****     char type[6];
 342:minmea.c      ****     if (!minmea_scan(sentence, "t", type))
 1491              		.loc 1 342 0
 1492 0008 6A46     		mov	r2, sp
 1493 000a 0849     		ldr	r1, .L160
 1494              	.LVL180:
 1495 000c FFF7FEFF 		bl	minmea_scan
 1496              	.LVL181:
 1497 0010 0346     		mov	r3, r0
 1498 0012 38B1     		cbz	r0, .L158
 343:minmea.c      ****         return false;
 344:minmea.c      **** 
 345:minmea.c      ****     talker[0] = type[0];
 1499              		.loc 1 345 0
 1500 0014 9DF80020 		ldrb	r2, [sp]	@ zero_extendqisi2
 1501 0018 2270     		strb	r2, [r4]
 346:minmea.c      ****     talker[1] = type[1];
 1502              		.loc 1 346 0
 1503 001a 9DF80120 		ldrb	r2, [sp, #1]	@ zero_extendqisi2
 1504 001e 6270     		strb	r2, [r4, #1]
 347:minmea.c      ****     talker[2] = '\0';
 1505              		.loc 1 347 0
 1506 0020 0022     		movs	r2, #0
 1507 0022 A270     		strb	r2, [r4, #2]
 1508              	.L158:
 348:minmea.c      **** 
 349:minmea.c      ****     return true;
 350:minmea.c      **** }
 1509              		.loc 1 350 0
 1510 0024 1846     		mov	r0, r3
 1511 0026 02B0     		add	sp, sp, #8
 1512              		.cfi_def_cfa_offset 8
 1513              		@ sp needed
 1514 0028 10BD     		pop	{r4, pc}
 1515              	.LVL182:
 1516              	.L161:
 1517 002a 00BF     		.align	2
 1518              	.L160:
 1519 002c 00000000 		.word	.LC0
 1520              		.cfi_endproc
ARM GAS  C:\Users\armst\AppData\Local\Temp\ccNPhHLt.s 			page 40


 1521              	.LFE9:
 1522              		.size	minmea_talker_id, .-minmea_talker_id
 1523              		.section	.text.minmea_sentence_id,"ax",%progbits
 1524              		.align	2
 1525              		.global	minmea_sentence_id
 1526              		.thumb
 1527              		.thumb_func
 1528              		.type	minmea_sentence_id, %function
 1529              	minmea_sentence_id:
 1530              	.LFB10:
 351:minmea.c      **** 
 352:minmea.c      **** enum minmea_sentence_id minmea_sentence_id(const char *sentence, bool strict)
 353:minmea.c      **** {
 1531              		.loc 1 353 0
 1532              		.cfi_startproc
 1533              		@ args = 0, pretend = 0, frame = 8
 1534              		@ frame_needed = 0, uses_anonymous_args = 0
 1535              	.LVL183:
 1536 0000 10B5     		push	{r4, lr}
 1537              		.cfi_def_cfa_offset 8
 1538              		.cfi_offset 4, -8
 1539              		.cfi_offset 14, -4
 1540 0002 82B0     		sub	sp, sp, #8
 1541              		.cfi_def_cfa_offset 16
 1542 0004 0446     		mov	r4, r0
 354:minmea.c      ****     if (!minmea_check(sentence, strict))
 1543              		.loc 1 354 0
 1544 0006 FFF7FEFF 		bl	minmea_check
 1545              	.LVL184:
 1546 000a 0028     		cmp	r0, #0
 1547 000c 3ED0     		beq	.L164
 355:minmea.c      ****         return MINMEA_INVALID;
 356:minmea.c      **** 
 357:minmea.c      ****     char type[6];
 358:minmea.c      ****     if (!minmea_scan(sentence, "t", type))
 1548              		.loc 1 358 0
 1549 000e 6A46     		mov	r2, sp
 1550 0010 2B49     		ldr	r1, .L176
 1551 0012 2046     		mov	r0, r4
 1552 0014 FFF7FEFF 		bl	minmea_scan
 1553              	.LVL185:
 1554 0018 0028     		cmp	r0, #0
 1555 001a 3AD0     		beq	.L165
 359:minmea.c      ****         return MINMEA_INVALID;
 360:minmea.c      **** 
 361:minmea.c      ****     if (!strcmp(type+2, "GBS"))
 1556              		.loc 1 361 0
 1557 001c 2949     		ldr	r1, .L176+4
 1558 001e 0DF10200 		add	r0, sp, #2
 1559 0022 FFF7FEFF 		bl	strcmp
 1560              	.LVL186:
 1561 0026 B8B3     		cbz	r0, .L166
 362:minmea.c      ****         return MINMEA_SENTENCE_GBS;
 363:minmea.c      ****     if (!strcmp(type+2, "GGA"))
 1562              		.loc 1 363 0
 1563 0028 2749     		ldr	r1, .L176+8
 1564 002a 0DF10200 		add	r0, sp, #2
ARM GAS  C:\Users\armst\AppData\Local\Temp\ccNPhHLt.s 			page 41


 1565 002e FFF7FEFF 		bl	strcmp
 1566              	.LVL187:
 1567 0032 98B3     		cbz	r0, .L167
 364:minmea.c      ****         return MINMEA_SENTENCE_GGA;
 365:minmea.c      ****     if (!strcmp(type+2, "GLL"))
 1568              		.loc 1 365 0
 1569 0034 2549     		ldr	r1, .L176+12
 1570 0036 0DF10200 		add	r0, sp, #2
 1571 003a FFF7FEFF 		bl	strcmp
 1572              	.LVL188:
 1573 003e 78B3     		cbz	r0, .L168
 366:minmea.c      ****         return MINMEA_SENTENCE_GLL;
 367:minmea.c      ****     if (!strcmp(type+2, "GSA"))
 1574              		.loc 1 367 0
 1575 0040 2349     		ldr	r1, .L176+16
 1576 0042 0DF10200 		add	r0, sp, #2
 1577 0046 FFF7FEFF 		bl	strcmp
 1578              	.LVL189:
 1579 004a 58B3     		cbz	r0, .L169
 368:minmea.c      ****         return MINMEA_SENTENCE_GSA;
 369:minmea.c      ****     if (!strcmp(type+2, "GST"))
 1580              		.loc 1 369 0
 1581 004c 2149     		ldr	r1, .L176+20
 1582 004e 0DF10200 		add	r0, sp, #2
 1583 0052 FFF7FEFF 		bl	strcmp
 1584              	.LVL190:
 1585 0056 38B3     		cbz	r0, .L170
 370:minmea.c      ****         return MINMEA_SENTENCE_GST;
 371:minmea.c      ****     if (!strcmp(type+2, "GSV"))
 1586              		.loc 1 371 0
 1587 0058 1F49     		ldr	r1, .L176+24
 1588 005a 0DF10200 		add	r0, sp, #2
 1589 005e FFF7FEFF 		bl	strcmp
 1590              	.LVL191:
 1591 0062 18B3     		cbz	r0, .L171
 372:minmea.c      ****         return MINMEA_SENTENCE_GSV;
 373:minmea.c      ****     if (!strcmp(type+2, "RMC"))
 1592              		.loc 1 373 0
 1593 0064 1D49     		ldr	r1, .L176+28
 1594 0066 0DF10200 		add	r0, sp, #2
 1595 006a FFF7FEFF 		bl	strcmp
 1596              	.LVL192:
 1597 006e F8B1     		cbz	r0, .L172
 374:minmea.c      ****         return MINMEA_SENTENCE_RMC;
 375:minmea.c      ****     if (!strcmp(type+2, "VTG"))
 1598              		.loc 1 375 0
 1599 0070 1B49     		ldr	r1, .L176+32
 1600 0072 0DF10200 		add	r0, sp, #2
 1601 0076 FFF7FEFF 		bl	strcmp
 1602              	.LVL193:
 1603 007a D8B1     		cbz	r0, .L173
 376:minmea.c      ****         return MINMEA_SENTENCE_VTG;
 377:minmea.c      ****     if (!strcmp(type+2, "ZDA"))
 1604              		.loc 1 377 0
 1605 007c 1949     		ldr	r1, .L176+36
 1606 007e 0DF10200 		add	r0, sp, #2
 1607 0082 FFF7FEFF 		bl	strcmp
ARM GAS  C:\Users\armst\AppData\Local\Temp\ccNPhHLt.s 			page 42


 1608              	.LVL194:
 1609 0086 B8B9     		cbnz	r0, .L174
 378:minmea.c      ****         return MINMEA_SENTENCE_ZDA;
 1610              		.loc 1 378 0
 1611 0088 0920     		movs	r0, #9
 1612 008a 16E0     		b	.L163
 1613              	.L164:
 355:minmea.c      **** 
 1614              		.loc 1 355 0
 1615 008c 4FF0FF30 		mov	r0, #-1
 1616 0090 13E0     		b	.L163
 1617              	.L165:
 359:minmea.c      **** 
 1618              		.loc 1 359 0
 1619 0092 4FF0FF30 		mov	r0, #-1
 1620 0096 10E0     		b	.L163
 1621              	.L166:
 362:minmea.c      ****     if (!strcmp(type+2, "GGA"))
 1622              		.loc 1 362 0
 1623 0098 0120     		movs	r0, #1
 1624 009a 0EE0     		b	.L163
 1625              	.L167:
 364:minmea.c      ****     if (!strcmp(type+2, "GLL"))
 1626              		.loc 1 364 0
 1627 009c 0220     		movs	r0, #2
 1628 009e 0CE0     		b	.L163
 1629              	.L168:
 366:minmea.c      ****     if (!strcmp(type+2, "GSA"))
 1630              		.loc 1 366 0
 1631 00a0 0320     		movs	r0, #3
 1632 00a2 0AE0     		b	.L163
 1633              	.L169:
 368:minmea.c      ****     if (!strcmp(type+2, "GST"))
 1634              		.loc 1 368 0
 1635 00a4 0420     		movs	r0, #4
 1636 00a6 08E0     		b	.L163
 1637              	.L170:
 370:minmea.c      ****     if (!strcmp(type+2, "GSV"))
 1638              		.loc 1 370 0
 1639 00a8 0520     		movs	r0, #5
 1640 00aa 06E0     		b	.L163
 1641              	.L171:
 372:minmea.c      ****     if (!strcmp(type+2, "RMC"))
 1642              		.loc 1 372 0
 1643 00ac 0620     		movs	r0, #6
 1644 00ae 04E0     		b	.L163
 1645              	.L172:
 374:minmea.c      ****     if (!strcmp(type+2, "VTG"))
 1646              		.loc 1 374 0
 1647 00b0 0720     		movs	r0, #7
 1648 00b2 02E0     		b	.L163
 1649              	.L173:
 376:minmea.c      ****     if (!strcmp(type+2, "ZDA"))
 1650              		.loc 1 376 0
 1651 00b4 0820     		movs	r0, #8
 1652 00b6 00E0     		b	.L163
 1653              	.L174:
ARM GAS  C:\Users\armst\AppData\Local\Temp\ccNPhHLt.s 			page 43


 379:minmea.c      **** 
 380:minmea.c      ****     return MINMEA_UNKNOWN;
 1654              		.loc 1 380 0
 1655 00b8 0020     		movs	r0, #0
 1656              	.L163:
 381:minmea.c      **** }
 1657              		.loc 1 381 0
 1658 00ba 02B0     		add	sp, sp, #8
 1659              		.cfi_def_cfa_offset 8
 1660              		@ sp needed
 1661 00bc 10BD     		pop	{r4, pc}
 1662              	.LVL195:
 1663              	.L177:
 1664 00be 00BF     		.align	2
 1665              	.L176:
 1666 00c0 00000000 		.word	.LC0
 1667 00c4 04000000 		.word	.LC1
 1668 00c8 08000000 		.word	.LC2
 1669 00cc 0C000000 		.word	.LC3
 1670 00d0 10000000 		.word	.LC4
 1671 00d4 14000000 		.word	.LC5
 1672 00d8 18000000 		.word	.LC6
 1673 00dc 1C000000 		.word	.LC7
 1674 00e0 20000000 		.word	.LC8
 1675 00e4 24000000 		.word	.LC9
 1676              		.cfi_endproc
 1677              	.LFE10:
 1678              		.size	minmea_sentence_id, .-minmea_sentence_id
 1679              		.section	.text.minmea_parse_gbs,"ax",%progbits
 1680              		.align	2
 1681              		.global	minmea_parse_gbs
 1682              		.thumb
 1683              		.thumb_func
 1684              		.type	minmea_parse_gbs, %function
 1685              	minmea_parse_gbs:
 1686              	.LFB11:
 382:minmea.c      **** 
 383:minmea.c      **** bool minmea_parse_gbs(struct minmea_sentence_gbs *frame, const char *sentence)
 384:minmea.c      **** {
 1687              		.loc 1 384 0
 1688              		.cfi_startproc
 1689              		@ args = 0, pretend = 0, frame = 8
 1690              		@ frame_needed = 0, uses_anonymous_args = 0
 1691              	.LVL196:
 1692 0000 10B5     		push	{r4, lr}
 1693              		.cfi_def_cfa_offset 8
 1694              		.cfi_offset 4, -8
 1695              		.cfi_offset 14, -4
 1696 0002 8AB0     		sub	sp, sp, #40
 1697              		.cfi_def_cfa_offset 48
 1698 0004 0346     		mov	r3, r0
 1699 0006 0846     		mov	r0, r1
 1700              	.LVL197:
 385:minmea.c      ****     // $GNGBS,170556.00,3.0,2.9,8.3,,,,*5C
 386:minmea.c      ****     char type[6];
 387:minmea.c      ****     if (!minmea_scan(sentence, "tTfffifff",
 1701              		.loc 1 387 0
ARM GAS  C:\Users\armst\AppData\Local\Temp\ccNPhHLt.s 			page 44


 1702 0008 03F13C02 		add	r2, r3, #60
 1703 000c 0692     		str	r2, [sp, #24]
 1704 000e 03F13402 		add	r2, r3, #52
 1705 0012 0592     		str	r2, [sp, #20]
 1706 0014 03F12C02 		add	r2, r3, #44
 1707 0018 0492     		str	r2, [sp, #16]
 1708 001a 03F12802 		add	r2, r3, #40
 1709 001e 0392     		str	r2, [sp, #12]
 1710 0020 03F12002 		add	r2, r3, #32
 1711 0024 0292     		str	r2, [sp, #8]
 1712 0026 03F11802 		add	r2, r3, #24
 1713 002a 0192     		str	r2, [sp, #4]
 1714 002c 03F11002 		add	r2, r3, #16
 1715 0030 0092     		str	r2, [sp]
 1716 0032 08AA     		add	r2, sp, #32
 1717 0034 0749     		ldr	r1, .L181
 1718              	.LVL198:
 1719 0036 FFF7FEFF 		bl	minmea_scan
 1720              	.LVL199:
 1721 003a 0446     		mov	r4, r0
 1722 003c 30B1     		cbz	r0, .L179
 388:minmea.c      ****             type,
 389:minmea.c      ****             &frame->time,
 390:minmea.c      ****             &frame->err_latitude,
 391:minmea.c      ****             &frame->err_longitude,
 392:minmea.c      ****             &frame->err_altitude,
 393:minmea.c      ****             &frame->svid,
 394:minmea.c      ****             &frame->prob,
 395:minmea.c      ****             &frame->bias,
 396:minmea.c      ****             &frame->stddev
 397:minmea.c      ****             ))
 398:minmea.c      ****         return false;
 399:minmea.c      ****     if (strcmp(type+2, "GBS"))
 1723              		.loc 1 399 0
 1724 003e 0649     		ldr	r1, .L181+4
 1725 0040 0DF12200 		add	r0, sp, #34
 1726 0044 FFF7FEFF 		bl	strcmp
 1727              	.LVL200:
 1728 0048 00B1     		cbz	r0, .L179
 400:minmea.c      ****         return false;
 1729              		.loc 1 400 0
 1730 004a 0024     		movs	r4, #0
 1731              	.L179:
 401:minmea.c      **** 
 402:minmea.c      ****     return true;
 403:minmea.c      **** }
 1732              		.loc 1 403 0
 1733 004c 2046     		mov	r0, r4
 1734 004e 0AB0     		add	sp, sp, #40
 1735              		.cfi_def_cfa_offset 8
 1736              		@ sp needed
 1737 0050 10BD     		pop	{r4, pc}
 1738              	.L182:
 1739 0052 00BF     		.align	2
 1740              	.L181:
 1741 0054 28000000 		.word	.LC10
 1742 0058 04000000 		.word	.LC1
ARM GAS  C:\Users\armst\AppData\Local\Temp\ccNPhHLt.s 			page 45


 1743              		.cfi_endproc
 1744              	.LFE11:
 1745              		.size	minmea_parse_gbs, .-minmea_parse_gbs
 1746              		.section	.text.minmea_parse_rmc,"ax",%progbits
 1747              		.align	2
 1748              		.global	minmea_parse_rmc
 1749              		.thumb
 1750              		.thumb_func
 1751              		.type	minmea_parse_rmc, %function
 1752              	minmea_parse_rmc:
 1753              	.LFB12:
 404:minmea.c      **** 
 405:minmea.c      **** bool minmea_parse_rmc(struct minmea_sentence_rmc *frame, const char *sentence)
 406:minmea.c      **** {
 1754              		.loc 1 406 0
 1755              		.cfi_startproc
 1756              		@ args = 0, pretend = 0, frame = 24
 1757              		@ frame_needed = 0, uses_anonymous_args = 0
 1758              	.LVL201:
 1759 0000 30B5     		push	{r4, r5, lr}
 1760              		.cfi_def_cfa_offset 12
 1761              		.cfi_offset 4, -12
 1762              		.cfi_offset 5, -8
 1763              		.cfi_offset 14, -4
 1764 0002 91B0     		sub	sp, sp, #68
 1765              		.cfi_def_cfa_offset 80
 1766 0004 0446     		mov	r4, r0
 1767 0006 0846     		mov	r0, r1
 1768              	.LVL202:
 407:minmea.c      ****     // $GPRMC,081836,A,3751.65,S,14507.36,E,000.0,360.0,130998,011.3,E*62
 408:minmea.c      ****     char type[6];
 409:minmea.c      ****     char validity;
 410:minmea.c      ****     int latitude_direction;
 411:minmea.c      ****     int longitude_direction;
 412:minmea.c      ****     int variation_direction;
 413:minmea.c      ****     if (!minmea_scan(sentence, "tTcfdfdffDfd",
 1769              		.loc 1 413 0
 1770 0008 0AAB     		add	r3, sp, #40
 1771 000a 0993     		str	r3, [sp, #36]
 1772 000c 04F14003 		add	r3, r4, #64
 1773 0010 0893     		str	r3, [sp, #32]
 1774 0012 04F13403 		add	r3, r4, #52
 1775 0016 0793     		str	r3, [sp, #28]
 1776 0018 04F12C03 		add	r3, r4, #44
 1777 001c 0693     		str	r3, [sp, #24]
 1778 001e 04F12403 		add	r3, r4, #36
 1779 0022 0593     		str	r3, [sp, #20]
 1780 0024 0BAB     		add	r3, sp, #44
 1781 0026 0493     		str	r3, [sp, #16]
 1782 0028 04F11C03 		add	r3, r4, #28
 1783 002c 0393     		str	r3, [sp, #12]
 1784 002e 0CAB     		add	r3, sp, #48
 1785 0030 0293     		str	r3, [sp, #8]
 1786 0032 04F11403 		add	r3, r4, #20
 1787 0036 0193     		str	r3, [sp, #4]
 1788 0038 0DF13703 		add	r3, sp, #55
 1789 003c 0093     		str	r3, [sp]
ARM GAS  C:\Users\armst\AppData\Local\Temp\ccNPhHLt.s 			page 46


 1790 003e 2346     		mov	r3, r4
 1791 0040 0EAA     		add	r2, sp, #56
 1792 0042 1349     		ldr	r1, .L187
 1793              	.LVL203:
 1794 0044 FFF7FEFF 		bl	minmea_scan
 1795              	.LVL204:
 1796 0048 0546     		mov	r5, r0
 1797 004a E8B1     		cbz	r0, .L184
 414:minmea.c      ****             type,
 415:minmea.c      ****             &frame->time,
 416:minmea.c      ****             &validity,
 417:minmea.c      ****             &frame->latitude, &latitude_direction,
 418:minmea.c      ****             &frame->longitude, &longitude_direction,
 419:minmea.c      ****             &frame->speed,
 420:minmea.c      ****             &frame->course,
 421:minmea.c      ****             &frame->date,
 422:minmea.c      ****             &frame->variation, &variation_direction))
 423:minmea.c      ****         return false;
 424:minmea.c      ****     if (strcmp(type+2, "RMC"))
 1798              		.loc 1 424 0
 1799 004c 1149     		ldr	r1, .L187+4
 1800 004e 0DF13A00 		add	r0, sp, #58
 1801 0052 FFF7FEFF 		bl	strcmp
 1802              	.LVL205:
 1803 0056 B0B9     		cbnz	r0, .L185
 425:minmea.c      ****         return false;
 426:minmea.c      **** 
 427:minmea.c      ****     frame->valid = (validity == 'A');
 1804              		.loc 1 427 0
 1805 0058 9DF83730 		ldrb	r3, [sp, #55]	@ zero_extendqisi2
 1806 005c 412B     		cmp	r3, #65
 1807 005e 14BF     		ite	ne
 1808 0060 0023     		movne	r3, #0
 1809 0062 0123     		moveq	r3, #1
 1810 0064 2374     		strb	r3, [r4, #16]
 428:minmea.c      ****     frame->latitude.value *= latitude_direction;
 1811              		.loc 1 428 0
 1812 0066 6269     		ldr	r2, [r4, #20]
 1813 0068 0C9B     		ldr	r3, [sp, #48]
 1814 006a 03FB02F3 		mul	r3, r3, r2
 1815 006e 6361     		str	r3, [r4, #20]
 429:minmea.c      ****     frame->longitude.value *= longitude_direction;
 1816              		.loc 1 429 0
 1817 0070 E269     		ldr	r2, [r4, #28]
 1818 0072 0B9B     		ldr	r3, [sp, #44]
 1819 0074 03FB02F3 		mul	r3, r3, r2
 1820 0078 E361     		str	r3, [r4, #28]
 430:minmea.c      ****     frame->variation.value *= variation_direction;
 1821              		.loc 1 430 0
 1822 007a 226C     		ldr	r2, [r4, #64]
 1823 007c 0A9B     		ldr	r3, [sp, #40]
 1824 007e 03FB02F3 		mul	r3, r3, r2
 1825 0082 2364     		str	r3, [r4, #64]
 431:minmea.c      **** 
 432:minmea.c      ****     return true;
 1826              		.loc 1 432 0
 1827 0084 00E0     		b	.L184
ARM GAS  C:\Users\armst\AppData\Local\Temp\ccNPhHLt.s 			page 47


 1828              	.L185:
 425:minmea.c      **** 
 1829              		.loc 1 425 0
 1830 0086 0025     		movs	r5, #0
 1831              	.L184:
 433:minmea.c      **** }
 1832              		.loc 1 433 0
 1833 0088 2846     		mov	r0, r5
 1834 008a 11B0     		add	sp, sp, #68
 1835              		.cfi_def_cfa_offset 12
 1836              		@ sp needed
 1837 008c 30BD     		pop	{r4, r5, pc}
 1838              	.LVL206:
 1839              	.L188:
 1840 008e 00BF     		.align	2
 1841              	.L187:
 1842 0090 34000000 		.word	.LC11
 1843 0094 1C000000 		.word	.LC7
 1844              		.cfi_endproc
 1845              	.LFE12:
 1846              		.size	minmea_parse_rmc, .-minmea_parse_rmc
 1847              		.section	.text.minmea_parse_gga,"ax",%progbits
 1848              		.align	2
 1849              		.global	minmea_parse_gga
 1850              		.thumb
 1851              		.thumb_func
 1852              		.type	minmea_parse_gga, %function
 1853              	minmea_parse_gga:
 1854              	.LFB13:
 434:minmea.c      **** 
 435:minmea.c      **** bool minmea_parse_gga(struct minmea_sentence_gga *frame, const char *sentence)
 436:minmea.c      **** {
 1855              		.loc 1 436 0
 1856              		.cfi_startproc
 1857              		@ args = 0, pretend = 0, frame = 16
 1858              		@ frame_needed = 0, uses_anonymous_args = 0
 1859              	.LVL207:
 1860 0000 30B5     		push	{r4, r5, lr}
 1861              		.cfi_def_cfa_offset 12
 1862              		.cfi_offset 4, -12
 1863              		.cfi_offset 5, -8
 1864              		.cfi_offset 14, -4
 1865 0002 91B0     		sub	sp, sp, #68
 1866              		.cfi_def_cfa_offset 80
 1867 0004 0446     		mov	r4, r0
 1868 0006 0846     		mov	r0, r1
 1869              	.LVL208:
 437:minmea.c      ****     // $GPGGA,123519,4807.038,N,01131.000,E,1,08,0.9,545.4,M,46.9,M,,*47
 438:minmea.c      ****     char type[6];
 439:minmea.c      ****     int latitude_direction;
 440:minmea.c      ****     int longitude_direction;
 441:minmea.c      **** 
 442:minmea.c      ****     if (!minmea_scan(sentence, "tTfdfdiiffcfcf_",
 1870              		.loc 1 442 0
 1871 0008 04F14803 		add	r3, r4, #72
 1872 000c 0B93     		str	r3, [sp, #44]
 1873 000e 04F14403 		add	r3, r4, #68
ARM GAS  C:\Users\armst\AppData\Local\Temp\ccNPhHLt.s 			page 48


 1874 0012 0A93     		str	r3, [sp, #40]
 1875 0014 04F13C03 		add	r3, r4, #60
 1876 0018 0993     		str	r3, [sp, #36]
 1877 001a 04F13803 		add	r3, r4, #56
 1878 001e 0893     		str	r3, [sp, #32]
 1879 0020 04F13003 		add	r3, r4, #48
 1880 0024 0793     		str	r3, [sp, #28]
 1881 0026 04F12803 		add	r3, r4, #40
 1882 002a 0693     		str	r3, [sp, #24]
 1883 002c 04F12403 		add	r3, r4, #36
 1884 0030 0593     		str	r3, [sp, #20]
 1885 0032 04F12003 		add	r3, r4, #32
 1886 0036 0493     		str	r3, [sp, #16]
 1887 0038 0CAB     		add	r3, sp, #48
 1888 003a 0393     		str	r3, [sp, #12]
 1889 003c 04F11803 		add	r3, r4, #24
 1890 0040 0293     		str	r3, [sp, #8]
 1891 0042 0DAB     		add	r3, sp, #52
 1892 0044 0193     		str	r3, [sp, #4]
 1893 0046 04F11003 		add	r3, r4, #16
 1894 004a 0093     		str	r3, [sp]
 1895 004c 2346     		mov	r3, r4
 1896 004e 0EAA     		add	r2, sp, #56
 1897 0050 0C49     		ldr	r1, .L193
 1898              	.LVL209:
 1899 0052 FFF7FEFF 		bl	minmea_scan
 1900              	.LVL210:
 1901 0056 0546     		mov	r5, r0
 1902 0058 88B1     		cbz	r0, .L190
 443:minmea.c      ****             type,
 444:minmea.c      ****             &frame->time,
 445:minmea.c      ****             &frame->latitude, &latitude_direction,
 446:minmea.c      ****             &frame->longitude, &longitude_direction,
 447:minmea.c      ****             &frame->fix_quality,
 448:minmea.c      ****             &frame->satellites_tracked,
 449:minmea.c      ****             &frame->hdop,
 450:minmea.c      ****             &frame->altitude, &frame->altitude_units,
 451:minmea.c      ****             &frame->height, &frame->height_units,
 452:minmea.c      ****             &frame->dgps_age))
 453:minmea.c      ****         return false;
 454:minmea.c      ****     if (strcmp(type+2, "GGA"))
 1903              		.loc 1 454 0
 1904 005a 0B49     		ldr	r1, .L193+4
 1905 005c 0DF13A00 		add	r0, sp, #58
 1906 0060 FFF7FEFF 		bl	strcmp
 1907              	.LVL211:
 1908 0064 50B9     		cbnz	r0, .L191
 455:minmea.c      ****         return false;
 456:minmea.c      **** 
 457:minmea.c      ****     frame->latitude.value *= latitude_direction;
 1909              		.loc 1 457 0
 1910 0066 2269     		ldr	r2, [r4, #16]
 1911 0068 0D9B     		ldr	r3, [sp, #52]
 1912 006a 03FB02F3 		mul	r3, r3, r2
 1913 006e 2361     		str	r3, [r4, #16]
 458:minmea.c      ****     frame->longitude.value *= longitude_direction;
 1914              		.loc 1 458 0
ARM GAS  C:\Users\armst\AppData\Local\Temp\ccNPhHLt.s 			page 49


 1915 0070 A269     		ldr	r2, [r4, #24]
 1916 0072 0C9B     		ldr	r3, [sp, #48]
 1917 0074 03FB02F3 		mul	r3, r3, r2
 1918 0078 A361     		str	r3, [r4, #24]
 459:minmea.c      **** 
 460:minmea.c      ****     return true;
 1919              		.loc 1 460 0
 1920 007a 00E0     		b	.L190
 1921              	.L191:
 455:minmea.c      **** 
 1922              		.loc 1 455 0
 1923 007c 0025     		movs	r5, #0
 1924              	.L190:
 461:minmea.c      **** }
 1925              		.loc 1 461 0
 1926 007e 2846     		mov	r0, r5
 1927 0080 11B0     		add	sp, sp, #68
 1928              		.cfi_def_cfa_offset 12
 1929              		@ sp needed
 1930 0082 30BD     		pop	{r4, r5, pc}
 1931              	.LVL212:
 1932              	.L194:
 1933              		.align	2
 1934              	.L193:
 1935 0084 44000000 		.word	.LC12
 1936 0088 08000000 		.word	.LC2
 1937              		.cfi_endproc
 1938              	.LFE13:
 1939              		.size	minmea_parse_gga, .-minmea_parse_gga
 1940              		.section	.text.minmea_parse_gsa,"ax",%progbits
 1941              		.align	2
 1942              		.global	minmea_parse_gsa
 1943              		.thumb
 1944              		.thumb_func
 1945              		.type	minmea_parse_gsa, %function
 1946              	minmea_parse_gsa:
 1947              	.LFB14:
 462:minmea.c      **** 
 463:minmea.c      **** bool minmea_parse_gsa(struct minmea_sentence_gsa *frame, const char *sentence)
 464:minmea.c      **** {
 1948              		.loc 1 464 0
 1949              		.cfi_startproc
 1950              		@ args = 0, pretend = 0, frame = 8
 1951              		@ frame_needed = 0, uses_anonymous_args = 0
 1952              	.LVL213:
 1953 0000 10B5     		push	{r4, lr}
 1954              		.cfi_def_cfa_offset 8
 1955              		.cfi_offset 4, -8
 1956              		.cfi_offset 14, -4
 1957 0002 92B0     		sub	sp, sp, #72
 1958              		.cfi_def_cfa_offset 80
 1959 0004 0346     		mov	r3, r0
 1960 0006 0846     		mov	r0, r1
 1961              	.LVL214:
 465:minmea.c      ****     // $GPGSA,A,3,04,05,,09,12,,,24,,,,,2.5,1.3,2.1*39
 466:minmea.c      ****     char type[6];
 467:minmea.c      **** 
ARM GAS  C:\Users\armst\AppData\Local\Temp\ccNPhHLt.s 			page 50


 468:minmea.c      ****     if (!minmea_scan(sentence, "tciiiiiiiiiiiiifff",
 1962              		.loc 1 468 0
 1963 0008 03F14802 		add	r2, r3, #72
 1964 000c 0F92     		str	r2, [sp, #60]
 1965 000e 03F14002 		add	r2, r3, #64
 1966 0012 0E92     		str	r2, [sp, #56]
 1967 0014 03F13802 		add	r2, r3, #56
 1968 0018 0D92     		str	r2, [sp, #52]
 1969 001a 03F13402 		add	r2, r3, #52
 1970 001e 0C92     		str	r2, [sp, #48]
 1971 0020 03F13002 		add	r2, r3, #48
 1972 0024 0B92     		str	r2, [sp, #44]
 1973 0026 03F12C02 		add	r2, r3, #44
 1974 002a 0A92     		str	r2, [sp, #40]
 1975 002c 03F12802 		add	r2, r3, #40
 1976 0030 0992     		str	r2, [sp, #36]
 1977 0032 03F12402 		add	r2, r3, #36
 1978 0036 0892     		str	r2, [sp, #32]
 1979 0038 03F12002 		add	r2, r3, #32
 1980 003c 0792     		str	r2, [sp, #28]
 1981 003e 03F11C02 		add	r2, r3, #28
 1982 0042 0692     		str	r2, [sp, #24]
 1983 0044 03F11802 		add	r2, r3, #24
 1984 0048 0592     		str	r2, [sp, #20]
 1985 004a 03F11402 		add	r2, r3, #20
 1986 004e 0492     		str	r2, [sp, #16]
 1987 0050 03F11002 		add	r2, r3, #16
 1988 0054 0392     		str	r2, [sp, #12]
 1989 0056 03F10C02 		add	r2, r3, #12
 1990 005a 0292     		str	r2, [sp, #8]
 1991 005c 03F10802 		add	r2, r3, #8
 1992 0060 0192     		str	r2, [sp, #4]
 1993 0062 1A1D     		adds	r2, r3, #4
 1994 0064 0092     		str	r2, [sp]
 1995 0066 10AA     		add	r2, sp, #64
 1996 0068 0749     		ldr	r1, .L198
 1997              	.LVL215:
 1998 006a FFF7FEFF 		bl	minmea_scan
 1999              	.LVL216:
 2000 006e 0446     		mov	r4, r0
 2001 0070 30B1     		cbz	r0, .L196
 469:minmea.c      ****             type,
 470:minmea.c      ****             &frame->mode,
 471:minmea.c      ****             &frame->fix_type,
 472:minmea.c      ****             &frame->sats[0],
 473:minmea.c      ****             &frame->sats[1],
 474:minmea.c      ****             &frame->sats[2],
 475:minmea.c      ****             &frame->sats[3],
 476:minmea.c      ****             &frame->sats[4],
 477:minmea.c      ****             &frame->sats[5],
 478:minmea.c      ****             &frame->sats[6],
 479:minmea.c      ****             &frame->sats[7],
 480:minmea.c      ****             &frame->sats[8],
 481:minmea.c      ****             &frame->sats[9],
 482:minmea.c      ****             &frame->sats[10],
 483:minmea.c      ****             &frame->sats[11],
 484:minmea.c      ****             &frame->pdop,
ARM GAS  C:\Users\armst\AppData\Local\Temp\ccNPhHLt.s 			page 51


 485:minmea.c      ****             &frame->hdop,
 486:minmea.c      ****             &frame->vdop))
 487:minmea.c      ****         return false;
 488:minmea.c      ****     if (strcmp(type+2, "GSA"))
 2002              		.loc 1 488 0
 2003 0072 0649     		ldr	r1, .L198+4
 2004 0074 0DF14200 		add	r0, sp, #66
 2005 0078 FFF7FEFF 		bl	strcmp
 2006              	.LVL217:
 2007 007c 00B1     		cbz	r0, .L196
 489:minmea.c      ****         return false;
 2008              		.loc 1 489 0
 2009 007e 0024     		movs	r4, #0
 2010              	.L196:
 490:minmea.c      **** 
 491:minmea.c      ****     return true;
 492:minmea.c      **** }
 2011              		.loc 1 492 0
 2012 0080 2046     		mov	r0, r4
 2013 0082 12B0     		add	sp, sp, #72
 2014              		.cfi_def_cfa_offset 8
 2015              		@ sp needed
 2016 0084 10BD     		pop	{r4, pc}
 2017              	.L199:
 2018 0086 00BF     		.align	2
 2019              	.L198:
 2020 0088 54000000 		.word	.LC13
 2021 008c 10000000 		.word	.LC4
 2022              		.cfi_endproc
 2023              	.LFE14:
 2024              		.size	minmea_parse_gsa, .-minmea_parse_gsa
 2025              		.section	.text.minmea_parse_gll,"ax",%progbits
 2026              		.align	2
 2027              		.global	minmea_parse_gll
 2028              		.thumb
 2029              		.thumb_func
 2030              		.type	minmea_parse_gll, %function
 2031              	minmea_parse_gll:
 2032              	.LFB15:
 493:minmea.c      **** 
 494:minmea.c      **** bool minmea_parse_gll(struct minmea_sentence_gll *frame, const char *sentence)
 495:minmea.c      **** {
 2033              		.loc 1 495 0
 2034              		.cfi_startproc
 2035              		@ args = 0, pretend = 0, frame = 16
 2036              		@ frame_needed = 0, uses_anonymous_args = 0
 2037              	.LVL218:
 2038 0000 30B5     		push	{r4, r5, lr}
 2039              		.cfi_def_cfa_offset 12
 2040              		.cfi_offset 4, -12
 2041              		.cfi_offset 5, -8
 2042              		.cfi_offset 14, -4
 2043 0002 8BB0     		sub	sp, sp, #44
 2044              		.cfi_def_cfa_offset 56
 2045 0004 0446     		mov	r4, r0
 2046 0006 0846     		mov	r0, r1
 2047              	.LVL219:
ARM GAS  C:\Users\armst\AppData\Local\Temp\ccNPhHLt.s 			page 52


 496:minmea.c      ****     // $GPGLL,3723.2475,N,12158.3416,W,161229.487,A,A*41$;
 497:minmea.c      ****     char type[6];
 498:minmea.c      ****     int latitude_direction;
 499:minmea.c      ****     int longitude_direction;
 500:minmea.c      **** 
 501:minmea.c      ****     if (!minmea_scan(sentence, "tfdfdTc;c",
 2048              		.loc 1 501 0
 2049 0008 04F12103 		add	r3, r4, #33
 2050 000c 0593     		str	r3, [sp, #20]
 2051 000e 04F12003 		add	r3, r4, #32
 2052 0012 0493     		str	r3, [sp, #16]
 2053 0014 04F11003 		add	r3, r4, #16
 2054 0018 0393     		str	r3, [sp, #12]
 2055 001a 06AB     		add	r3, sp, #24
 2056 001c 0293     		str	r3, [sp, #8]
 2057 001e 04F10803 		add	r3, r4, #8
 2058 0022 0193     		str	r3, [sp, #4]
 2059 0024 07AB     		add	r3, sp, #28
 2060 0026 0093     		str	r3, [sp]
 2061 0028 2346     		mov	r3, r4
 2062 002a 08AA     		add	r2, sp, #32
 2063 002c 0C49     		ldr	r1, .L204
 2064              	.LVL220:
 2065 002e FFF7FEFF 		bl	minmea_scan
 2066              	.LVL221:
 2067 0032 0546     		mov	r5, r0
 2068 0034 88B1     		cbz	r0, .L201
 502:minmea.c      ****             type,
 503:minmea.c      ****             &frame->latitude, &latitude_direction,
 504:minmea.c      ****             &frame->longitude, &longitude_direction,
 505:minmea.c      ****             &frame->time,
 506:minmea.c      ****             &frame->status,
 507:minmea.c      ****             &frame->mode))
 508:minmea.c      ****         return false;
 509:minmea.c      ****     if (strcmp(type+2, "GLL"))
 2069              		.loc 1 509 0
 2070 0036 0B49     		ldr	r1, .L204+4
 2071 0038 0DF12200 		add	r0, sp, #34
 2072 003c FFF7FEFF 		bl	strcmp
 2073              	.LVL222:
 2074 0040 50B9     		cbnz	r0, .L202
 510:minmea.c      ****         return false;
 511:minmea.c      **** 
 512:minmea.c      ****     frame->latitude.value *= latitude_direction;
 2075              		.loc 1 512 0
 2076 0042 2268     		ldr	r2, [r4]
 2077 0044 079B     		ldr	r3, [sp, #28]
 2078 0046 03FB02F3 		mul	r3, r3, r2
 2079 004a 2360     		str	r3, [r4]
 513:minmea.c      ****     frame->longitude.value *= longitude_direction;
 2080              		.loc 1 513 0
 2081 004c A268     		ldr	r2, [r4, #8]
 2082 004e 069B     		ldr	r3, [sp, #24]
 2083 0050 03FB02F3 		mul	r3, r3, r2
 2084 0054 A360     		str	r3, [r4, #8]
 514:minmea.c      **** 
 515:minmea.c      ****     return true;
ARM GAS  C:\Users\armst\AppData\Local\Temp\ccNPhHLt.s 			page 53


 2085              		.loc 1 515 0
 2086 0056 00E0     		b	.L201
 2087              	.L202:
 510:minmea.c      **** 
 2088              		.loc 1 510 0
 2089 0058 0025     		movs	r5, #0
 2090              	.L201:
 516:minmea.c      **** }
 2091              		.loc 1 516 0
 2092 005a 2846     		mov	r0, r5
 2093 005c 0BB0     		add	sp, sp, #44
 2094              		.cfi_def_cfa_offset 12
 2095              		@ sp needed
 2096 005e 30BD     		pop	{r4, r5, pc}
 2097              	.LVL223:
 2098              	.L205:
 2099              		.align	2
 2100              	.L204:
 2101 0060 68000000 		.word	.LC14
 2102 0064 0C000000 		.word	.LC3
 2103              		.cfi_endproc
 2104              	.LFE15:
 2105              		.size	minmea_parse_gll, .-minmea_parse_gll
 2106              		.section	.text.minmea_parse_gst,"ax",%progbits
 2107              		.align	2
 2108              		.global	minmea_parse_gst
 2109              		.thumb
 2110              		.thumb_func
 2111              		.type	minmea_parse_gst, %function
 2112              	minmea_parse_gst:
 2113              	.LFB16:
 517:minmea.c      **** 
 518:minmea.c      **** bool minmea_parse_gst(struct minmea_sentence_gst *frame, const char *sentence)
 519:minmea.c      **** {
 2114              		.loc 1 519 0
 2115              		.cfi_startproc
 2116              		@ args = 0, pretend = 0, frame = 8
 2117              		@ frame_needed = 0, uses_anonymous_args = 0
 2118              	.LVL224:
 2119 0000 10B5     		push	{r4, lr}
 2120              		.cfi_def_cfa_offset 8
 2121              		.cfi_offset 4, -8
 2122              		.cfi_offset 14, -4
 2123 0002 8AB0     		sub	sp, sp, #40
 2124              		.cfi_def_cfa_offset 48
 2125 0004 0346     		mov	r3, r0
 2126 0006 0846     		mov	r0, r1
 2127              	.LVL225:
 520:minmea.c      ****     // $GPGST,024603.00,3.2,6.6,4.7,47.3,5.8,5.6,22.0*58
 521:minmea.c      ****     char type[6];
 522:minmea.c      **** 
 523:minmea.c      ****     if (!minmea_scan(sentence, "tTfffffff",
 2128              		.loc 1 523 0
 2129 0008 03F14002 		add	r2, r3, #64
 2130 000c 0692     		str	r2, [sp, #24]
 2131 000e 03F13802 		add	r2, r3, #56
 2132 0012 0592     		str	r2, [sp, #20]
ARM GAS  C:\Users\armst\AppData\Local\Temp\ccNPhHLt.s 			page 54


 2133 0014 03F13002 		add	r2, r3, #48
 2134 0018 0492     		str	r2, [sp, #16]
 2135 001a 03F12802 		add	r2, r3, #40
 2136 001e 0392     		str	r2, [sp, #12]
 2137 0020 03F12002 		add	r2, r3, #32
 2138 0024 0292     		str	r2, [sp, #8]
 2139 0026 03F11802 		add	r2, r3, #24
 2140 002a 0192     		str	r2, [sp, #4]
 2141 002c 03F11002 		add	r2, r3, #16
 2142 0030 0092     		str	r2, [sp]
 2143 0032 08AA     		add	r2, sp, #32
 2144 0034 0749     		ldr	r1, .L209
 2145              	.LVL226:
 2146 0036 FFF7FEFF 		bl	minmea_scan
 2147              	.LVL227:
 2148 003a 0446     		mov	r4, r0
 2149 003c 30B1     		cbz	r0, .L207
 524:minmea.c      ****             type,
 525:minmea.c      ****             &frame->time,
 526:minmea.c      ****             &frame->rms_deviation,
 527:minmea.c      ****             &frame->semi_major_deviation,
 528:minmea.c      ****             &frame->semi_minor_deviation,
 529:minmea.c      ****             &frame->semi_major_orientation,
 530:minmea.c      ****             &frame->latitude_error_deviation,
 531:minmea.c      ****             &frame->longitude_error_deviation,
 532:minmea.c      ****             &frame->altitude_error_deviation))
 533:minmea.c      ****         return false;
 534:minmea.c      ****     if (strcmp(type+2, "GST"))
 2150              		.loc 1 534 0
 2151 003e 0649     		ldr	r1, .L209+4
 2152 0040 0DF12200 		add	r0, sp, #34
 2153 0044 FFF7FEFF 		bl	strcmp
 2154              	.LVL228:
 2155 0048 00B1     		cbz	r0, .L207
 535:minmea.c      ****         return false;
 2156              		.loc 1 535 0
 2157 004a 0024     		movs	r4, #0
 2158              	.L207:
 536:minmea.c      **** 
 537:minmea.c      ****     return true;
 538:minmea.c      **** }
 2159              		.loc 1 538 0
 2160 004c 2046     		mov	r0, r4
 2161 004e 0AB0     		add	sp, sp, #40
 2162              		.cfi_def_cfa_offset 8
 2163              		@ sp needed
 2164 0050 10BD     		pop	{r4, pc}
 2165              	.L210:
 2166 0052 00BF     		.align	2
 2167              	.L209:
 2168 0054 74000000 		.word	.LC15
 2169 0058 14000000 		.word	.LC5
 2170              		.cfi_endproc
 2171              	.LFE16:
 2172              		.size	minmea_parse_gst, .-minmea_parse_gst
 2173              		.section	.text.minmea_parse_gsv,"ax",%progbits
 2174              		.align	2
ARM GAS  C:\Users\armst\AppData\Local\Temp\ccNPhHLt.s 			page 55


 2175              		.global	minmea_parse_gsv
 2176              		.thumb
 2177              		.thumb_func
 2178              		.type	minmea_parse_gsv, %function
 2179              	minmea_parse_gsv:
 2180              	.LFB17:
 539:minmea.c      **** 
 540:minmea.c      **** bool minmea_parse_gsv(struct minmea_sentence_gsv *frame, const char *sentence)
 541:minmea.c      **** {
 2181              		.loc 1 541 0
 2182              		.cfi_startproc
 2183              		@ args = 0, pretend = 0, frame = 8
 2184              		@ frame_needed = 0, uses_anonymous_args = 0
 2185              	.LVL229:
 2186 0000 10B5     		push	{r4, lr}
 2187              		.cfi_def_cfa_offset 8
 2188              		.cfi_offset 4, -8
 2189              		.cfi_offset 14, -4
 2190 0002 94B0     		sub	sp, sp, #80
 2191              		.cfi_def_cfa_offset 88
 2192 0004 0346     		mov	r3, r0
 2193 0006 0846     		mov	r0, r1
 2194              	.LVL230:
 542:minmea.c      ****     // $GPGSV,3,1,11,03,03,111,00,04,15,270,00,06,01,010,00,13,06,292,00*74
 543:minmea.c      ****     // $GPGSV,3,3,11,22,42,067,42,24,14,311,43,27,05,244,00,,,,*4D
 544:minmea.c      ****     // $GPGSV,4,2,11,08,51,203,30,09,45,215,28*75
 545:minmea.c      ****     // $GPGSV,4,4,13,39,31,170,27*40
 546:minmea.c      ****     // $GPGSV,4,4,13*7B
 547:minmea.c      ****     char type[6];
 548:minmea.c      **** 
 549:minmea.c      ****     if (!minmea_scan(sentence, "tiii;iiiiiiiiiiiiiiii",
 2195              		.loc 1 549 0
 2196 0008 03F14802 		add	r2, r3, #72
 2197 000c 1192     		str	r2, [sp, #68]
 2198 000e 03F14402 		add	r2, r3, #68
 2199 0012 1092     		str	r2, [sp, #64]
 2200 0014 03F14002 		add	r2, r3, #64
 2201 0018 0F92     		str	r2, [sp, #60]
 2202 001a 03F13C02 		add	r2, r3, #60
 2203 001e 0E92     		str	r2, [sp, #56]
 2204 0020 03F13802 		add	r2, r3, #56
 2205 0024 0D92     		str	r2, [sp, #52]
 2206 0026 03F13402 		add	r2, r3, #52
 2207 002a 0C92     		str	r2, [sp, #48]
 2208 002c 03F13002 		add	r2, r3, #48
 2209 0030 0B92     		str	r2, [sp, #44]
 2210 0032 03F12C02 		add	r2, r3, #44
 2211 0036 0A92     		str	r2, [sp, #40]
 2212 0038 03F12802 		add	r2, r3, #40
 2213 003c 0992     		str	r2, [sp, #36]
 2214 003e 03F12402 		add	r2, r3, #36
 2215 0042 0892     		str	r2, [sp, #32]
 2216 0044 03F12002 		add	r2, r3, #32
 2217 0048 0792     		str	r2, [sp, #28]
 2218 004a 03F11C02 		add	r2, r3, #28
 2219 004e 0692     		str	r2, [sp, #24]
 2220 0050 03F11802 		add	r2, r3, #24
ARM GAS  C:\Users\armst\AppData\Local\Temp\ccNPhHLt.s 			page 56


 2221 0054 0592     		str	r2, [sp, #20]
 2222 0056 03F11402 		add	r2, r3, #20
 2223 005a 0492     		str	r2, [sp, #16]
 2224 005c 03F11002 		add	r2, r3, #16
 2225 0060 0392     		str	r2, [sp, #12]
 2226 0062 03F10C02 		add	r2, r3, #12
 2227 0066 0292     		str	r2, [sp, #8]
 2228 0068 03F10802 		add	r2, r3, #8
 2229 006c 0192     		str	r2, [sp, #4]
 2230 006e 1A1D     		adds	r2, r3, #4
 2231 0070 0092     		str	r2, [sp]
 2232 0072 12AA     		add	r2, sp, #72
 2233 0074 0749     		ldr	r1, .L214
 2234              	.LVL231:
 2235 0076 FFF7FEFF 		bl	minmea_scan
 2236              	.LVL232:
 2237 007a 0446     		mov	r4, r0
 2238 007c 30B1     		cbz	r0, .L212
 550:minmea.c      ****             type,
 551:minmea.c      ****             &frame->total_msgs,
 552:minmea.c      ****             &frame->msg_nr,
 553:minmea.c      ****             &frame->total_sats,
 554:minmea.c      ****             &frame->sats[0].nr,
 555:minmea.c      ****             &frame->sats[0].elevation,
 556:minmea.c      ****             &frame->sats[0].azimuth,
 557:minmea.c      ****             &frame->sats[0].snr,
 558:minmea.c      ****             &frame->sats[1].nr,
 559:minmea.c      ****             &frame->sats[1].elevation,
 560:minmea.c      ****             &frame->sats[1].azimuth,
 561:minmea.c      ****             &frame->sats[1].snr,
 562:minmea.c      ****             &frame->sats[2].nr,
 563:minmea.c      ****             &frame->sats[2].elevation,
 564:minmea.c      ****             &frame->sats[2].azimuth,
 565:minmea.c      ****             &frame->sats[2].snr,
 566:minmea.c      ****             &frame->sats[3].nr,
 567:minmea.c      ****             &frame->sats[3].elevation,
 568:minmea.c      ****             &frame->sats[3].azimuth,
 569:minmea.c      ****             &frame->sats[3].snr
 570:minmea.c      ****             )) {
 571:minmea.c      ****         return false;
 572:minmea.c      ****     }
 573:minmea.c      ****     if (strcmp(type+2, "GSV"))
 2239              		.loc 1 573 0
 2240 007e 0649     		ldr	r1, .L214+4
 2241 0080 0DF14A00 		add	r0, sp, #74
 2242 0084 FFF7FEFF 		bl	strcmp
 2243              	.LVL233:
 2244 0088 00B1     		cbz	r0, .L212
 574:minmea.c      ****         return false;
 2245              		.loc 1 574 0
 2246 008a 0024     		movs	r4, #0
 2247              	.L212:
 575:minmea.c      **** 
 576:minmea.c      ****     return true;
 577:minmea.c      **** }
 2248              		.loc 1 577 0
 2249 008c 2046     		mov	r0, r4
ARM GAS  C:\Users\armst\AppData\Local\Temp\ccNPhHLt.s 			page 57


 2250 008e 14B0     		add	sp, sp, #80
 2251              		.cfi_def_cfa_offset 8
 2252              		@ sp needed
 2253 0090 10BD     		pop	{r4, pc}
 2254              	.L215:
 2255 0092 00BF     		.align	2
 2256              	.L214:
 2257 0094 80000000 		.word	.LC16
 2258 0098 18000000 		.word	.LC6
 2259              		.cfi_endproc
 2260              	.LFE17:
 2261              		.size	minmea_parse_gsv, .-minmea_parse_gsv
 2262              		.section	.text.minmea_parse_vtg,"ax",%progbits
 2263              		.align	2
 2264              		.global	minmea_parse_vtg
 2265              		.thumb
 2266              		.thumb_func
 2267              		.type	minmea_parse_vtg, %function
 2268              	minmea_parse_vtg:
 2269              	.LFB18:
 578:minmea.c      **** 
 579:minmea.c      **** bool minmea_parse_vtg(struct minmea_sentence_vtg *frame, const char *sentence)
 580:minmea.c      **** {
 2270              		.loc 1 580 0
 2271              		.cfi_startproc
 2272              		@ args = 0, pretend = 0, frame = 16
 2273              		@ frame_needed = 0, uses_anonymous_args = 0
 2274              	.LVL234:
 2275 0000 30B5     		push	{r4, r5, lr}
 2276              		.cfi_def_cfa_offset 12
 2277              		.cfi_offset 4, -12
 2278              		.cfi_offset 5, -8
 2279              		.cfi_offset 14, -4
 2280 0002 8DB0     		sub	sp, sp, #52
 2281              		.cfi_def_cfa_offset 64
 2282 0004 0446     		mov	r4, r0
 2283 0006 0846     		mov	r0, r1
 2284              	.LVL235:
 581:minmea.c      ****     // $GPVTG,054.7,T,034.4,M,005.5,N,010.2,K*48
 582:minmea.c      ****     // $GPVTG,156.1,T,140.9,M,0.0,N,0.0,K*41
 583:minmea.c      ****     // $GPVTG,096.5,T,083.5,M,0.0,N,0.0,K,D*22
 584:minmea.c      ****     // $GPVTG,188.36,T,,M,0.820,N,1.519,K,A*3F
 585:minmea.c      ****     char type[6];
 586:minmea.c      ****     char c_true, c_magnetic, c_knots, c_kph, c_faa_mode;
 587:minmea.c      **** 
 588:minmea.c      ****     if (!minmea_scan(sentence, "t;fcfcfcfcc",
 2285              		.loc 1 588 0
 2286 0008 0DF12303 		add	r3, sp, #35
 2287 000c 0793     		str	r3, [sp, #28]
 2288 000e 09AB     		add	r3, sp, #36
 2289 0010 0693     		str	r3, [sp, #24]
 2290 0012 04F11803 		add	r3, r4, #24
 2291 0016 0593     		str	r3, [sp, #20]
 2292 0018 0DF12503 		add	r3, sp, #37
 2293 001c 0493     		str	r3, [sp, #16]
 2294 001e 04F11003 		add	r3, r4, #16
 2295 0022 0393     		str	r3, [sp, #12]
ARM GAS  C:\Users\armst\AppData\Local\Temp\ccNPhHLt.s 			page 58


 2296 0024 0DF12603 		add	r3, sp, #38
 2297 0028 0293     		str	r3, [sp, #8]
 2298 002a 04F10803 		add	r3, r4, #8
 2299 002e 0193     		str	r3, [sp, #4]
 2300 0030 0DF12703 		add	r3, sp, #39
 2301 0034 0093     		str	r3, [sp]
 2302 0036 2346     		mov	r3, r4
 2303 0038 0AAA     		add	r2, sp, #40
 2304 003a 1649     		ldr	r1, .L224
 2305              	.LVL236:
 2306 003c FFF7FEFF 		bl	minmea_scan
 2307              	.LVL237:
 2308 0040 0546     		mov	r5, r0
 2309 0042 18B3     		cbz	r0, .L217
 589:minmea.c      ****             type,
 590:minmea.c      ****             &frame->true_track_degrees,
 591:minmea.c      ****             &c_true,
 592:minmea.c      ****             &frame->magnetic_track_degrees,
 593:minmea.c      ****             &c_magnetic,
 594:minmea.c      ****             &frame->speed_knots,
 595:minmea.c      ****             &c_knots,
 596:minmea.c      ****             &frame->speed_kph,
 597:minmea.c      ****             &c_kph,
 598:minmea.c      ****             &c_faa_mode))
 599:minmea.c      ****         return false;
 600:minmea.c      ****     if (strcmp(type+2, "VTG"))
 2310              		.loc 1 600 0
 2311 0044 1449     		ldr	r1, .L224+4
 2312 0046 0DF12A00 		add	r0, sp, #42
 2313 004a FFF7FEFF 		bl	strcmp
 2314              	.LVL238:
 2315 004e E0B9     		cbnz	r0, .L222
 601:minmea.c      ****         return false;
 602:minmea.c      ****     // values are only valid with the accompanying characters
 603:minmea.c      ****     if (c_true != 'T')
 2316              		.loc 1 603 0
 2317 0050 9DF82730 		ldrb	r3, [sp, #39]	@ zero_extendqisi2
 2318 0054 542B     		cmp	r3, #84
 2319 0056 01D0     		beq	.L218
 604:minmea.c      ****         frame->true_track_degrees.scale = 0;
 2320              		.loc 1 604 0
 2321 0058 0023     		movs	r3, #0
 2322 005a 6360     		str	r3, [r4, #4]
 2323              	.L218:
 605:minmea.c      ****     if (c_magnetic != 'M')
 2324              		.loc 1 605 0
 2325 005c 9DF82630 		ldrb	r3, [sp, #38]	@ zero_extendqisi2
 2326 0060 4D2B     		cmp	r3, #77
 2327 0062 01D0     		beq	.L219
 606:minmea.c      ****         frame->magnetic_track_degrees.scale = 0;
 2328              		.loc 1 606 0
 2329 0064 0023     		movs	r3, #0
 2330 0066 E360     		str	r3, [r4, #12]
 2331              	.L219:
 607:minmea.c      ****     if (c_knots != 'N')
 2332              		.loc 1 607 0
 2333 0068 9DF82530 		ldrb	r3, [sp, #37]	@ zero_extendqisi2
ARM GAS  C:\Users\armst\AppData\Local\Temp\ccNPhHLt.s 			page 59


 2334 006c 4E2B     		cmp	r3, #78
 2335 006e 01D0     		beq	.L220
 608:minmea.c      ****         frame->speed_knots.scale = 0;
 2336              		.loc 1 608 0
 2337 0070 0023     		movs	r3, #0
 2338 0072 6361     		str	r3, [r4, #20]
 2339              	.L220:
 609:minmea.c      ****     if (c_kph != 'K')
 2340              		.loc 1 609 0
 2341 0074 9DF82430 		ldrb	r3, [sp, #36]	@ zero_extendqisi2
 2342 0078 4B2B     		cmp	r3, #75
 2343 007a 01D0     		beq	.L221
 610:minmea.c      ****         frame->speed_kph.scale = 0;
 2344              		.loc 1 610 0
 2345 007c 0023     		movs	r3, #0
 2346 007e E361     		str	r3, [r4, #28]
 2347              	.L221:
 611:minmea.c      ****     frame->faa_mode = (enum minmea_faa_mode)c_faa_mode;
 2348              		.loc 1 611 0
 2349 0080 9DF82330 		ldrb	r3, [sp, #35]	@ zero_extendqisi2
 2350 0084 84F82030 		strb	r3, [r4, #32]
 612:minmea.c      **** 
 613:minmea.c      ****     return true;
 2351              		.loc 1 613 0
 2352 0088 00E0     		b	.L217
 2353              	.L222:
 601:minmea.c      ****     // values are only valid with the accompanying characters
 2354              		.loc 1 601 0
 2355 008a 0025     		movs	r5, #0
 2356              	.L217:
 614:minmea.c      **** }
 2357              		.loc 1 614 0
 2358 008c 2846     		mov	r0, r5
 2359 008e 0DB0     		add	sp, sp, #52
 2360              		.cfi_def_cfa_offset 12
 2361              		@ sp needed
 2362 0090 30BD     		pop	{r4, r5, pc}
 2363              	.LVL239:
 2364              	.L225:
 2365 0092 00BF     		.align	2
 2366              	.L224:
 2367 0094 98000000 		.word	.LC17
 2368 0098 20000000 		.word	.LC8
 2369              		.cfi_endproc
 2370              	.LFE18:
 2371              		.size	minmea_parse_vtg, .-minmea_parse_vtg
 2372              		.section	.text.minmea_parse_zda,"ax",%progbits
 2373              		.align	2
 2374              		.global	minmea_parse_zda
 2375              		.thumb
 2376              		.thumb_func
 2377              		.type	minmea_parse_zda, %function
 2378              	minmea_parse_zda:
 2379              	.LFB19:
 615:minmea.c      **** 
 616:minmea.c      **** bool minmea_parse_zda(struct minmea_sentence_zda *frame, const char *sentence)
 617:minmea.c      **** {
ARM GAS  C:\Users\armst\AppData\Local\Temp\ccNPhHLt.s 			page 60


 2380              		.loc 1 617 0
 2381              		.cfi_startproc
 2382              		@ args = 0, pretend = 0, frame = 8
 2383              		@ frame_needed = 0, uses_anonymous_args = 0
 2384              	.LVL240:
 2385 0000 30B5     		push	{r4, r5, lr}
 2386              		.cfi_def_cfa_offset 12
 2387              		.cfi_offset 4, -12
 2388              		.cfi_offset 5, -8
 2389              		.cfi_offset 14, -4
 2390 0002 89B0     		sub	sp, sp, #36
 2391              		.cfi_def_cfa_offset 48
 2392 0004 0446     		mov	r4, r0
 2393 0006 0846     		mov	r0, r1
 2394              	.LVL241:
 618:minmea.c      ****   // $GPZDA,201530.00,04,07,2002,00,00*60
 619:minmea.c      ****   char type[6];
 620:minmea.c      **** 
 621:minmea.c      ****   if(!minmea_scan(sentence, "tTiiiii",
 2395              		.loc 1 621 0
 2396 0008 04F12003 		add	r3, r4, #32
 2397 000c 0493     		str	r3, [sp, #16]
 2398 000e 04F11C03 		add	r3, r4, #28
 2399 0012 0393     		str	r3, [sp, #12]
 2400 0014 04F11803 		add	r3, r4, #24
 2401 0018 0293     		str	r3, [sp, #8]
 2402 001a 04F11403 		add	r3, r4, #20
 2403 001e 0193     		str	r3, [sp, #4]
 2404 0020 04F11003 		add	r3, r4, #16
 2405 0024 0093     		str	r3, [sp]
 2406 0026 2346     		mov	r3, r4
 2407 0028 06AA     		add	r2, sp, #24
 2408 002a 1049     		ldr	r1, .L232
 2409              	.LVL242:
 2410 002c FFF7FEFF 		bl	minmea_scan
 2411              	.LVL243:
 2412 0030 0546     		mov	r5, r0
 2413 0032 B8B1     		cbz	r0, .L227
 622:minmea.c      ****           type,
 623:minmea.c      ****           &frame->time,
 624:minmea.c      ****           &frame->date.day,
 625:minmea.c      ****           &frame->date.month,
 626:minmea.c      ****           &frame->date.year,
 627:minmea.c      ****           &frame->hour_offset,
 628:minmea.c      ****           &frame->minute_offset))
 629:minmea.c      ****       return false;
 630:minmea.c      ****   if (strcmp(type+2, "ZDA"))
 2414              		.loc 1 630 0
 2415 0034 0E49     		ldr	r1, .L232+4
 2416 0036 0DF11A00 		add	r0, sp, #26
 2417 003a FFF7FEFF 		bl	strcmp
 2418              	.LVL244:
 2419 003e 60B9     		cbnz	r0, .L228
 631:minmea.c      ****       return false;
 632:minmea.c      **** 
 633:minmea.c      ****   // check offsets
 634:minmea.c      ****   if (abs(frame->hour_offset) > 13 ||
ARM GAS  C:\Users\armst\AppData\Local\Temp\ccNPhHLt.s 			page 61


 2420              		.loc 1 634 0
 2421 0040 E369     		ldr	r3, [r4, #28]
 2422 0042 002B     		cmp	r3, #0
 2423 0044 B8BF     		it	lt
 2424 0046 5B42     		rsblt	r3, r3, #0
 2425 0048 0D2B     		cmp	r3, #13
 2426 004a 08DC     		bgt	.L229
 635:minmea.c      ****       frame->minute_offset > 59 ||
 2427              		.loc 1 635 0 discriminator 1
 2428 004c 236A     		ldr	r3, [r4, #32]
 634:minmea.c      ****       frame->minute_offset > 59 ||
 2429              		.loc 1 634 0 discriminator 1
 2430 004e 3B2B     		cmp	r3, #59
 2431 0050 07DC     		bgt	.L230
 2432              		.loc 1 635 0
 2433 0052 002B     		cmp	r3, #0
 2434 0054 06DA     		bge	.L227
 636:minmea.c      ****       frame->minute_offset < 0)
 637:minmea.c      ****       return false;
 2435              		.loc 1 637 0
 2436 0056 0025     		movs	r5, #0
 2437 0058 04E0     		b	.L227
 2438              	.L228:
 631:minmea.c      **** 
 2439              		.loc 1 631 0
 2440 005a 0025     		movs	r5, #0
 2441 005c 02E0     		b	.L227
 2442              	.L229:
 2443              		.loc 1 637 0
 2444 005e 0025     		movs	r5, #0
 2445 0060 00E0     		b	.L227
 2446              	.L230:
 2447 0062 0025     		movs	r5, #0
 2448              	.L227:
 638:minmea.c      **** 
 639:minmea.c      ****   return true;
 640:minmea.c      **** }
 2449              		.loc 1 640 0
 2450 0064 2846     		mov	r0, r5
 2451 0066 09B0     		add	sp, sp, #36
 2452              		.cfi_def_cfa_offset 12
 2453              		@ sp needed
 2454 0068 30BD     		pop	{r4, r5, pc}
 2455              	.LVL245:
 2456              	.L233:
 2457 006a 00BF     		.align	2
 2458              	.L232:
 2459 006c A4000000 		.word	.LC18
 2460 0070 24000000 		.word	.LC9
 2461              		.cfi_endproc
 2462              	.LFE19:
 2463              		.size	minmea_parse_zda, .-minmea_parse_zda
 2464              		.section	.text.minmea_getdatetime,"ax",%progbits
 2465              		.align	2
 2466              		.global	minmea_getdatetime
 2467              		.thumb
 2468              		.thumb_func
ARM GAS  C:\Users\armst\AppData\Local\Temp\ccNPhHLt.s 			page 62


 2469              		.type	minmea_getdatetime, %function
 2470              	minmea_getdatetime:
 2471              	.LFB20:
 641:minmea.c      **** 
 642:minmea.c      **** int minmea_getdatetime(struct tm *tm, const struct minmea_date *date, const struct minmea_time *tim
 643:minmea.c      **** {
 2472              		.loc 1 643 0
 2473              		.cfi_startproc
 2474              		@ args = 0, pretend = 0, frame = 0
 2475              		@ frame_needed = 0, uses_anonymous_args = 0
 2476              	.LVL246:
 644:minmea.c      ****     if (date->year == -1 || time_->hours == -1)
 2477              		.loc 1 644 0
 2478 0000 8B68     		ldr	r3, [r1, #8]
 2479 0002 B3F1FF3F 		cmp	r3, #-1
 2480 0006 28D0     		beq	.L240
 2481              		.loc 1 644 0 is_stmt 0 discriminator 1
 2482 0008 1368     		ldr	r3, [r2]
 2483 000a B3F1FF3F 		cmp	r3, #-1
 2484 000e 24D0     		beq	.L240
 643:minmea.c      ****     if (date->year == -1 || time_->hours == -1)
 2485              		.loc 1 643 0 is_stmt 1
 2486 0010 70B5     		push	{r4, r5, r6, lr}
 2487              		.cfi_def_cfa_offset 16
 2488              		.cfi_offset 4, -16
 2489              		.cfi_offset 5, -12
 2490              		.cfi_offset 6, -8
 2491              		.cfi_offset 14, -4
 2492 0012 1646     		mov	r6, r2
 2493 0014 0D46     		mov	r5, r1
 2494 0016 0446     		mov	r4, r0
 645:minmea.c      ****         return -1;
 646:minmea.c      **** 
 647:minmea.c      ****     memset(tm, 0, sizeof(*tm));
 2495              		.loc 1 647 0
 2496 0018 2422     		movs	r2, #36
 2497              	.LVL247:
 2498 001a 0021     		movs	r1, #0
 2499              	.LVL248:
 2500 001c FFF7FEFF 		bl	memset
 2501              	.LVL249:
 648:minmea.c      ****     if (date->year < 80) {
 2502              		.loc 1 648 0
 2503 0020 AB68     		ldr	r3, [r5, #8]
 2504 0022 4F2B     		cmp	r3, #79
 2505 0024 02DC     		bgt	.L236
 649:minmea.c      ****         tm->tm_year = 2000 + date->year - 1900; // 2000-2079
 2506              		.loc 1 649 0
 2507 0026 6433     		adds	r3, r3, #100
 2508 0028 6361     		str	r3, [r4, #20]
 2509 002a 08E0     		b	.L237
 2510              	.L236:
 650:minmea.c      ****     } else if (date->year >= 1900) {
 2511              		.loc 1 650 0
 2512 002c 40F26B72 		movw	r2, #1899
 2513 0030 9342     		cmp	r3, r2
 2514 0032 03DD     		ble	.L238
ARM GAS  C:\Users\armst\AppData\Local\Temp\ccNPhHLt.s 			page 63


 651:minmea.c      ****         tm->tm_year = date->year - 1900;        // 4 digit year, use directly
 2515              		.loc 1 651 0
 2516 0034 A3F26C73 		subw	r3, r3, #1900
 2517 0038 6361     		str	r3, [r4, #20]
 2518 003a 00E0     		b	.L237
 2519              	.L238:
 652:minmea.c      ****     } else {
 653:minmea.c      ****         tm->tm_year = date->year;               // 1980-1999
 2520              		.loc 1 653 0
 2521 003c 6361     		str	r3, [r4, #20]
 2522              	.L237:
 654:minmea.c      ****     }
 655:minmea.c      ****     tm->tm_mon = date->month - 1;
 2523              		.loc 1 655 0
 2524 003e 6B68     		ldr	r3, [r5, #4]
 2525 0040 013B     		subs	r3, r3, #1
 2526 0042 2361     		str	r3, [r4, #16]
 656:minmea.c      ****     tm->tm_mday = date->day;
 2527              		.loc 1 656 0
 2528 0044 2B68     		ldr	r3, [r5]
 2529 0046 E360     		str	r3, [r4, #12]
 657:minmea.c      ****     tm->tm_hour = time_->hours;
 2530              		.loc 1 657 0
 2531 0048 3368     		ldr	r3, [r6]
 2532 004a A360     		str	r3, [r4, #8]
 658:minmea.c      ****     tm->tm_min = time_->minutes;
 2533              		.loc 1 658 0
 2534 004c 7368     		ldr	r3, [r6, #4]
 2535 004e 6360     		str	r3, [r4, #4]
 659:minmea.c      ****     tm->tm_sec = time_->seconds;
 2536              		.loc 1 659 0
 2537 0050 B368     		ldr	r3, [r6, #8]
 2538 0052 2360     		str	r3, [r4]
 660:minmea.c      **** 
 661:minmea.c      ****     return 0;
 2539              		.loc 1 661 0
 2540 0054 0023     		movs	r3, #0
 662:minmea.c      **** }
 2541              		.loc 1 662 0
 2542 0056 1846     		mov	r0, r3
 2543 0058 70BD     		pop	{r4, r5, r6, pc}
 2544              	.LVL250:
 2545              	.L240:
 2546              		.cfi_def_cfa_offset 0
 2547              		.cfi_restore 4
 2548              		.cfi_restore 5
 2549              		.cfi_restore 6
 2550              		.cfi_restore 14
 2551 005a 1846     		mov	r0, r3
 2552              	.LVL251:
 2553 005c 7047     		bx	lr
 2554              		.cfi_endproc
 2555              	.LFE20:
 2556              		.size	minmea_getdatetime, .-minmea_getdatetime
 2557 005e 00BF     		.section	.rodata.str1.4,"aMS",%progbits,1
 2558              		.align	2
 2559              	.LC0:
ARM GAS  C:\Users\armst\AppData\Local\Temp\ccNPhHLt.s 			page 64


 2560 0000 7400     		.ascii	"t\000"
 2561 0002 0000     		.space	2
 2562              	.LC1:
 2563 0004 47425300 		.ascii	"GBS\000"
 2564              	.LC2:
 2565 0008 47474100 		.ascii	"GGA\000"
 2566              	.LC3:
 2567 000c 474C4C00 		.ascii	"GLL\000"
 2568              	.LC4:
 2569 0010 47534100 		.ascii	"GSA\000"
 2570              	.LC5:
 2571 0014 47535400 		.ascii	"GST\000"
 2572              	.LC6:
 2573 0018 47535600 		.ascii	"GSV\000"
 2574              	.LC7:
 2575 001c 524D4300 		.ascii	"RMC\000"
 2576              	.LC8:
 2577 0020 56544700 		.ascii	"VTG\000"
 2578              	.LC9:
 2579 0024 5A444100 		.ascii	"ZDA\000"
 2580              	.LC10:
 2581 0028 74546666 		.ascii	"tTfffifff\000"
 2581      66696666 
 2581      6600
 2582 0032 0000     		.space	2
 2583              	.LC11:
 2584 0034 74546366 		.ascii	"tTcfdfdffDfd\000"
 2584      64666466 
 2584      66446664 
 2584      00
 2585 0041 000000   		.space	3
 2586              	.LC12:
 2587 0044 74546664 		.ascii	"tTfdfdiiffcfcf_\000"
 2587      66646969 
 2587      66666366 
 2587      63665F00 
 2588              	.LC13:
 2589 0054 74636969 		.ascii	"tciiiiiiiiiiiiifff\000"
 2589      69696969 
 2589      69696969 
 2589      69696966 
 2589      666600
 2590 0067 00       		.space	1
 2591              	.LC14:
 2592 0068 74666466 		.ascii	"tfdfdTc;c\000"
 2592      6454633B 
 2592      6300
 2593 0072 0000     		.space	2
 2594              	.LC15:
 2595 0074 74546666 		.ascii	"tTfffffff\000"
 2595      66666666 
 2595      6600
 2596 007e 0000     		.space	2
 2597              	.LC16:
 2598 0080 74696969 		.ascii	"tiii;iiiiiiiiiiiiiiii\000"
 2598      3B696969 
 2598      69696969 
ARM GAS  C:\Users\armst\AppData\Local\Temp\ccNPhHLt.s 			page 65


 2598      69696969 
 2598      69696969 
 2599 0096 0000     		.space	2
 2600              	.LC17:
 2601 0098 743B6663 		.ascii	"t;fcfcfcfcc\000"
 2601      66636663 
 2601      66636300 
 2602              	.LC18:
 2603 00a4 74546969 		.ascii	"tTiiiii\000"
 2603      69696900 
 2604              		.text
 2605              	.Letext0:
 2606              		.file 3 "c:\\program files (x86)\\cypress\\psoc creator\\4.4\\psoc creator\\import\\gnu\\arm\\5.4.
 2607              		.file 4 "c:\\program files (x86)\\cypress\\psoc creator\\4.4\\psoc creator\\import\\gnu\\arm\\5.4.
 2608              		.file 5 "c:\\program files (x86)\\cypress\\psoc creator\\4.4\\psoc creator\\import\\gnu\\arm\\5.4.
 2609              		.file 6 "c:\\program files (x86)\\cypress\\psoc creator\\4.4\\psoc creator\\import\\gnu\\arm\\5.4.
 2610              		.file 7 "<built-in>"
 2611              		.file 8 "c:\\program files (x86)\\cypress\\psoc creator\\4.4\\psoc creator\\import\\gnu\\arm\\5.4.
 2612              		.file 9 "c:\\program files (x86)\\cypress\\psoc creator\\4.4\\psoc creator\\import\\gnu\\arm\\5.4.
 2613              		.file 10 "c:\\program files (x86)\\cypress\\psoc creator\\4.4\\psoc creator\\import\\gnu\\arm\\5.4
 2614              		.file 11 "c:\\program files (x86)\\cypress\\psoc creator\\4.4\\psoc creator\\import\\gnu\\arm\\5.4