ARM GAS  C:\Users\armst\AppData\Local\Temp\ccNPhHLt.s 			page 1


   1              		.syntax unified
   2              		.cpu cortex-m4
   3              		.eabi_attribute 27, 1
   4              		.fpu fpv4-sp-d16
   5              		.eabi_attribute 20, 1
   6              		.eabi_attribute 21, 1
   7              		.eabi_attribute 23, 3
   8              		.eabi_attribute 24, 1
   9              		.eabi_attribute 25, 1
  10              		.eabi_attribute 26, 1
  11              		.eabi_attribute 30, 1
  12              		.eabi_attribute 34, 1
  13              		.eabi_attribute 18, 4
  14              		.thumb
  15              		.syntax unified
  16              		.file	"minmea.c"
  17              		.text
  18              	.Ltext0:
  19              		.cfi_sections	.debug_frame
  20              		.section	.text.hex2int,"ax",%progbits
  21              		.align	2
  22              		.thumb
  23              		.thumb_func
  24              		.type	hex2int, %function
  25              	hex2int:
  26              	.LFB5:
  27              		.file 1 "minmea.c"
   1:minmea.c      **** /*
   2:minmea.c      ****  * Copyright © 2014 Kosma Moczek <kosma@cloudyourcar.com>
   3:minmea.c      ****  * This program is free software. It comes without any warranty, to the extent
   4:minmea.c      ****  * permitted by applicable law. You can redistribute it and/or modify it under
   5:minmea.c      ****  * the terms of the Do What The Fuck You Want To Public License, Version 2, as
   6:minmea.c      ****  * published by Sam Hocevar. See the COPYING file for more details.
   7:minmea.c      ****  * Source: https://github.com/kosma/minmea/tree/master
   8:minmea.c      ****  */
   9:minmea.c      **** 
  10:minmea.c      **** #include "minmea.h"
  11:minmea.c      **** 
  12:minmea.c      **** #include <stdlib.h>
  13:minmea.c      **** #include <string.h>
  14:minmea.c      **** #include <stdarg.h>
  15:minmea.c      **** 
  16:minmea.c      **** #define boolstr(s) ((s) ? "true" : "false")
  17:minmea.c      **** 
  18:minmea.c      **** static int hex2int(char c)
  19:minmea.c      **** {
  28              		.loc 1 19 0
  29              		.cfi_startproc
  30              		@ args = 0, pretend = 0, frame = 0
  31              		@ frame_needed = 0, uses_anonymous_args = 0
  32              		@ link register save eliminated.
  33              	.LVL0:
  20:minmea.c      ****     if (c >= '0' && c <= '9')
  34              		.loc 1 20 0
  35 0000 A0F13003 		sub	r3, r0, #48
  36 0004 DBB2     		uxtb	r3, r3
  37 0006 092B     		cmp	r3, #9
ARM GAS  C:\Users\armst\AppData\Local\Temp\ccNPhHLt.s 			page 2


  38 0008 01D8     		bhi	.L2
  21:minmea.c      ****         return c - '0';
  39              		.loc 1 21 0
  40 000a 3038     		subs	r0, r0, #48
  41              	.LVL1:
  42 000c 7047     		bx	lr
  43              	.LVL2:
  44              	.L2:
  22:minmea.c      ****     if (c >= 'A' && c <= 'F')
  45              		.loc 1 22 0
  46 000e A0F14103 		sub	r3, r0, #65
  47 0012 DBB2     		uxtb	r3, r3
  48 0014 052B     		cmp	r3, #5
  49 0016 01D8     		bhi	.L4
  23:minmea.c      ****         return c - 'A' + 10;
  50              		.loc 1 23 0
  51 0018 3738     		subs	r0, r0, #55
  52              	.LVL3:
  53 001a 7047     		bx	lr
  54              	.LVL4:
  55              	.L4:
  24:minmea.c      ****     if (c >= 'a' && c <= 'f')
  56              		.loc 1 24 0
  57 001c A0F16103 		sub	r3, r0, #97
  58 0020 DBB2     		uxtb	r3, r3
  59 0022 052B     		cmp	r3, #5
  60 0024 01D8     		bhi	.L5
  25:minmea.c      ****         return c - 'a' + 10;
  61              		.loc 1 25 0
  62 0026 5738     		subs	r0, r0, #87
  63              	.LVL5:
  64 0028 7047     		bx	lr
  65              	.LVL6:
  66              	.L5:
  26:minmea.c      ****     return -1;
  67              		.loc 1 26 0
  68 002a 4FF0FF30 		mov	r0, #-1
  69              	.LVL7:
  27:minmea.c      **** }
  70              		.loc 1 27 0
  71 002e 7047     		bx	lr
  72              		.cfi_endproc
  73              	.LFE5:
  74              		.size	hex2int, .-hex2int
  75              		.section	.text.minmea_checksum,"ax",%progbits
  76              		.align	2
  77              		.global	minmea_checksum
  78              		.thumb
  79              		.thumb_func
  80              		.type	minmea_checksum, %function
  81              	minmea_checksum:
  82              	.LFB6:
  28:minmea.c      **** 
  29:minmea.c      **** uint8_t minmea_checksum(const char *sentence)
  30:minmea.c      **** {
  83              		.loc 1 30 0
  84              		.cfi_startproc
ARM GAS  C:\Users\armst\AppData\Local\Temp\ccNPhHLt.s 			page 3


  85              		@ args = 0, pretend = 0, frame = 0
  86              		@ frame_needed = 0, uses_anonymous_args = 0
  87              		@ link register save eliminated.
  88              	.LVL8:
  89 0000 0246     		mov	r2, r0
  31:minmea.c      ****     // Support senteces with or without the starting dollar sign.
  32:minmea.c      ****     if (*sentence == '$')
  90              		.loc 1 32 0
  91 0002 0378     		ldrb	r3, [r0]	@ zero_extendqisi2
  92 0004 242B     		cmp	r3, #36
  93 0006 00D1     		bne	.L7
  33:minmea.c      ****         sentence++;
  94              		.loc 1 33 0
  95 0008 0132     		adds	r2, r2, #1
  96              	.LVL9:
  97              	.L7:
  30:minmea.c      ****     // Support senteces with or without the starting dollar sign.
  98              		.loc 1 30 0
  99 000a 0020     		movs	r0, #0
 100 000c 01E0     		b	.L8
 101              	.LVL10:
 102              	.L10:
  34:minmea.c      **** 
  35:minmea.c      ****     uint8_t checksum = 0x00;
  36:minmea.c      **** 
  37:minmea.c      ****     // The optional checksum is an XOR of all bytes between "$" and "*".
  38:minmea.c      ****     while (*sentence && *sentence != '*')
  39:minmea.c      ****         checksum ^= *sentence++;
 103              		.loc 1 39 0
 104 000e 0132     		adds	r2, r2, #1
 105              	.LVL11:
 106 0010 5840     		eors	r0, r0, r3
 107              	.LVL12:
 108              	.L8:
  38:minmea.c      ****         checksum ^= *sentence++;
 109              		.loc 1 38 0
 110 0012 1378     		ldrb	r3, [r2]	@ zero_extendqisi2
 111 0014 0BB1     		cbz	r3, .L9
  38:minmea.c      ****         checksum ^= *sentence++;
 112              		.loc 1 38 0 is_stmt 0 discriminator 1
 113 0016 2A2B     		cmp	r3, #42
 114 0018 F9D1     		bne	.L10
 115              	.L9:
  40:minmea.c      **** 
  41:minmea.c      ****     return checksum;
  42:minmea.c      **** }
 116              		.loc 1 42 0 is_stmt 1
 117 001a 7047     		bx	lr
 118              		.cfi_endproc
 119              	.LFE6:
 120              		.size	minmea_checksum, .-minmea_checksum
 121              		.section	.text.minmea_check,"ax",%progbits
 122              		.align	2
 123              		.global	minmea_check
 124              		.thumb
 125              		.thumb_func
 126              		.type	minmea_check, %function
ARM GAS  C:\Users\armst\AppData\Local\Temp\ccNPhHLt.s 			page 4


 127              	minmea_check:
 128              	.LFB7:
  43:minmea.c      **** 
  44:minmea.c      **** bool minmea_check(const char *sentence, bool strict)
  45:minmea.c      **** {
 129              		.loc 1 45 0
 130              		.cfi_startproc
 131              		@ args = 0, pretend = 0, frame = 0
 132              		@ frame_needed = 0, uses_anonymous_args = 0
 133              	.LVL13:
 134 0000 F8B5     		push	{r3, r4, r5, r6, r7, lr}
 135              		.cfi_def_cfa_offset 24
 136              		.cfi_offset 3, -24
 137              		.cfi_offset 4, -20
 138              		.cfi_offset 5, -16
 139              		.cfi_offset 6, -12
 140              		.cfi_offset 7, -8
 141              		.cfi_offset 14, -4
 142              	.LVL14:
  46:minmea.c      ****     uint8_t checksum = 0x00;
  47:minmea.c      **** 
  48:minmea.c      ****     // A valid sentence starts with "$".
  49:minmea.c      ****     if (*sentence++ != '$')
 143              		.loc 1 49 0
 144 0002 0378     		ldrb	r3, [r0]	@ zero_extendqisi2
 145 0004 242B     		cmp	r3, #36
 146 0006 30D1     		bne	.L20
 147 0008 441C     		adds	r4, r0, #1
 148              	.LVL15:
 149 000a 0025     		movs	r5, #0
 150 000c 01E0     		b	.L13
 151              	.LVL16:
 152              	.L15:
  50:minmea.c      ****         return false;
  51:minmea.c      **** 
  52:minmea.c      ****     // The optional checksum is an XOR of all bytes between "$" and "*".
  53:minmea.c      ****     while (*sentence && *sentence != '*' && isprint((unsigned char) *sentence))
  54:minmea.c      ****         checksum ^= *sentence++;
 153              		.loc 1 54 0
 154 000e 0134     		adds	r4, r4, #1
 155              	.LVL17:
 156 0010 5D40     		eors	r5, r5, r3
 157              	.LVL18:
 158              	.L13:
  53:minmea.c      ****         checksum ^= *sentence++;
 159              		.loc 1 53 0
 160 0012 2378     		ldrb	r3, [r4]	@ zero_extendqisi2
 161 0014 43B1     		cbz	r3, .L14
  53:minmea.c      ****         checksum ^= *sentence++;
 162              		.loc 1 53 0 is_stmt 0 discriminator 1
 163 0016 2A2B     		cmp	r3, #42
 164 0018 06D0     		beq	.L14
  53:minmea.c      ****         checksum ^= *sentence++;
 165              		.loc 1 53 0 discriminator 2
 166 001a 1A4A     		ldr	r2, .L27
 167 001c 1268     		ldr	r2, [r2]
 168 001e 1A44     		add	r2, r2, r3
ARM GAS  C:\Users\armst\AppData\Local\Temp\ccNPhHLt.s 			page 5


 169 0020 5278     		ldrb	r2, [r2, #1]	@ zero_extendqisi2
 170 0022 12F0970F 		tst	r2, #151
 171 0026 F2D1     		bne	.L15
 172              	.L14:
  55:minmea.c      **** 
  56:minmea.c      ****     // If checksum is present...
  57:minmea.c      ****     if (*sentence == '*') {
 173              		.loc 1 57 0 is_stmt 1
 174 0028 2A2B     		cmp	r3, #42
 175 002a 13D1     		bne	.L16
 176              	.LVL19:
 177              	.LBB37:
  58:minmea.c      ****         // Extract checksum.
  59:minmea.c      ****         sentence++;
  60:minmea.c      ****         int upper = hex2int(*sentence++);
 178              		.loc 1 60 0
 179 002c 6078     		ldrb	r0, [r4, #1]	@ zero_extendqisi2
 180 002e FFF7FEFF 		bl	hex2int
 181              	.LVL20:
 182 0032 0646     		mov	r6, r0
 183              	.LVL21:
  61:minmea.c      ****         if (upper == -1)
 184              		.loc 1 61 0
 185 0034 B0F1FF3F 		cmp	r0, #-1
 186 0038 19D0     		beq	.L21
  62:minmea.c      ****             return false;
  63:minmea.c      ****         int lower = hex2int(*sentence++);
 187              		.loc 1 63 0
 188 003a E71C     		adds	r7, r4, #3
 189              	.LVL22:
 190 003c A078     		ldrb	r0, [r4, #2]	@ zero_extendqisi2
 191              	.LVL23:
 192 003e FFF7FEFF 		bl	hex2int
 193              	.LVL24:
  64:minmea.c      ****         if (lower == -1)
 194              		.loc 1 64 0
 195 0042 B0F1FF3F 		cmp	r0, #-1
 196 0046 14D0     		beq	.L22
  65:minmea.c      ****             return false;
  66:minmea.c      ****         int expected = upper << 4 | lower;
 197              		.loc 1 66 0
 198 0048 40EA0610 		orr	r0, r0, r6, lsl #4
 199              	.LVL25:
  67:minmea.c      **** 
  68:minmea.c      ****         // Check for checksum mismatch.
  69:minmea.c      ****         if (checksum != expected)
 200              		.loc 1 69 0
 201 004c A842     		cmp	r0, r5
 202 004e 12D1     		bne	.L23
  63:minmea.c      ****         if (lower == -1)
 203              		.loc 1 63 0
 204 0050 3C46     		mov	r4, r7
 205 0052 02E0     		b	.L18
 206              	.LVL26:
 207              	.L16:
 208              	.LBE37:
  70:minmea.c      ****             return false;
ARM GAS  C:\Users\armst\AppData\Local\Temp\ccNPhHLt.s 			page 6


  71:minmea.c      ****     } else if (strict) {
 209              		.loc 1 71 0
 210 0054 09B1     		cbz	r1, .L18
 211 0056 10E0     		b	.L24
 212              	.LVL27:
 213              	.L19:
  72:minmea.c      ****         // Discard non-checksummed frames in strict mode.
  73:minmea.c      ****         return false;
  74:minmea.c      ****     }
  75:minmea.c      **** 
  76:minmea.c      ****     // The only stuff allowed at this point is a newline.
  77:minmea.c      ****     while (*sentence == '\r' || *sentence == '\n') {
  78:minmea.c      ****         sentence++;
 214              		.loc 1 78 0
 215 0058 0134     		adds	r4, r4, #1
 216              	.LVL28:
 217              	.L18:
  77:minmea.c      ****         sentence++;
 218              		.loc 1 77 0
 219 005a 2378     		ldrb	r3, [r4]	@ zero_extendqisi2
 220 005c 0D2B     		cmp	r3, #13
 221 005e FBD0     		beq	.L19
  77:minmea.c      ****         sentence++;
 222              		.loc 1 77 0 is_stmt 0 discriminator 1
 223 0060 0A2B     		cmp	r3, #10
 224 0062 F9D0     		beq	.L19
  79:minmea.c      ****     }
  80:minmea.c      ****     
  81:minmea.c      ****     if (*sentence) {
 225              		.loc 1 81 0 is_stmt 1
 226 0064 5BB1     		cbz	r3, .L25
  82:minmea.c      ****         return false;
 227              		.loc 1 82 0
 228 0066 0020     		movs	r0, #0
 229 0068 F8BD     		pop	{r3, r4, r5, r6, r7, pc}
 230              	.LVL29:
 231              	.L20:
  50:minmea.c      **** 
 232              		.loc 1 50 0
 233 006a 0020     		movs	r0, #0
 234              	.LVL30:
 235 006c F8BD     		pop	{r3, r4, r5, r6, r7, pc}
 236              	.LVL31:
 237              	.L21:
 238              	.LBB38:
  62:minmea.c      ****         int lower = hex2int(*sentence++);
 239              		.loc 1 62 0
 240 006e 0020     		movs	r0, #0
 241              	.LVL32:
 242 0070 F8BD     		pop	{r3, r4, r5, r6, r7, pc}
 243              	.LVL33:
 244              	.L22:
  65:minmea.c      ****         int expected = upper << 4 | lower;
 245              		.loc 1 65 0
 246 0072 0020     		movs	r0, #0
 247              	.LVL34:
 248 0074 F8BD     		pop	{r3, r4, r5, r6, r7, pc}
ARM GAS  C:\Users\armst\AppData\Local\Temp\ccNPhHLt.s 			page 7


 249              	.LVL35:
 250              	.L23:
  70:minmea.c      ****     } else if (strict) {
 251              		.loc 1 70 0
 252 0076 0020     		movs	r0, #0
 253              	.LVL36:
 254 0078 F8BD     		pop	{r3, r4, r5, r6, r7, pc}
 255              	.LVL37:
 256              	.L24:
 257              	.LBE38:
  73:minmea.c      ****     }
 258              		.loc 1 73 0
 259 007a 0020     		movs	r0, #0
 260 007c F8BD     		pop	{r3, r4, r5, r6, r7, pc}
 261              	.LVL38:
 262              	.L25:
  83:minmea.c      ****     }
  84:minmea.c      **** 
  85:minmea.c      ****     return true;
 263              		.loc 1 85 0
 264 007e 0120     		movs	r0, #1
  86:minmea.c      **** }
 265              		.loc 1 86 0
 266 0080 F8BD     		pop	{r3, r4, r5, r6, r7, pc}
 267              	.LVL39:
 268              	.L28:
 269 0082 00BF     		.align	2
 270              	.L27:
 271 0084 00000000 		.word	__ctype_ptr__
 272              		.cfi_endproc
 273              	.LFE7:
 274              		.size	minmea_check, .-minmea_check
 275              		.section	.text.minmea_scan,"ax",%progbits
 276              		.align	2
 277              		.global	minmea_scan
 278              		.thumb
 279              		.thumb_func
 280              		.type	minmea_scan, %function
 281              	minmea_scan:
 282              	.LFB8:
  87:minmea.c      **** 
  88:minmea.c      **** bool minmea_scan(const char *sentence, const char *format, ...)
  89:minmea.c      **** {
 283              		.loc 1 89 0
 284              		.cfi_startproc
 285              		@ args = 4, pretend = 12, frame = 16
 286              		@ frame_needed = 0, uses_anonymous_args = 1
 287              	.LVL40:
 288 0000 0EB4     		push	{r1, r2, r3}
 289              		.cfi_def_cfa_offset 12
 290              		.cfi_offset 1, -12
 291              		.cfi_offset 2, -8
 292              		.cfi_offset 3, -4
 293 0002 2DE9F04F 		push	{r4, r5, r6, r7, r8, r9, r10, fp, lr}
 294              		.cfi_def_cfa_offset 48
 295              		.cfi_offset 4, -48
 296              		.cfi_offset 5, -44
ARM GAS  C:\Users\armst\AppData\Local\Temp\ccNPhHLt.s 			page 8


 297              		.cfi_offset 6, -40
 298              		.cfi_offset 7, -36
 299              		.cfi_offset 8, -32
 300              		.cfi_offset 9, -28
 301              		.cfi_offset 10, -24
 302              		.cfi_offset 11, -20
 303              		.cfi_offset 14, -16
 304 0006 84B0     		sub	sp, sp, #16
 305              		.cfi_def_cfa_offset 64
 306 0008 0D9D     		ldr	r5, [sp, #52]
 307              	.LVL41:
  90:minmea.c      ****     bool result = false;
  91:minmea.c      ****     bool optional = false;
  92:minmea.c      **** 
  93:minmea.c      ****     if (sentence == NULL)
 308              		.loc 1 93 0
 309 000a 0028     		cmp	r0, #0
 310 000c 00F0CC82 		beq	.L94
 311 0010 0446     		mov	r4, r0
  94:minmea.c      ****         return false;
  95:minmea.c      **** 
  96:minmea.c      ****     va_list ap;
  97:minmea.c      ****     va_start(ap, format);
 312              		.loc 1 97 0
 313 0012 0EAB     		add	r3, sp, #56
 314 0014 0393     		str	r3, [sp, #12]
 315              	.LVL42:
  98:minmea.c      **** 
  99:minmea.c      ****     const char *field = sentence;
 316              		.loc 1 99 0
 317 0016 0746     		mov	r7, r0
  91:minmea.c      **** 
 318              		.loc 1 91 0
 319 0018 0026     		movs	r6, #0
 100:minmea.c      **** #define next_field() \
 101:minmea.c      ****     do { \
 102:minmea.c      ****         /* Progress to the next field. */ \
 103:minmea.c      ****         while (minmea_isfield(*sentence)) \
 104:minmea.c      ****             sentence++; \
 105:minmea.c      ****         /* Make sure there is a field there. */ \
 106:minmea.c      ****         if (*sentence == ',') { \
 107:minmea.c      ****             sentence++; \
 108:minmea.c      ****             field = sentence; \
 109:minmea.c      ****         } else { \
 110:minmea.c      ****             field = NULL; \
 111:minmea.c      ****         } \
 112:minmea.c      ****     } while (0)
 113:minmea.c      **** 
 114:minmea.c      ****     while (*format) {
 320              		.loc 1 114 0
 321 001a A9E2     		b	.L31
 322              	.LVL43:
 323              	.L93:
 324              	.LBB39:
 115:minmea.c      ****         char type = *format++;
 325              		.loc 1 115 0
 326 001c 0135     		adds	r5, r5, #1
ARM GAS  C:\Users\armst\AppData\Local\Temp\ccNPhHLt.s 			page 9


 327              	.LVL44:
 116:minmea.c      **** 
 117:minmea.c      ****         if (type == ';') {
 328              		.loc 1 117 0
 329 001e 3B2B     		cmp	r3, #59
 330 0020 00F0A382 		beq	.L95
 118:minmea.c      ****             // All further fields are optional.
 119:minmea.c      ****             optional = true;
 120:minmea.c      ****             continue;
 121:minmea.c      ****         }
 122:minmea.c      **** 
 123:minmea.c      ****         if (!field && !optional) {
 331              		.loc 1 123 0
 332 0024 17B9     		cbnz	r7, .L33
 333              		.loc 1 123 0 is_stmt 0 discriminator 1
 334 0026 002E     		cmp	r6, #0
 335 0028 00F0A882 		beq	.L96
 336              	.L33:
 124:minmea.c      ****             // Field requested but we ran out if input. Bail out.
 125:minmea.c      ****             goto parse_error;
 126:minmea.c      ****         }
 127:minmea.c      **** 
 128:minmea.c      ****         switch (type) {
 337              		.loc 1 128 0 is_stmt 1
 338 002c 443B     		subs	r3, r3, #68
 339              	.LVL45:
 340 002e 302B     		cmp	r3, #48
 341 0030 00F2A682 		bhi	.L97
 342 0034 DFE813F0 		tbh	[pc, r3, lsl #1]
 343              	.L36:
 344 0038 8E01     		.2byte	(.L35-.L36)/2
 345 003a A402     		.2byte	(.L97-.L36)/2
 346 003c A402     		.2byte	(.L97-.L36)/2
 347 003e A402     		.2byte	(.L97-.L36)/2
 348 0040 A402     		.2byte	(.L97-.L36)/2
 349 0042 A402     		.2byte	(.L97-.L36)/2
 350 0044 A402     		.2byte	(.L97-.L36)/2
 351 0046 A402     		.2byte	(.L97-.L36)/2
 352 0048 A402     		.2byte	(.L97-.L36)/2
 353 004a A402     		.2byte	(.L97-.L36)/2
 354 004c A402     		.2byte	(.L97-.L36)/2
 355 004e A402     		.2byte	(.L97-.L36)/2
 356 0050 A402     		.2byte	(.L97-.L36)/2
 357 0052 A402     		.2byte	(.L97-.L36)/2
 358 0054 A402     		.2byte	(.L97-.L36)/2
 359 0056 A402     		.2byte	(.L97-.L36)/2
 360 0058 F101     		.2byte	(.L37-.L36)/2
 361 005a A402     		.2byte	(.L97-.L36)/2
 362 005c A402     		.2byte	(.L97-.L36)/2
 363 005e A402     		.2byte	(.L97-.L36)/2
 364 0060 A402     		.2byte	(.L97-.L36)/2
 365 0062 A402     		.2byte	(.L97-.L36)/2
 366 0064 A402     		.2byte	(.L97-.L36)/2
 367 0066 A402     		.2byte	(.L97-.L36)/2
 368 0068 A402     		.2byte	(.L97-.L36)/2
 369 006a A402     		.2byte	(.L97-.L36)/2
 370 006c A402     		.2byte	(.L97-.L36)/2
ARM GAS  C:\Users\armst\AppData\Local\Temp\ccNPhHLt.s 			page 10


 371 006e 7F02     		.2byte	(.L66-.L36)/2
 372 0070 A402     		.2byte	(.L97-.L36)/2
 373 0072 A402     		.2byte	(.L97-.L36)/2
 374 0074 A402     		.2byte	(.L97-.L36)/2
 375 0076 3100     		.2byte	(.L39-.L36)/2
 376 0078 4F00     		.2byte	(.L40-.L36)/2
 377 007a A402     		.2byte	(.L97-.L36)/2
 378 007c 8B00     		.2byte	(.L41-.L36)/2
 379 007e A402     		.2byte	(.L97-.L36)/2
 380 0080 A402     		.2byte	(.L97-.L36)/2
 381 0082 1601     		.2byte	(.L42-.L36)/2
 382 0084 A402     		.2byte	(.L97-.L36)/2
 383 0086 A402     		.2byte	(.L97-.L36)/2
 384 0088 A402     		.2byte	(.L97-.L36)/2
 385 008a A402     		.2byte	(.L97-.L36)/2
 386 008c A402     		.2byte	(.L97-.L36)/2
 387 008e A402     		.2byte	(.L97-.L36)/2
 388 0090 A402     		.2byte	(.L97-.L36)/2
 389 0092 A402     		.2byte	(.L97-.L36)/2
 390 0094 A402     		.2byte	(.L97-.L36)/2
 391 0096 3A01     		.2byte	(.L43-.L36)/2
 392 0098 5B01     		.2byte	(.L44-.L36)/2
 393              		.p2align 1
 394              	.L39:
 395              	.LVL46:
 396              	.LBB40:
 129:minmea.c      ****             case 'c': { // Single character field (char).
 130:minmea.c      ****                 char value = '\0';
 131:minmea.c      **** 
 132:minmea.c      ****                 if (field && minmea_isfield(*field))
 397              		.loc 1 132 0
 398 009a AFB1     		cbz	r7, .L98
 399              		.loc 1 132 0 is_stmt 0 discriminator 1
 400 009c 3B78     		ldrb	r3, [r7]	@ zero_extendqisi2
 401              	.LVL47:
 402              	.LBB41:
 403              	.LBB42:
 404              		.file 2 "minmea.h"
   1:minmea.h      **** /*
   2:minmea.h      ****  * Copyright © 2014 Kosma Moczek <kosma@cloudyourcar.com>
   3:minmea.h      ****  * This program is free software. It comes without any warranty, to the extent
   4:minmea.h      ****  * permitted by applicable law. You can redistribute it and/or modify it under
   5:minmea.h      ****  * the terms of the Do What The Fuck You Want To Public License, Version 2, as
   6:minmea.h      ****  * published by Sam Hocevar. See the COPYING file for more details.
   7:minmea.h      ****  * Source: https://github.com/kosma/minmea/tree/master
   8:minmea.h      ****  */
   9:minmea.h      **** 
  10:minmea.h      **** #ifndef MINMEA_H
  11:minmea.h      **** #define MINMEA_H
  12:minmea.h      **** 
  13:minmea.h      **** #ifdef __cplusplus
  14:minmea.h      **** extern "C" {
  15:minmea.h      **** #endif
  16:minmea.h      **** 
  17:minmea.h      **** #include <ctype.h>
  18:minmea.h      **** #include <stdint.h>
  19:minmea.h      **** #include <stdbool.h>
ARM GAS  C:\Users\armst\AppData\Local\Temp\ccNPhHLt.s 			page 11


  20:minmea.h      **** #include <time.h>
  21:minmea.h      **** #include <math.h>
  22:minmea.h      **** #ifdef MINMEA_INCLUDE_COMPAT
  23:minmea.h      **** #include <minmea_compat.h>
  24:minmea.h      **** #endif
  25:minmea.h      **** 
  26:minmea.h      **** #ifndef MINMEA_MAX_SENTENCE_LENGTH
  27:minmea.h      **** #define MINMEA_MAX_SENTENCE_LENGTH 80
  28:minmea.h      **** #endif
  29:minmea.h      **** 
  30:minmea.h      **** enum minmea_sentence_id {
  31:minmea.h      ****     MINMEA_INVALID = -1,
  32:minmea.h      ****     MINMEA_UNKNOWN = 0,
  33:minmea.h      ****     MINMEA_SENTENCE_GBS,
  34:minmea.h      ****     MINMEA_SENTENCE_GGA,
  35:minmea.h      ****     MINMEA_SENTENCE_GLL,
  36:minmea.h      ****     MINMEA_SENTENCE_GSA,
  37:minmea.h      ****     MINMEA_SENTENCE_GST,
  38:minmea.h      ****     MINMEA_SENTENCE_GSV,
  39:minmea.h      ****     MINMEA_SENTENCE_RMC,
  40:minmea.h      ****     MINMEA_SENTENCE_VTG,
  41:minmea.h      ****     MINMEA_SENTENCE_ZDA,
  42:minmea.h      **** };
  43:minmea.h      **** 
  44:minmea.h      **** struct minmea_float {
  45:minmea.h      ****     int_least32_t value;
  46:minmea.h      ****     int_least32_t scale;
  47:minmea.h      **** };
  48:minmea.h      **** 
  49:minmea.h      **** struct minmea_date {
  50:minmea.h      ****     int day;
  51:minmea.h      ****     int month;
  52:minmea.h      ****     int year;
  53:minmea.h      **** };
  54:minmea.h      **** 
  55:minmea.h      **** struct minmea_time {
  56:minmea.h      ****     int hours;
  57:minmea.h      ****     int minutes;
  58:minmea.h      ****     int seconds;
  59:minmea.h      ****     int microseconds;
  60:minmea.h      **** };
  61:minmea.h      **** 
  62:minmea.h      **** struct minmea_sentence_gbs {
  63:minmea.h      ****     struct minmea_time time;
  64:minmea.h      ****     struct minmea_float err_latitude;
  65:minmea.h      ****     struct minmea_float err_longitude;
  66:minmea.h      ****     struct minmea_float err_altitude;
  67:minmea.h      ****     int svid;
  68:minmea.h      ****     struct minmea_float prob;
  69:minmea.h      ****     struct minmea_float bias;
  70:minmea.h      ****     struct minmea_float stddev;
  71:minmea.h      **** };
  72:minmea.h      **** 
  73:minmea.h      **** struct minmea_sentence_rmc {
  74:minmea.h      ****     struct minmea_time time;
  75:minmea.h      ****     bool valid;
  76:minmea.h      ****     struct minmea_float latitude;
ARM GAS  C:\Users\armst\AppData\Local\Temp\ccNPhHLt.s 			page 12


  77:minmea.h      ****     struct minmea_float longitude;
  78:minmea.h      ****     struct minmea_float speed;
  79:minmea.h      ****     struct minmea_float course;
  80:minmea.h      ****     struct minmea_date date;
  81:minmea.h      ****     struct minmea_float variation;
  82:minmea.h      **** };
  83:minmea.h      **** 
  84:minmea.h      **** struct minmea_sentence_gga {
  85:minmea.h      ****     struct minmea_time time;
  86:minmea.h      ****     struct minmea_float latitude;
  87:minmea.h      ****     struct minmea_float longitude;
  88:minmea.h      ****     int fix_quality;
  89:minmea.h      ****     int satellites_tracked;
  90:minmea.h      ****     struct minmea_float hdop;
  91:minmea.h      ****     struct minmea_float altitude; char altitude_units;
  92:minmea.h      ****     struct minmea_float height; char height_units;
  93:minmea.h      ****     struct minmea_float dgps_age;
  94:minmea.h      **** };
  95:minmea.h      **** 
  96:minmea.h      **** enum minmea_gll_status {
  97:minmea.h      ****     MINMEA_GLL_STATUS_DATA_VALID = 'A',
  98:minmea.h      ****     MINMEA_GLL_STATUS_DATA_NOT_VALID = 'V',
  99:minmea.h      **** };
 100:minmea.h      **** 
 101:minmea.h      **** // FAA mode added to some fields in NMEA 2.3.
 102:minmea.h      **** enum minmea_faa_mode {
 103:minmea.h      ****     MINMEA_FAA_MODE_AUTONOMOUS = 'A',
 104:minmea.h      ****     MINMEA_FAA_MODE_DIFFERENTIAL = 'D',
 105:minmea.h      ****     MINMEA_FAA_MODE_ESTIMATED = 'E',
 106:minmea.h      ****     MINMEA_FAA_MODE_MANUAL = 'M',
 107:minmea.h      ****     MINMEA_FAA_MODE_SIMULATED = 'S',
 108:minmea.h      ****     MINMEA_FAA_MODE_NOT_VALID = 'N',
 109:minmea.h      ****     MINMEA_FAA_MODE_PRECISE = 'P',
 110:minmea.h      **** };
 111:minmea.h      **** 
 112:minmea.h      **** struct minmea_sentence_gll {
 113:minmea.h      ****     struct minmea_float latitude;
 114:minmea.h      ****     struct minmea_float longitude;
 115:minmea.h      ****     struct minmea_time time;
 116:minmea.h      ****     char status;
 117:minmea.h      ****     char mode;
 118:minmea.h      **** };
 119:minmea.h      **** 
 120:minmea.h      **** struct minmea_sentence_gst {
 121:minmea.h      ****     struct minmea_time time;
 122:minmea.h      ****     struct minmea_float rms_deviation;
 123:minmea.h      ****     struct minmea_float semi_major_deviation;
 124:minmea.h      ****     struct minmea_float semi_minor_deviation;
 125:minmea.h      ****     struct minmea_float semi_major_orientation;
 126:minmea.h      ****     struct minmea_float latitude_error_deviation;
 127:minmea.h      ****     struct minmea_float longitude_error_deviation;
 128:minmea.h      ****     struct minmea_float altitude_error_deviation;
 129:minmea.h      **** };
 130:minmea.h      **** 
 131:minmea.h      **** enum minmea_gsa_mode {
 132:minmea.h      ****     MINMEA_GPGSA_MODE_AUTO = 'A',
 133:minmea.h      ****     MINMEA_GPGSA_MODE_FORCED = 'M',
ARM GAS  C:\Users\armst\AppData\Local\Temp\ccNPhHLt.s 			page 13


 134:minmea.h      **** };
 135:minmea.h      **** 
 136:minmea.h      **** enum minmea_gsa_fix_type {
 137:minmea.h      ****     MINMEA_GPGSA_FIX_NONE = 1,
 138:minmea.h      ****     MINMEA_GPGSA_FIX_2D = 2,
 139:minmea.h      ****     MINMEA_GPGSA_FIX_3D = 3,
 140:minmea.h      **** };
 141:minmea.h      **** 
 142:minmea.h      **** struct minmea_sentence_gsa {
 143:minmea.h      ****     char mode;
 144:minmea.h      ****     int fix_type;
 145:minmea.h      ****     int sats[12];
 146:minmea.h      ****     struct minmea_float pdop;
 147:minmea.h      ****     struct minmea_float hdop;
 148:minmea.h      ****     struct minmea_float vdop;
 149:minmea.h      **** };
 150:minmea.h      **** 
 151:minmea.h      **** struct minmea_sat_info {
 152:minmea.h      ****     int nr;
 153:minmea.h      ****     int elevation;
 154:minmea.h      ****     int azimuth;
 155:minmea.h      ****     int snr;
 156:minmea.h      **** };
 157:minmea.h      **** 
 158:minmea.h      **** struct minmea_sentence_gsv {
 159:minmea.h      ****     int total_msgs;
 160:minmea.h      ****     int msg_nr;
 161:minmea.h      ****     int total_sats;
 162:minmea.h      ****     struct minmea_sat_info sats[4];
 163:minmea.h      **** };
 164:minmea.h      **** 
 165:minmea.h      **** struct minmea_sentence_vtg {
 166:minmea.h      ****     struct minmea_float true_track_degrees;
 167:minmea.h      ****     struct minmea_float magnetic_track_degrees;
 168:minmea.h      ****     struct minmea_float speed_knots;
 169:minmea.h      ****     struct minmea_float speed_kph;
 170:minmea.h      ****     enum minmea_faa_mode faa_mode;
 171:minmea.h      **** };
 172:minmea.h      **** 
 173:minmea.h      **** struct minmea_sentence_zda {
 174:minmea.h      ****     struct minmea_time time;
 175:minmea.h      ****     struct minmea_date date;
 176:minmea.h      ****     int hour_offset;
 177:minmea.h      ****     int minute_offset;
 178:minmea.h      **** };
 179:minmea.h      **** 
 180:minmea.h      **** /**
 181:minmea.h      ****  * Calculate raw sentence checksum. Does not check sentence integrity.
 182:minmea.h      ****  */
 183:minmea.h      **** uint8_t minmea_checksum(const char *sentence);
 184:minmea.h      **** 
 185:minmea.h      **** /**
 186:minmea.h      ****  * Check sentence validity and checksum. Returns true for valid sentences.
 187:minmea.h      ****  */
 188:minmea.h      **** bool minmea_check(const char *sentence, bool strict);
 189:minmea.h      **** 
 190:minmea.h      **** /**
ARM GAS  C:\Users\armst\AppData\Local\Temp\ccNPhHLt.s 			page 14


 191:minmea.h      ****  * Determine talker identifier.
 192:minmea.h      ****  */
 193:minmea.h      **** bool minmea_talker_id(char talker[3], const char *sentence);
 194:minmea.h      **** 
 195:minmea.h      **** /**
 196:minmea.h      ****  * Determine sentence identifier.
 197:minmea.h      ****  */
 198:minmea.h      **** enum minmea_sentence_id minmea_sentence_id(const char *sentence, bool strict);
 199:minmea.h      **** 
 200:minmea.h      **** /**
 201:minmea.h      ****  * Scanf-like processor for NMEA sentences. Supports the following formats:
 202:minmea.h      ****  * c - single character (char *)
 203:minmea.h      ****  * d - direction, returned as 1/-1, default 0 (int *)
 204:minmea.h      ****  * f - fractional, returned as value + scale (struct minmea_float *)
 205:minmea.h      ****  * i - decimal, default zero (int *)
 206:minmea.h      ****  * s - string (char *)
 207:minmea.h      ****  * t - talker identifier and type (char *)
 208:minmea.h      ****  * D - date (struct minmea_date *)
 209:minmea.h      ****  * T - time stamp (struct minmea_time *)
 210:minmea.h      ****  * _ - ignore this field
 211:minmea.h      ****  * ; - following fields are optional
 212:minmea.h      ****  * Returns true on success. See library source code for details.
 213:minmea.h      ****  */
 214:minmea.h      **** bool minmea_scan(const char *sentence, const char *format, ...);
 215:minmea.h      **** 
 216:minmea.h      **** /*
 217:minmea.h      ****  * Parse a specific type of sentence. Return true on success.
 218:minmea.h      ****  */
 219:minmea.h      **** bool minmea_parse_gbs(struct minmea_sentence_gbs *frame, const char *sentence);
 220:minmea.h      **** bool minmea_parse_rmc(struct minmea_sentence_rmc *frame, const char *sentence);
 221:minmea.h      **** bool minmea_parse_gga(struct minmea_sentence_gga *frame, const char *sentence);
 222:minmea.h      **** bool minmea_parse_gsa(struct minmea_sentence_gsa *frame, const char *sentence);
 223:minmea.h      **** bool minmea_parse_gll(struct minmea_sentence_gll *frame, const char *sentence);
 224:minmea.h      **** bool minmea_parse_gst(struct minmea_sentence_gst *frame, const char *sentence);
 225:minmea.h      **** bool minmea_parse_gsv(struct minmea_sentence_gsv *frame, const char *sentence);
 226:minmea.h      **** bool minmea_parse_vtg(struct minmea_sentence_vtg *frame, const char *sentence);
 227:minmea.h      **** bool minmea_parse_zda(struct minmea_sentence_zda *frame, const char *sentence);
 228:minmea.h      **** 
 229:minmea.h      **** /**
 230:minmea.h      ****  * Convert GPS UTC date/time representation to a UNIX calendar time.
 231:minmea.h      ****  */
 232:minmea.h      **** int minmea_getdatetime(struct tm *tm, const struct minmea_date *date, const struct minmea_time *tim
 233:minmea.h      **** 
 234:minmea.h      **** /**
 235:minmea.h      ****  * Convert GPS UTC date/time representation to a UNIX timestamp.
 236:minmea.h      ****  */
 237:minmea.h      **** // int minmea_gettime(struct timespec *ts, const struct minmea_date *date, const struct minmea_time
 238:minmea.h      **** 
 239:minmea.h      **** /**
 240:minmea.h      ****  * Rescale a fixed-point value to a different scale. Rounds towards zero.
 241:minmea.h      ****  */
 242:minmea.h      **** static inline int_least32_t minmea_rescale(const struct minmea_float *f, int_least32_t new_scale)
 243:minmea.h      **** {
 244:minmea.h      ****     if (f->scale == 0)
 245:minmea.h      ****         return 0;
 246:minmea.h      ****     if (f->scale == new_scale)
 247:minmea.h      ****         return f->value;
ARM GAS  C:\Users\armst\AppData\Local\Temp\ccNPhHLt.s 			page 15


 248:minmea.h      ****     if (f->scale > new_scale)
 249:minmea.h      ****         return (f->value + ((f->value > 0) - (f->value < 0)) * f->scale/new_scale/2) / (f->scale/ne
 250:minmea.h      ****     else
 251:minmea.h      ****         return f->value * (new_scale/f->scale);
 252:minmea.h      **** }
 253:minmea.h      **** 
 254:minmea.h      **** /**
 255:minmea.h      ****  * Convert a fixed-point value to a floating-point value.
 256:minmea.h      ****  * Returns NaN for "unknown" values.
 257:minmea.h      ****  */
 258:minmea.h      **** static inline float minmea_tofloat(const struct minmea_float *f)
 259:minmea.h      **** {
 260:minmea.h      ****     if (f->scale == 0)
 261:minmea.h      ****         return NAN;
 262:minmea.h      ****     return (float) f->value / (float) f->scale;
 263:minmea.h      **** }
 264:minmea.h      **** 
 265:minmea.h      **** /**
 266:minmea.h      ****  * Convert a raw coordinate to a floating point DD.DDD... value.
 267:minmea.h      ****  * Returns NaN for "unknown" values.
 268:minmea.h      ****  */
 269:minmea.h      **** static inline float minmea_tocoord(const struct minmea_float *f)
 270:minmea.h      **** {
 271:minmea.h      ****     if (f->scale == 0)
 272:minmea.h      ****         return NAN;
 273:minmea.h      ****     if (f->scale  > (INT_LEAST32_MAX / 100))
 274:minmea.h      ****         return NAN;
 275:minmea.h      ****     if (f->scale < (INT_LEAST32_MIN / 100))
 276:minmea.h      ****         return NAN;
 277:minmea.h      ****     int_least32_t degrees = f->value / (f->scale * 100);
 278:minmea.h      ****     int_least32_t minutes = f->value % (f->scale * 100);
 279:minmea.h      ****     return (float) degrees + (float) minutes / (60 * f->scale);
 280:minmea.h      **** }
 281:minmea.h      **** 
 282:minmea.h      **** /**
 283:minmea.h      ****  * Return the heading (labeled as 'course').
 284:minmea.h      ****  * Returns NaN for "unknown" values.
 285:minmea.h      ****  */
 286:minmea.h      **** static inline float minmea_getheading(const struct minmea_float *f)
 287:minmea.h      **** {
 288:minmea.h      ****     if (f->scale == 0)
 289:minmea.h      ****         return NAN;
 290:minmea.h      ****     if (f->scale  > (INT_LEAST32_MAX / 100))
 291:minmea.h      ****         return NAN;
 292:minmea.h      ****     if (f->scale < (INT_LEAST32_MIN / 100))
 293:minmea.h      ****         return NAN;
 294:minmea.h      ****     return (float) f->value;
 295:minmea.h      **** }
 296:minmea.h      **** 
 297:minmea.h      **** /**
 298:minmea.h      ****  * Check whether a character belongs to the set of characters allowed in a
 299:minmea.h      ****  * sentence data field.
 300:minmea.h      ****  */
 301:minmea.h      **** static inline bool minmea_isfield(char c) {
 302:minmea.h      ****     return isprint((unsigned char) c) && c != ',' && c != '*';
 405              		.loc 2 302 0 is_stmt 1 discriminator 1
 406 009e A24A     		ldr	r2, .L153
ARM GAS  C:\Users\armst\AppData\Local\Temp\ccNPhHLt.s 			page 16


 407 00a0 1268     		ldr	r2, [r2]
 408 00a2 1A44     		add	r2, r2, r3
 409 00a4 5278     		ldrb	r2, [r2, #1]	@ zero_extendqisi2
 410 00a6 12F0970F 		tst	r2, #151
 411 00aa 05D0     		beq	.L99
 412              		.loc 2 302 0 is_stmt 0
 413 00ac 2C2B     		cmp	r3, #44
 414 00ae 05D0     		beq	.L100
 415 00b0 2A2B     		cmp	r3, #42
 416 00b2 05D1     		bne	.L101
 417 00b4 0022     		movs	r2, #0
 418 00b6 04E0     		b	.L46
 419              	.L99:
 420 00b8 0022     		movs	r2, #0
 421 00ba 02E0     		b	.L46
 422              	.L100:
 423 00bc 0022     		movs	r2, #0
 424 00be 00E0     		b	.L46
 425              	.L101:
 426 00c0 0122     		movs	r2, #1
 427              	.L46:
 428              	.LVL48:
 429              	.LBE42:
 430              	.LBE41:
 431              		.loc 1 132 0 is_stmt 1
 432 00c2 12B9     		cbnz	r2, .L45
 130:minmea.c      **** 
 433              		.loc 1 130 0
 434 00c4 0023     		movs	r3, #0
 435 00c6 00E0     		b	.L45
 436              	.L98:
 437 00c8 0023     		movs	r3, #0
 438              	.L45:
 439              	.LVL49:
 133:minmea.c      ****                     value = *field;
 134:minmea.c      **** 
 135:minmea.c      ****                 *va_arg(ap, char *) = value;
 440              		.loc 1 135 0
 441 00ca 039A     		ldr	r2, [sp, #12]
 442 00cc 111D     		adds	r1, r2, #4
 443 00ce 0391     		str	r1, [sp, #12]
 444 00d0 1268     		ldr	r2, [r2]
 445 00d2 1370     		strb	r3, [r2]
 446              	.LBE40:
 136:minmea.c      ****             } break;
 447              		.loc 1 136 0
 448 00d4 2FE2     		b	.L66
 449              	.LVL50:
 450              	.L40:
 451              	.LBB43:
 137:minmea.c      **** 
 138:minmea.c      ****             case 'd': { // Single character direction field (int).
 139:minmea.c      ****                 int value = 0;
 140:minmea.c      **** 
 141:minmea.c      ****                 if (field && minmea_isfield(*field)) {
 452              		.loc 1 141 0
 453 00d6 77B3     		cbz	r7, .L102
ARM GAS  C:\Users\armst\AppData\Local\Temp\ccNPhHLt.s 			page 17


 454              		.loc 1 141 0 is_stmt 0 discriminator 1
 455 00d8 3B78     		ldrb	r3, [r7]	@ zero_extendqisi2
 456              	.LVL51:
 457              	.LBB44:
 458              	.LBB45:
 459              		.loc 2 302 0 is_stmt 1 discriminator 1
 460 00da 934A     		ldr	r2, .L153
 461 00dc 1268     		ldr	r2, [r2]
 462 00de 1A44     		add	r2, r2, r3
 463 00e0 5278     		ldrb	r2, [r2, #1]	@ zero_extendqisi2
 464 00e2 12F0970F 		tst	r2, #151
 465 00e6 05D0     		beq	.L103
 466              		.loc 2 302 0 is_stmt 0
 467 00e8 2C2B     		cmp	r3, #44
 468 00ea 05D0     		beq	.L104
 469 00ec 2A2B     		cmp	r3, #42
 470 00ee 05D1     		bne	.L105
 471 00f0 0022     		movs	r2, #0
 472 00f2 04E0     		b	.L48
 473              	.L103:
 474 00f4 0022     		movs	r2, #0
 475 00f6 02E0     		b	.L48
 476              	.L104:
 477 00f8 0022     		movs	r2, #0
 478 00fa 00E0     		b	.L48
 479              	.L105:
 480 00fc 0122     		movs	r2, #1
 481              	.L48:
 482              	.LVL52:
 483              	.LBE45:
 484              	.LBE44:
 485              		.loc 1 141 0 is_stmt 1
 486 00fe E2B1     		cbz	r2, .L106
 142:minmea.c      ****                     switch (*field) {
 487              		.loc 1 142 0
 488 0100 453B     		subs	r3, r3, #69
 489 0102 122B     		cmp	r3, #18
 490 0104 00F23E82 		bhi	.L107
 491 0108 DFE813F0 		tbh	[pc, r3, lsl #1]
 492              	.L50:
 493 010c 1300     		.2byte	(.L49-.L50)/2
 494 010e 3C02     		.2byte	(.L107-.L50)/2
 495 0110 3C02     		.2byte	(.L107-.L50)/2
 496 0112 3C02     		.2byte	(.L107-.L50)/2
 497 0114 3C02     		.2byte	(.L107-.L50)/2
 498 0116 3C02     		.2byte	(.L107-.L50)/2
 499 0118 3C02     		.2byte	(.L107-.L50)/2
 500 011a 3C02     		.2byte	(.L107-.L50)/2
 501 011c 3C02     		.2byte	(.L107-.L50)/2
 502 011e 1300     		.2byte	(.L49-.L50)/2
 503 0120 3C02     		.2byte	(.L107-.L50)/2
 504 0122 3C02     		.2byte	(.L107-.L50)/2
 505 0124 3C02     		.2byte	(.L107-.L50)/2
 506 0126 3C02     		.2byte	(.L107-.L50)/2
 507 0128 1900     		.2byte	(.L108-.L50)/2
 508 012a 3C02     		.2byte	(.L107-.L50)/2
 509 012c 3C02     		.2byte	(.L107-.L50)/2
ARM GAS  C:\Users\armst\AppData\Local\Temp\ccNPhHLt.s 			page 18


 510 012e 3C02     		.2byte	(.L107-.L50)/2
 511 0130 1900     		.2byte	(.L108-.L50)/2
 512              		.p2align 1
 513              	.L49:
 143:minmea.c      ****                         case 'N':
 144:minmea.c      ****                         case 'E':
 145:minmea.c      ****                             value = 1;
 514              		.loc 1 145 0
 515 0132 0121     		movs	r1, #1
 516 0134 05E0     		b	.L47
 517              	.L102:
 139:minmea.c      **** 
 518              		.loc 1 139 0
 519 0136 0021     		movs	r1, #0
 520 0138 03E0     		b	.L47
 521              	.L106:
 522 013a 0021     		movs	r1, #0
 523 013c 01E0     		b	.L47
 524              	.L108:
 146:minmea.c      ****                             break;
 147:minmea.c      ****                         case 'S':
 148:minmea.c      ****                         case 'W':
 149:minmea.c      ****                             value = -1;
 525              		.loc 1 149 0
 526 013e 4FF0FF31 		mov	r1, #-1
 527              	.L47:
 528              	.LVL53:
 150:minmea.c      ****                             break;
 151:minmea.c      ****                         default:
 152:minmea.c      ****                             goto parse_error;
 153:minmea.c      ****                     }
 154:minmea.c      ****                 }
 155:minmea.c      **** 
 156:minmea.c      ****                 *va_arg(ap, int *) = value;
 529              		.loc 1 156 0
 530 0142 039B     		ldr	r3, [sp, #12]
 531 0144 1A1D     		adds	r2, r3, #4
 532 0146 0392     		str	r2, [sp, #12]
 533 0148 1B68     		ldr	r3, [r3]
 534 014a 1960     		str	r1, [r3]
 535              	.LBE43:
 157:minmea.c      ****             } break;
 536              		.loc 1 157 0
 537 014c F3E1     		b	.L66
 538              	.LVL54:
 539              	.L41:
 540              	.LBB46:
 158:minmea.c      **** 
 159:minmea.c      ****             case 'f': { // Fractional value with scale (struct minmea_float).
 160:minmea.c      ****                 int sign = 0;
 161:minmea.c      ****                 int_least32_t value = -1;
 162:minmea.c      ****                 int_least32_t scale = 0;
 163:minmea.c      **** 
 164:minmea.c      ****                 if (field) {
 541              		.loc 1 164 0
 542 014e 002F     		cmp	r7, #0
 543 0150 4DD1     		bne	.L109
ARM GAS  C:\Users\armst\AppData\Local\Temp\ccNPhHLt.s 			page 19


 162:minmea.c      **** 
 544              		.loc 1 162 0
 545 0152 0020     		movs	r0, #0
 161:minmea.c      ****                 int_least32_t scale = 0;
 546              		.loc 1 161 0
 547 0154 4FF0FF32 		mov	r2, #-1
 160:minmea.c      ****                 int_least32_t value = -1;
 548              		.loc 1 160 0
 549 0158 8646     		mov	lr, r0
 550 015a 66E0     		b	.L52
 551              	.LVL55:
 552              	.L61:
 165:minmea.c      ****                     while (minmea_isfield(*field)) {
 166:minmea.c      ****                         if (*field == '+' && !sign && value == -1) {
 553              		.loc 1 166 0
 554 015c 2B2B     		cmp	r3, #43
 555 015e 05D1     		bne	.L53
 556              		.loc 1 166 0 is_stmt 0 discriminator 1
 557 0160 BEF1000F 		cmp	lr, #0
 558 0164 02D1     		bne	.L53
 559              		.loc 1 166 0 discriminator 2
 560 0166 B2F1FF3F 		cmp	r2, #-1
 561 016a 37D0     		beq	.L110
 562              	.L53:
 167:minmea.c      ****                             sign = 1;
 168:minmea.c      ****                         } else if (*field == '-' && !sign && value == -1) {
 563              		.loc 1 168 0 is_stmt 1
 564 016c 2D2B     		cmp	r3, #45
 565 016e 05D1     		bne	.L55
 566              		.loc 1 168 0 is_stmt 0 discriminator 1
 567 0170 BEF1000F 		cmp	lr, #0
 568 0174 02D1     		bne	.L55
 569              		.loc 1 168 0 discriminator 2
 570 0176 B2F1FF3F 		cmp	r2, #-1
 571 017a 32D0     		beq	.L111
 572              	.L55:
 169:minmea.c      ****                             sign = -1;
 170:minmea.c      ****                         } else if (isdigit((unsigned char) *field)) {
 573              		.loc 1 170 0 is_stmt 1
 574 017c 11F0040F 		tst	r1, #4
 575 0180 1CD0     		beq	.L56
 576              	.LBB47:
 171:minmea.c      ****                             int digit = *field - '0';
 577              		.loc 1 171 0
 578 0182 303B     		subs	r3, r3, #48
 579              	.LVL56:
 172:minmea.c      ****                             if (value == -1)
 580              		.loc 1 172 0
 581 0184 B2F1FF3F 		cmp	r2, #-1
 582 0188 00D1     		bne	.L57
 173:minmea.c      ****                                 value = 0;
 583              		.loc 1 173 0
 584 018a 0022     		movs	r2, #0
 585              	.LVL57:
 586              	.L57:
 174:minmea.c      ****                             if (value > (INT_LEAST32_MAX-digit) / 10) {
 587              		.loc 1 174 0
ARM GAS  C:\Users\armst\AppData\Local\Temp\ccNPhHLt.s 			page 20


 588 018c 6FF00041 		mvn	r1, #-2147483648
 589 0190 C91A     		subs	r1, r1, r3
 590 0192 DFF898C1 		ldr	ip, .L153+4
 591 0196 8CFB018C 		smull	r8, ip, ip, r1
 592 019a C917     		asrs	r1, r1, #31
 593 019c C1EBAC01 		rsb	r1, r1, ip, asr #2
 594 01a0 8A42     		cmp	r2, r1
 595 01a2 02DD     		ble	.L58
 175:minmea.c      ****                                 /* we ran out of bits, what do we do? */
 176:minmea.c      ****                                 if (scale) {
 596              		.loc 1 176 0
 597 01a4 0028     		cmp	r0, #0
 598 01a6 40D1     		bne	.L52
 599 01a8 FFE1     		b	.L30
 600              	.L58:
 177:minmea.c      ****                                     /* truncate extra precision */
 178:minmea.c      ****                                     break;
 179:minmea.c      ****                                 } else {
 180:minmea.c      ****                                     /* integer overflow. bail out. */
 181:minmea.c      ****                                     goto parse_error;
 182:minmea.c      ****                                 }
 183:minmea.c      ****                             }
 184:minmea.c      ****                             value = (10 * value) + digit;
 601              		.loc 1 184 0
 602 01aa 02EB8202 		add	r2, r2, r2, lsl #2
 603              	.LVL58:
 604 01ae 5100     		lsls	r1, r2, #1
 605 01b0 5A18     		adds	r2, r3, r1
 606              	.LVL59:
 185:minmea.c      ****                             if (scale)
 607              		.loc 1 185 0
 608 01b2 D0B1     		cbz	r0, .L54
 186:minmea.c      ****                                 scale *= 10;
 609              		.loc 1 186 0
 610 01b4 00EB8003 		add	r3, r0, r0, lsl #2
 611              	.LVL60:
 612 01b8 5800     		lsls	r0, r3, #1
 613              	.LVL61:
 614 01ba 16E0     		b	.L54
 615              	.LVL62:
 616              	.L56:
 617              	.LBE47:
 187:minmea.c      ****                         } else if (*field == '.' && scale == 0) {
 618              		.loc 1 187 0
 619 01bc 2E2B     		cmp	r3, #46
 620 01be 00D1     		bne	.L59
 621              		.loc 1 187 0 is_stmt 0 discriminator 1
 622 01c0 90B1     		cbz	r0, .L113
 623              	.L59:
 188:minmea.c      ****                             scale = 1;
 189:minmea.c      ****                         } else if (*field == ' ') {
 624              		.loc 1 189 0 is_stmt 1
 625 01c2 202B     		cmp	r3, #32
 626 01c4 40F0E081 		bne	.L114
 190:minmea.c      ****                             /* Allow spaces at the start of the field. Not NMEA
 191:minmea.c      ****                              * conformant, but some modules do this. */
 192:minmea.c      ****                             if (sign != 0 || value != -1 || scale != 0)
ARM GAS  C:\Users\armst\AppData\Local\Temp\ccNPhHLt.s 			page 21


 627              		.loc 1 192 0
 628 01c8 BEF1000F 		cmp	lr, #0
 629 01cc 40F0DE81 		bne	.L115
 630              		.loc 1 192 0 is_stmt 0 discriminator 1
 631 01d0 B2F1FF3F 		cmp	r2, #-1
 632 01d4 40F0DC81 		bne	.L116
 633              		.loc 1 192 0 discriminator 2
 634 01d8 38B1     		cbz	r0, .L54
 635              	.LBE46:
 636              	.LBE39:
 637 01da DBE1     		b	.L117
 638              	.L110:
 639              	.LBB83:
 640              	.LBB50:
 167:minmea.c      ****                         } else if (*field == '-' && !sign && value == -1) {
 641              		.loc 1 167 0 is_stmt 1
 642 01dc 4FF0010E 		mov	lr, #1
 643              	.LVL63:
 644 01e0 03E0     		b	.L54
 645              	.LVL64:
 646              	.L111:
 169:minmea.c      ****                         } else if (isdigit((unsigned char) *field)) {
 647              		.loc 1 169 0
 648 01e2 4FF0FF3E 		mov	lr, #-1
 649              	.LVL65:
 650 01e6 00E0     		b	.L54
 651              	.LVL66:
 652              	.L113:
 188:minmea.c      ****                         } else if (*field == ' ') {
 653              		.loc 1 188 0
 654 01e8 0120     		movs	r0, #1
 655              	.LVL67:
 656              	.L54:
 193:minmea.c      ****                                 goto parse_error;
 194:minmea.c      ****                         } else {
 195:minmea.c      ****                             goto parse_error;
 196:minmea.c      ****                         }
 197:minmea.c      ****                         field++;
 657              		.loc 1 197 0
 658 01ea 0137     		adds	r7, r7, #1
 659              	.LVL68:
 660 01ec 03E0     		b	.L51
 661              	.LVL69:
 662              	.L109:
 663 01ee 0020     		movs	r0, #0
 664 01f0 4FF0FF32 		mov	r2, #-1
 665 01f4 8646     		mov	lr, r0
 666              	.LVL70:
 667              	.L51:
 165:minmea.c      ****                         if (*field == '+' && !sign && value == -1) {
 668              		.loc 1 165 0
 669 01f6 3B78     		ldrb	r3, [r7]	@ zero_extendqisi2
 670              	.LVL71:
 671              	.LBB48:
 672              	.LBB49:
 673              		.loc 2 302 0
 674 01f8 4B49     		ldr	r1, .L153
ARM GAS  C:\Users\armst\AppData\Local\Temp\ccNPhHLt.s 			page 22


 675 01fa 0968     		ldr	r1, [r1]
 676 01fc 1944     		add	r1, r1, r3
 677 01fe 4978     		ldrb	r1, [r1, #1]	@ zero_extendqisi2
 678 0200 11F0970F 		tst	r1, #151
 679 0204 06D0     		beq	.L118
 680 0206 2C2B     		cmp	r3, #44
 681 0208 07D0     		beq	.L119
 682 020a 2A2B     		cmp	r3, #42
 683 020c 08D1     		bne	.L120
 684 020e 4FF0000C 		mov	ip, #0
 685 0212 07E0     		b	.L60
 686              	.L118:
 687 0214 4FF0000C 		mov	ip, #0
 688 0218 04E0     		b	.L60
 689              	.L119:
 690 021a 4FF0000C 		mov	ip, #0
 691 021e 01E0     		b	.L60
 692              	.L120:
 693 0220 4FF0010C 		mov	ip, #1
 694              	.L60:
 695              	.LVL72:
 696              	.LBE49:
 697              	.LBE48:
 165:minmea.c      ****                         if (*field == '+' && !sign && value == -1) {
 698              		.loc 1 165 0
 699 0224 BCF1000F 		cmp	ip, #0
 700 0228 98D1     		bne	.L61
 701              	.LVL73:
 702              	.L52:
 198:minmea.c      ****                     }
 199:minmea.c      ****                 }
 200:minmea.c      **** 
 201:minmea.c      ****                 if ((sign || scale) && value == -1)
 703              		.loc 1 201 0
 704 022a BEF1000F 		cmp	lr, #0
 705 022e 00D1     		bne	.L62
 706              		.loc 1 201 0 is_stmt 0 discriminator 2
 707 0230 18B1     		cbz	r0, .L63
 708              	.L62:
 709              		.loc 1 201 0 discriminator 3
 710 0232 B2F1FF3F 		cmp	r2, #-1
 711 0236 00F0AF81 		beq	.L121
 712              	.L63:
 202:minmea.c      ****                     goto parse_error;
 203:minmea.c      **** 
 204:minmea.c      ****                 if (value == -1) {
 713              		.loc 1 204 0 is_stmt 1
 714 023a B2F1FF3F 		cmp	r2, #-1
 715 023e 01D0     		beq	.L122
 205:minmea.c      ****                     /* No digits were scanned. */
 206:minmea.c      ****                     value = 0;
 207:minmea.c      ****                     scale = 0;
 208:minmea.c      ****                 } else if (scale == 0) {
 716              		.loc 1 208 0
 717 0240 18B1     		cbz	r0, .L123
 718 0242 03E0     		b	.L64
 719              	.L122:
ARM GAS  C:\Users\armst\AppData\Local\Temp\ccNPhHLt.s 			page 23


 207:minmea.c      ****                 } else if (scale == 0) {
 720              		.loc 1 207 0
 721 0244 0020     		movs	r0, #0
 722              	.LVL74:
 206:minmea.c      ****                     scale = 0;
 723              		.loc 1 206 0
 724 0246 0246     		mov	r2, r0
 725              	.LVL75:
 726 0248 00E0     		b	.L64
 727              	.LVL76:
 728              	.L123:
 209:minmea.c      ****                     /* No decimal point. */
 210:minmea.c      ****                     scale = 1;
 729              		.loc 1 210 0
 730 024a 0120     		movs	r0, #1
 731              	.LVL77:
 732              	.L64:
 211:minmea.c      ****                 }
 212:minmea.c      ****                 if (sign)
 733              		.loc 1 212 0
 734 024c BEF1000F 		cmp	lr, #0
 735 0250 01D0     		beq	.L65
 213:minmea.c      ****                     value *= sign;
 736              		.loc 1 213 0
 737 0252 0EFB02F2 		mul	r2, lr, r2
 738              	.LVL78:
 739              	.L65:
 214:minmea.c      **** 
 215:minmea.c      ****                 *va_arg(ap, struct minmea_float *) = (struct minmea_float) {value, scale};
 740              		.loc 1 215 0
 741 0256 039B     		ldr	r3, [sp, #12]
 742 0258 191D     		adds	r1, r3, #4
 743 025a 0391     		str	r1, [sp, #12]
 744 025c 1B68     		ldr	r3, [r3]
 745 025e 1A60     		str	r2, [r3]
 746 0260 5860     		str	r0, [r3, #4]
 747              	.LBE50:
 216:minmea.c      ****             } break;
 748              		.loc 1 216 0
 749 0262 68E1     		b	.L66
 750              	.LVL79:
 751              	.L42:
 752              	.LBB51:
 217:minmea.c      **** 
 218:minmea.c      ****             case 'i': { // Integer value, default 0 (int).
 219:minmea.c      ****                 int value = 0;
 220:minmea.c      **** 
 221:minmea.c      ****                 if (field) {
 753              		.loc 1 221 0
 754 0264 DFB1     		cbz	r7, .L124
 755              	.LBB52:
 222:minmea.c      ****                     char *endptr;
 223:minmea.c      ****                     value = strtol(field, &endptr, 10);
 756              		.loc 1 223 0
 757 0266 0A22     		movs	r2, #10
 758 0268 02A9     		add	r1, sp, #8
 759 026a 3846     		mov	r0, r7
ARM GAS  C:\Users\armst\AppData\Local\Temp\ccNPhHLt.s 			page 24


 760 026c FFF7FEFF 		bl	strtol
 761              	.LVL80:
 224:minmea.c      ****                     if (minmea_isfield(*endptr))
 762              		.loc 1 224 0
 763 0270 029B     		ldr	r3, [sp, #8]
 764 0272 1A78     		ldrb	r2, [r3]	@ zero_extendqisi2
 765              	.LVL81:
 766              	.LBB53:
 767              	.LBB54:
 768              		.loc 2 302 0
 769 0274 2C4B     		ldr	r3, .L153
 770 0276 1B68     		ldr	r3, [r3]
 771 0278 1344     		add	r3, r3, r2
 772 027a 5B78     		ldrb	r3, [r3, #1]	@ zero_extendqisi2
 773 027c 13F0970F 		tst	r3, #151
 774 0280 05D0     		beq	.L125
 775 0282 2C2A     		cmp	r2, #44
 776 0284 05D0     		beq	.L126
 777 0286 2A2A     		cmp	r2, #42
 778 0288 05D1     		bne	.L127
 779 028a 0023     		movs	r3, #0
 780 028c 04E0     		b	.L68
 781              	.L125:
 782 028e 0023     		movs	r3, #0
 783 0290 02E0     		b	.L68
 784              	.L126:
 785 0292 0023     		movs	r3, #0
 786 0294 00E0     		b	.L68
 787              	.L127:
 788 0296 0123     		movs	r3, #1
 789              	.L68:
 790              	.LVL82:
 791              	.LBE54:
 792              	.LBE53:
 793              		.loc 1 224 0
 794 0298 13B1     		cbz	r3, .L67
 795              	.LBE52:
 796              	.LBE51:
 797              	.LBE83:
  90:minmea.c      ****     bool optional = false;
 798              		.loc 1 90 0
 799 029a 0020     		movs	r0, #0
 800              	.LVL83:
 801 029c 85E1     		b	.L30
 802              	.LVL84:
 803              	.L124:
 804              	.LBB84:
 805              	.LBB55:
 219:minmea.c      **** 
 806              		.loc 1 219 0
 807 029e 0020     		movs	r0, #0
 808              	.LVL85:
 809              	.L67:
 225:minmea.c      ****                         goto parse_error;
 226:minmea.c      ****                 }
 227:minmea.c      **** 
 228:minmea.c      ****                 *va_arg(ap, int *) = value;
ARM GAS  C:\Users\armst\AppData\Local\Temp\ccNPhHLt.s 			page 25


 810              		.loc 1 228 0
 811 02a0 039B     		ldr	r3, [sp, #12]
 812 02a2 1A1D     		adds	r2, r3, #4
 813 02a4 0392     		str	r2, [sp, #12]
 814 02a6 1B68     		ldr	r3, [r3]
 815 02a8 1860     		str	r0, [r3]
 816              	.LBE55:
 229:minmea.c      ****             } break;
 817              		.loc 1 229 0
 818 02aa 44E1     		b	.L66
 819              	.LVL86:
 820              	.L43:
 821              	.LBB56:
 230:minmea.c      **** 
 231:minmea.c      ****             case 's': { // String value (char *).
 232:minmea.c      ****                 char *buf = va_arg(ap, char *);
 822              		.loc 1 232 0
 823 02ac 039B     		ldr	r3, [sp, #12]
 824 02ae 1A1D     		adds	r2, r3, #4
 825 02b0 0392     		str	r2, [sp, #12]
 826 02b2 1968     		ldr	r1, [r3]
 827              	.LVL87:
 233:minmea.c      **** 
 234:minmea.c      ****                 if (field) {
 828              		.loc 1 234 0
 829 02b4 1FB9     		cbnz	r7, .L70
 830 02b6 17E0     		b	.L71
 831              	.L73:
 832              	.LVL88:
 235:minmea.c      ****                     while (minmea_isfield(*field))
 236:minmea.c      ****                         *buf++ = *field++;
 833              		.loc 1 236 0
 834 02b8 0137     		adds	r7, r7, #1
 835              	.LVL89:
 836 02ba 0A70     		strb	r2, [r1]
 837 02bc 0131     		adds	r1, r1, #1
 838              	.LVL90:
 839              	.L70:
 235:minmea.c      ****                     while (minmea_isfield(*field))
 840              		.loc 1 235 0
 841 02be 3A78     		ldrb	r2, [r7]	@ zero_extendqisi2
 842              	.LVL91:
 843              	.LBB57:
 844              	.LBB58:
 845              		.loc 2 302 0
 846 02c0 194B     		ldr	r3, .L153
 847 02c2 1B68     		ldr	r3, [r3]
 848 02c4 1344     		add	r3, r3, r2
 849 02c6 5B78     		ldrb	r3, [r3, #1]	@ zero_extendqisi2
 850 02c8 13F0970F 		tst	r3, #151
 851 02cc 05D0     		beq	.L128
 852 02ce 2C2A     		cmp	r2, #44
 853 02d0 05D0     		beq	.L129
 854 02d2 2A2A     		cmp	r2, #42
 855 02d4 05D1     		bne	.L130
 856 02d6 0023     		movs	r3, #0
 857 02d8 04E0     		b	.L72
ARM GAS  C:\Users\armst\AppData\Local\Temp\ccNPhHLt.s 			page 26


 858              	.L128:
 859 02da 0023     		movs	r3, #0
 860 02dc 02E0     		b	.L72
 861              	.L129:
 862 02de 0023     		movs	r3, #0
 863 02e0 00E0     		b	.L72
 864              	.L130:
 865 02e2 0123     		movs	r3, #1
 866              	.L72:
 867              	.LVL92:
 868              	.LBE58:
 869              	.LBE57:
 235:minmea.c      ****                     while (minmea_isfield(*field))
 870              		.loc 1 235 0
 871 02e4 002B     		cmp	r3, #0
 872 02e6 E7D1     		bne	.L73
 873              	.L71:
 237:minmea.c      ****                 }
 238:minmea.c      **** 
 239:minmea.c      ****                 *buf = '\0';
 874              		.loc 1 239 0
 875 02e8 0023     		movs	r3, #0
 876 02ea 0B70     		strb	r3, [r1]
 877              	.LBE56:
 240:minmea.c      ****             } break;
 878              		.loc 1 240 0
 879 02ec 23E1     		b	.L66
 880              	.LVL93:
 881              	.L44:
 882              	.LBB59:
 241:minmea.c      **** 
 242:minmea.c      ****             case 't': { // NMEA talker+sentence identifier (char *).
 243:minmea.c      ****                 // This field is always mandatory.
 244:minmea.c      ****                 if (!field)
 883              		.loc 1 244 0
 884 02ee 002F     		cmp	r7, #0
 885 02f0 00F05481 		beq	.L131
 245:minmea.c      ****                     goto parse_error;
 246:minmea.c      **** 
 247:minmea.c      ****                 if (field[0] != '$')
 886              		.loc 1 247 0
 887 02f4 3B78     		ldrb	r3, [r7]	@ zero_extendqisi2
 888 02f6 242B     		cmp	r3, #36
 889 02f8 40F05281 		bne	.L132
 890 02fc 0023     		movs	r3, #0
 891 02fe 1BE0     		b	.L74
 892              	.LVL94:
 893              	.L76:
 894              	.LBB60:
 248:minmea.c      ****                     goto parse_error;
 249:minmea.c      ****                 for (int f=0; f<5; f++)
 250:minmea.c      ****                     if (!minmea_isfield(field[1+f]))
 895              		.loc 1 250 0
 896 0300 0133     		adds	r3, r3, #1
 897              	.LVL95:
 898 0302 F95C     		ldrb	r1, [r7, r3]	@ zero_extendqisi2
 899              	.LVL96:
ARM GAS  C:\Users\armst\AppData\Local\Temp\ccNPhHLt.s 			page 27


 900              	.LBB61:
 901              	.LBB62:
 902              		.loc 2 302 0
 903 0304 084A     		ldr	r2, .L153
 904 0306 1268     		ldr	r2, [r2]
 905 0308 0A44     		add	r2, r2, r1
 906 030a 5278     		ldrb	r2, [r2, #1]	@ zero_extendqisi2
 907 030c 12F0970F 		tst	r2, #151
 908 0310 05D0     		beq	.L133
 909 0312 2C29     		cmp	r1, #44
 910 0314 05D0     		beq	.L134
 911 0316 2A29     		cmp	r1, #42
 912 0318 0AD1     		bne	.L135
 913 031a 0022     		movs	r2, #0
 914 031c 09E0     		b	.L75
 915              	.L133:
 916 031e 0022     		movs	r2, #0
 917 0320 07E0     		b	.L75
 918              	.L134:
 919 0322 0022     		movs	r2, #0
 920 0324 05E0     		b	.L75
 921              	.L154:
 922 0326 00BF     		.align	2
 923              	.L153:
 924 0328 00000000 		.word	__ctype_ptr__
 925 032c 67666666 		.word	1717986919
 926              	.L135:
 927 0330 0122     		movs	r2, #1
 928              	.L75:
 929              	.LVL97:
 930              	.LBE62:
 931              	.LBE61:
 932              		.loc 1 250 0
 933 0332 002A     		cmp	r2, #0
 934 0334 00F03681 		beq	.L136
 935              	.LVL98:
 936              	.L74:
 249:minmea.c      ****                     if (!minmea_isfield(field[1+f]))
 937              		.loc 1 249 0 discriminator 1
 938 0338 042B     		cmp	r3, #4
 939 033a E1DD     		ble	.L76
 940              	.LBE60:
 251:minmea.c      ****                         goto parse_error;
 252:minmea.c      **** 
 253:minmea.c      ****                 char *buf = va_arg(ap, char *);
 941              		.loc 1 253 0
 942 033c 039B     		ldr	r3, [sp, #12]
 943              	.LVL99:
 944 033e 1A1D     		adds	r2, r3, #4
 945 0340 0392     		str	r2, [sp, #12]
 946 0342 1B68     		ldr	r3, [r3]
 947              	.LVL100:
 254:minmea.c      ****                 memcpy(buf, field+1, 5);
 948              		.loc 1 254 0
 949 0344 57F8012F 		ldr	r2, [r7, #1]!	@ unaligned
 950              	.LVL101:
 951 0348 1A60     		str	r2, [r3]	@ unaligned
ARM GAS  C:\Users\armst\AppData\Local\Temp\ccNPhHLt.s 			page 28


 952 034a 3A79     		ldrb	r2, [r7, #4]	@ zero_extendqisi2
 953 034c 1A71     		strb	r2, [r3, #4]
 255:minmea.c      ****                 buf[5] = '\0';
 954              		.loc 1 255 0
 955 034e 0022     		movs	r2, #0
 956 0350 5A71     		strb	r2, [r3, #5]
 957              	.LBE59:
 256:minmea.c      ****             } break;
 958              		.loc 1 256 0
 959 0352 F0E0     		b	.L66
 960              	.LVL102:
 961              	.L35:
 962              	.LBB63:
 257:minmea.c      **** 
 258:minmea.c      ****             case 'D': { // Date (int, int, int), -1 if empty.
 259:minmea.c      ****                 struct minmea_date *date = va_arg(ap, struct minmea_date *);
 963              		.loc 1 259 0
 964 0354 039B     		ldr	r3, [sp, #12]
 965 0356 1A1D     		adds	r2, r3, #4
 966 0358 0392     		str	r2, [sp, #12]
 967 035a D3F80080 		ldr	r8, [r3]
 968              	.LVL103:
 260:minmea.c      **** 
 261:minmea.c      ****                 int d = -1, m = -1, y = -1;
 262:minmea.c      **** 
 263:minmea.c      ****                 if (field && minmea_isfield(*field)) {
 969              		.loc 1 263 0
 970 035e 002F     		cmp	r7, #0
 971 0360 50D0     		beq	.L137
 972              		.loc 1 263 0 is_stmt 0 discriminator 1
 973 0362 3878     		ldrb	r0, [r7]	@ zero_extendqisi2
 974              	.LVL104:
 975              	.LBB64:
 976              	.LBB65:
 977              		.loc 2 302 0 is_stmt 1 discriminator 1
 978 0364 934B     		ldr	r3, .L155
 979 0366 1968     		ldr	r1, [r3]
 980 0368 0B18     		adds	r3, r1, r0
 981 036a 5B78     		ldrb	r3, [r3, #1]	@ zero_extendqisi2
 982 036c 13F0970F 		tst	r3, #151
 983 0370 05D0     		beq	.L138
 984              		.loc 2 302 0 is_stmt 0
 985 0372 2C28     		cmp	r0, #44
 986 0374 05D0     		beq	.L139
 987 0376 2A28     		cmp	r0, #42
 988 0378 05D1     		bne	.L140
 989 037a 0023     		movs	r3, #0
 990 037c 04E0     		b	.L78
 991              	.L138:
 992 037e 0023     		movs	r3, #0
 993 0380 02E0     		b	.L78
 994              	.L139:
 995 0382 0023     		movs	r3, #0
 996 0384 00E0     		b	.L78
 997              	.L140:
 998 0386 0123     		movs	r3, #1
 999              	.L78:
ARM GAS  C:\Users\armst\AppData\Local\Temp\ccNPhHLt.s 			page 29


 1000              	.LVL105:
 1001              	.LBE65:
 1002              	.LBE64:
 1003              		.loc 1 263 0 is_stmt 1
 1004 0388 63B9     		cbnz	r3, .L141
 261:minmea.c      **** 
 1005              		.loc 1 261 0
 1006 038a 4FF0FF30 		mov	r0, #-1
 1007 038e 0746     		mov	r7, r0
 1008              	.LVL106:
 1009 0390 8246     		mov	r10, r0
 1010 0392 3BE0     		b	.L77
 1011              	.LVL107:
 1012              	.L81:
 1013              	.LBB66:
 1014              	.LBB67:
 264:minmea.c      ****                     // Always six digits.
 265:minmea.c      ****                     for (int f=0; f<6; f++)
 266:minmea.c      ****                         if (!isdigit((unsigned char) field[f]))
 1015              		.loc 1 266 0
 1016 0394 FA5C     		ldrb	r2, [r7, r3]	@ zero_extendqisi2
 1017 0396 0A44     		add	r2, r2, r1
 1018 0398 5278     		ldrb	r2, [r2, #1]	@ zero_extendqisi2
 1019 039a 12F0040F 		tst	r2, #4
 1020 039e 2FD0     		beq	.L80
 265:minmea.c      ****                         if (!isdigit((unsigned char) field[f]))
 1021              		.loc 1 265 0 discriminator 2
 1022 03a0 0133     		adds	r3, r3, #1
 1023              	.LVL108:
 1024 03a2 00E0     		b	.L79
 1025              	.LVL109:
 1026              	.L141:
 1027              	.LBE67:
 1028              	.LBE66:
 1029 03a4 0023     		movs	r3, #0
 1030              	.L79:
 1031              	.LVL110:
 1032              	.LBB69:
 1033              	.LBB68:
 265:minmea.c      ****                         if (!isdigit((unsigned char) field[f]))
 1034              		.loc 1 265 0 is_stmt 0 discriminator 1
 1035 03a6 052B     		cmp	r3, #5
 1036 03a8 F4DD     		ble	.L81
 1037              	.LBE68:
 267:minmea.c      ****                             goto parse_error;
 268:minmea.c      **** 
 269:minmea.c      ****                     char dArr[] = {field[0], field[1], '\0'};
 1038              		.loc 1 269 0 is_stmt 1
 1039 03aa 8DF80000 		strb	r0, [sp]
 1040 03ae 7B78     		ldrb	r3, [r7, #1]	@ zero_extendqisi2
 1041              	.LVL111:
 1042 03b0 8DF80130 		strb	r3, [sp, #1]
 1043 03b4 4FF00009 		mov	r9, #0
 1044 03b8 8DF80290 		strb	r9, [sp, #2]
 270:minmea.c      ****                     char mArr[] = {field[2], field[3], '\0'};
 1045              		.loc 1 270 0
 1046 03bc BB78     		ldrb	r3, [r7, #2]	@ zero_extendqisi2
ARM GAS  C:\Users\armst\AppData\Local\Temp\ccNPhHLt.s 			page 30


 1047 03be 8DF80430 		strb	r3, [sp, #4]
 1048 03c2 FB78     		ldrb	r3, [r7, #3]	@ zero_extendqisi2
 1049 03c4 8DF80530 		strb	r3, [sp, #5]
 1050 03c8 8DF80690 		strb	r9, [sp, #6]
 271:minmea.c      ****                     char yArr[] = {field[4], field[5], '\0'};
 1051              		.loc 1 271 0
 1052 03cc 3B79     		ldrb	r3, [r7, #4]	@ zero_extendqisi2
 1053 03ce 8DF80830 		strb	r3, [sp, #8]
 1054 03d2 7B79     		ldrb	r3, [r7, #5]	@ zero_extendqisi2
 1055 03d4 8DF80930 		strb	r3, [sp, #9]
 1056 03d8 8DF80A90 		strb	r9, [sp, #10]
 272:minmea.c      ****                     d = strtol(dArr, NULL, 10);
 1057              		.loc 1 272 0
 1058 03dc 0A22     		movs	r2, #10
 1059 03de 4946     		mov	r1, r9
 1060 03e0 6846     		mov	r0, sp
 1061 03e2 FFF7FEFF 		bl	strtol
 1062              	.LVL112:
 1063 03e6 8246     		mov	r10, r0
 1064              	.LVL113:
 273:minmea.c      ****                     m = strtol(mArr, NULL, 10);
 1065              		.loc 1 273 0
 1066 03e8 0A22     		movs	r2, #10
 1067 03ea 4946     		mov	r1, r9
 1068 03ec 01A8     		add	r0, sp, #4
 1069              	.LVL114:
 1070 03ee FFF7FEFF 		bl	strtol
 1071              	.LVL115:
 1072 03f2 0746     		mov	r7, r0
 1073              	.LVL116:
 274:minmea.c      ****                     y = strtol(yArr, NULL, 10);
 1074              		.loc 1 274 0
 1075 03f4 0A22     		movs	r2, #10
 1076 03f6 4946     		mov	r1, r9
 1077 03f8 02A8     		add	r0, sp, #8
 1078              	.LVL117:
 1079 03fa FFF7FEFF 		bl	strtol
 1080              	.LVL118:
 1081 03fe 05E0     		b	.L77
 1082              	.LVL119:
 1083              	.L80:
 1084              	.LBE69:
 1085              	.LBE63:
 1086              	.LBE84:
  90:minmea.c      ****     bool optional = false;
 1087              		.loc 1 90 0
 1088 0400 0020     		movs	r0, #0
 1089 0402 D2E0     		b	.L30
 1090              	.LVL120:
 1091              	.L137:
 1092              	.LBB85:
 1093              	.LBB70:
 261:minmea.c      **** 
 1094              		.loc 1 261 0
 1095 0404 4FF0FF30 		mov	r0, #-1
 1096 0408 0746     		mov	r7, r0
 1097              	.LVL121:
ARM GAS  C:\Users\armst\AppData\Local\Temp\ccNPhHLt.s 			page 31


 1098 040a 8246     		mov	r10, r0
 1099              	.LVL122:
 1100              	.L77:
 275:minmea.c      ****                 }
 276:minmea.c      **** 
 277:minmea.c      ****                 date->day = d;
 1101              		.loc 1 277 0
 1102 040c C8F800A0 		str	r10, [r8]
 278:minmea.c      ****                 date->month = m;
 1103              		.loc 1 278 0
 1104 0410 C8F80470 		str	r7, [r8, #4]
 279:minmea.c      ****                 date->year = y;
 1105              		.loc 1 279 0
 1106 0414 C8F80800 		str	r0, [r8, #8]
 1107              	.LBE70:
 280:minmea.c      ****             } break;
 1108              		.loc 1 280 0
 1109 0418 8DE0     		b	.L66
 1110              	.LVL123:
 1111              	.L37:
 1112              	.LBB71:
 281:minmea.c      **** 
 282:minmea.c      ****             case 'T': { // Time (int, int, int, int), -1 if empty.
 283:minmea.c      ****                 struct minmea_time *time_ = va_arg(ap, struct minmea_time *);
 1113              		.loc 1 283 0
 1114 041a 039B     		ldr	r3, [sp, #12]
 1115 041c 1A1D     		adds	r2, r3, #4
 1116 041e 0392     		str	r2, [sp, #12]
 1117 0420 D3F80080 		ldr	r8, [r3]
 1118              	.LVL124:
 284:minmea.c      **** 
 285:minmea.c      ****                 int h = -1, i = -1, s = -1, u = -1;
 286:minmea.c      **** 
 287:minmea.c      ****                 if (field && minmea_isfield(*field)) {
 1119              		.loc 1 287 0
 1120 0424 002F     		cmp	r7, #0
 1121 0426 77D0     		beq	.L142
 1122              		.loc 1 287 0 is_stmt 0 discriminator 1
 1123 0428 3878     		ldrb	r0, [r7]	@ zero_extendqisi2
 1124              	.LVL125:
 1125              	.LBB72:
 1126              	.LBB73:
 1127              		.loc 2 302 0 is_stmt 1 discriminator 1
 1128 042a 624B     		ldr	r3, .L155
 1129 042c 1968     		ldr	r1, [r3]
 1130 042e 0B18     		adds	r3, r1, r0
 1131 0430 5B78     		ldrb	r3, [r3, #1]	@ zero_extendqisi2
 1132 0432 13F0970F 		tst	r3, #151
 1133 0436 05D0     		beq	.L143
 1134              		.loc 2 302 0 is_stmt 0
 1135 0438 2C28     		cmp	r0, #44
 1136 043a 05D0     		beq	.L144
 1137 043c 2A28     		cmp	r0, #42
 1138 043e 05D1     		bne	.L145
 1139 0440 0023     		movs	r3, #0
 1140 0442 04E0     		b	.L83
 1141              	.L143:
ARM GAS  C:\Users\armst\AppData\Local\Temp\ccNPhHLt.s 			page 32


 1142 0444 0023     		movs	r3, #0
 1143 0446 02E0     		b	.L83
 1144              	.L144:
 1145 0448 0023     		movs	r3, #0
 1146 044a 00E0     		b	.L83
 1147              	.L145:
 1148 044c 0123     		movs	r3, #1
 1149              	.L83:
 1150              	.LVL126:
 1151              	.LBE73:
 1152              	.LBE72:
 1153              		.loc 1 287 0 is_stmt 1
 1154 044e 6BB9     		cbnz	r3, .L146
 285:minmea.c      **** 
 1155              		.loc 1 285 0
 1156 0450 4FF0FF33 		mov	r3, #-1
 1157 0454 1846     		mov	r0, r3
 1158 0456 9946     		mov	r9, r3
 1159 0458 9A46     		mov	r10, r3
 1160 045a 62E0     		b	.L82
 1161              	.LVL127:
 1162              	.L86:
 1163              	.LBB74:
 1164              	.LBB75:
 288:minmea.c      ****                     // Minimum required: integer time.
 289:minmea.c      ****                     for (int f=0; f<6; f++)
 290:minmea.c      ****                         if (!isdigit((unsigned char) field[f]))
 1165              		.loc 1 290 0
 1166 045c FA5C     		ldrb	r2, [r7, r3]	@ zero_extendqisi2
 1167 045e 0A44     		add	r2, r2, r1
 1168 0460 5278     		ldrb	r2, [r2, #1]	@ zero_extendqisi2
 1169 0462 12F0040F 		tst	r2, #4
 1170 0466 55D0     		beq	.L85
 289:minmea.c      ****                         if (!isdigit((unsigned char) field[f]))
 1171              		.loc 1 289 0 discriminator 2
 1172 0468 0133     		adds	r3, r3, #1
 1173              	.LVL128:
 1174 046a 00E0     		b	.L84
 1175              	.LVL129:
 1176              	.L146:
 1177              	.LBE75:
 1178              	.LBE74:
 1179 046c 0023     		movs	r3, #0
 1180              	.L84:
 1181              	.LVL130:
 1182              	.LBB79:
 1183              	.LBB76:
 289:minmea.c      ****                         if (!isdigit((unsigned char) field[f]))
 1184              		.loc 1 289 0 is_stmt 0 discriminator 1
 1185 046e 052B     		cmp	r3, #5
 1186 0470 F4DD     		ble	.L86
 1187              	.LBE76:
 291:minmea.c      ****                             goto parse_error;
 292:minmea.c      **** 
 293:minmea.c      ****                     char hArr[] = {field[0], field[1], '\0'};
 1188              		.loc 1 293 0 is_stmt 1
 1189 0472 8DF80000 		strb	r0, [sp]
ARM GAS  C:\Users\armst\AppData\Local\Temp\ccNPhHLt.s 			page 33


 1190 0476 7B78     		ldrb	r3, [r7, #1]	@ zero_extendqisi2
 1191              	.LVL131:
 1192 0478 8DF80130 		strb	r3, [sp, #1]
 1193 047c 4FF0000B 		mov	fp, #0
 1194 0480 8DF802B0 		strb	fp, [sp, #2]
 294:minmea.c      ****                     char iArr[] = {field[2], field[3], '\0'};
 1195              		.loc 1 294 0
 1196 0484 BB78     		ldrb	r3, [r7, #2]	@ zero_extendqisi2
 1197 0486 8DF80430 		strb	r3, [sp, #4]
 1198 048a FB78     		ldrb	r3, [r7, #3]	@ zero_extendqisi2
 1199 048c 8DF80530 		strb	r3, [sp, #5]
 1200 0490 8DF806B0 		strb	fp, [sp, #6]
 295:minmea.c      ****                     char sArr[] = {field[4], field[5], '\0'};
 1201              		.loc 1 295 0
 1202 0494 3B79     		ldrb	r3, [r7, #4]	@ zero_extendqisi2
 1203 0496 8DF80830 		strb	r3, [sp, #8]
 1204 049a 7B79     		ldrb	r3, [r7, #5]	@ zero_extendqisi2
 1205 049c 8DF80930 		strb	r3, [sp, #9]
 1206 04a0 8DF80AB0 		strb	fp, [sp, #10]
 296:minmea.c      ****                     h = strtol(hArr, NULL, 10);
 1207              		.loc 1 296 0
 1208 04a4 0A22     		movs	r2, #10
 1209 04a6 5946     		mov	r1, fp
 1210 04a8 6846     		mov	r0, sp
 1211 04aa FFF7FEFF 		bl	strtol
 1212              	.LVL132:
 1213 04ae 8246     		mov	r10, r0
 1214              	.LVL133:
 297:minmea.c      ****                     i = strtol(iArr, NULL, 10);
 1215              		.loc 1 297 0
 1216 04b0 0A22     		movs	r2, #10
 1217 04b2 5946     		mov	r1, fp
 1218 04b4 01A8     		add	r0, sp, #4
 1219              	.LVL134:
 1220 04b6 FFF7FEFF 		bl	strtol
 1221              	.LVL135:
 1222 04ba 8146     		mov	r9, r0
 1223              	.LVL136:
 298:minmea.c      ****                     s = strtol(sArr, NULL, 10);
 1224              		.loc 1 298 0
 1225 04bc 0A22     		movs	r2, #10
 1226 04be 5946     		mov	r1, fp
 1227 04c0 02A8     		add	r0, sp, #8
 1228              	.LVL137:
 1229 04c2 FFF7FEFF 		bl	strtol
 1230              	.LVL138:
 299:minmea.c      ****                     field += 6;
 300:minmea.c      **** 
 301:minmea.c      ****                     // Extra: fractional time. Saved as microseconds.
 302:minmea.c      ****                     if (*field++ == '.') {
 1231              		.loc 1 302 0
 1232 04c6 07F1070C 		add	ip, r7, #7
 1233              	.LVL139:
 1234 04ca BB79     		ldrb	r3, [r7, #6]	@ zero_extendqisi2
 1235 04cc 2E2B     		cmp	r3, #46
 1236 04ce 0FD0     		beq	.L147
 303:minmea.c      ****                         uint32_t value = 0;
ARM GAS  C:\Users\armst\AppData\Local\Temp\ccNPhHLt.s 			page 34


 304:minmea.c      ****                         uint32_t scale = 1000000LU;
 305:minmea.c      ****                         while (isdigit((unsigned char) *field) && scale > 1) {
 306:minmea.c      ****                             value = (value * 10) + (*field++ - '0');
 307:minmea.c      ****                             scale /= 10;
 308:minmea.c      ****                         }
 309:minmea.c      ****                         u = value * scale;
 310:minmea.c      ****                     } else {
 311:minmea.c      ****                         u = 0;
 1237              		.loc 1 311 0
 1238 04d0 5B46     		mov	r3, fp
 1239 04d2 26E0     		b	.L82
 1240              	.LVL140:
 1241              	.L90:
 1242              	.LBB77:
 306:minmea.c      ****                             scale /= 10;
 1243              		.loc 1 306 0
 1244 04d4 01EB8103 		add	r3, r1, r1, lsl #2
 1245 04d8 5F00     		lsls	r7, r3, #1
 1246 04da 0CF1010C 		add	ip, ip, #1
 1247              	.LVL141:
 1248 04de 0BEB0703 		add	r3, fp, r7
 1249 04e2 A3F13001 		sub	r1, r3, #48
 1250              	.LVL142:
 307:minmea.c      ****                         }
 1251              		.loc 1 307 0
 1252 04e6 344B     		ldr	r3, .L155+4
 1253 04e8 A3FB0223 		umull	r2, r3, r3, r2
 1254              	.LVL143:
 1255 04ec DA08     		lsrs	r2, r3, #3
 1256              	.LVL144:
 1257 04ee 01E0     		b	.L87
 1258              	.LVL145:
 1259              	.L147:
 1260              	.LBE77:
 1261 04f0 324A     		ldr	r2, .L155+8
 1262 04f2 0021     		movs	r1, #0
 1263              	.L87:
 1264              	.LVL146:
 1265              	.LBB78:
 305:minmea.c      ****                             value = (value * 10) + (*field++ - '0');
 1266              		.loc 1 305 0
 1267 04f4 9CF800B0 		ldrb	fp, [ip]	@ zero_extendqisi2
 1268 04f8 2E4B     		ldr	r3, .L155
 1269 04fa 1B68     		ldr	r3, [r3]
 1270 04fc 03EB0B0E 		add	lr, r3, fp
 1271 0500 9EF80130 		ldrb	r3, [lr, #1]	@ zero_extendqisi2
 1272 0504 13F0040F 		tst	r3, #4
 1273 0508 01D0     		beq	.L89
 305:minmea.c      ****                             value = (value * 10) + (*field++ - '0');
 1274              		.loc 1 305 0 is_stmt 0 discriminator 1
 1275 050a 012A     		cmp	r2, #1
 1276 050c E2D8     		bhi	.L90
 1277              	.L89:
 309:minmea.c      ****                     } else {
 1278              		.loc 1 309 0 is_stmt 1
 1279 050e 02FB01F3 		mul	r3, r2, r1
 1280              	.LVL147:
ARM GAS  C:\Users\armst\AppData\Local\Temp\ccNPhHLt.s 			page 35


 1281              	.LBE78:
 1282 0512 06E0     		b	.L82
 1283              	.LVL148:
 1284              	.L85:
 1285              	.LBE79:
 1286              	.LBE71:
 1287              	.LBE85:
  90:minmea.c      ****     bool optional = false;
 1288              		.loc 1 90 0
 1289 0514 0020     		movs	r0, #0
 1290 0516 48E0     		b	.L30
 1291              	.LVL149:
 1292              	.L142:
 1293              	.LBB86:
 1294              	.LBB80:
 285:minmea.c      **** 
 1295              		.loc 1 285 0
 1296 0518 4FF0FF33 		mov	r3, #-1
 1297 051c 1846     		mov	r0, r3
 1298 051e 9946     		mov	r9, r3
 1299 0520 9A46     		mov	r10, r3
 1300              	.LVL150:
 1301              	.L82:
 312:minmea.c      ****                     }
 313:minmea.c      ****                 }
 314:minmea.c      **** 
 315:minmea.c      ****                 time_->hours = h;
 1302              		.loc 1 315 0
 1303 0522 C8F800A0 		str	r10, [r8]
 316:minmea.c      ****                 time_->minutes = i;
 1304              		.loc 1 316 0
 1305 0526 C8F80490 		str	r9, [r8, #4]
 317:minmea.c      ****                 time_->seconds = s;
 1306              		.loc 1 317 0
 1307 052a C8F80800 		str	r0, [r8, #8]
 318:minmea.c      ****                 time_->microseconds = u;
 1308              		.loc 1 318 0
 1309 052e C8F80C30 		str	r3, [r8, #12]
 1310              	.LBE80:
 319:minmea.c      ****             } break;
 1311              		.loc 1 319 0
 1312 0532 00E0     		b	.L66
 1313              	.LVL151:
 1314              	.L92:
 320:minmea.c      **** 
 321:minmea.c      ****             case '_': { // Ignore the field.
 322:minmea.c      ****             } break;
 323:minmea.c      **** 
 324:minmea.c      ****             default: { // Unknown.
 325:minmea.c      ****                 goto parse_error;
 326:minmea.c      ****             }
 327:minmea.c      ****         }
 328:minmea.c      **** 
 329:minmea.c      ****         next_field();
 1315              		.loc 1 329 0 discriminator 2
 1316 0534 0134     		adds	r4, r4, #1
 1317              	.LVL152:
ARM GAS  C:\Users\armst\AppData\Local\Temp\ccNPhHLt.s 			page 36


 1318              	.L66:
 1319              		.loc 1 329 0 is_stmt 0 discriminator 1
 1320 0536 2278     		ldrb	r2, [r4]	@ zero_extendqisi2
 1321              	.LVL153:
 1322              	.LBB81:
 1323              	.LBB82:
 1324              		.loc 2 302 0 is_stmt 1 discriminator 1
 1325 0538 1E4B     		ldr	r3, .L155
 1326 053a 1B68     		ldr	r3, [r3]
 1327 053c 1344     		add	r3, r3, r2
 1328 053e 5B78     		ldrb	r3, [r3, #1]	@ zero_extendqisi2
 1329 0540 13F0970F 		tst	r3, #151
 1330 0544 05D0     		beq	.L148
 1331              		.loc 2 302 0 is_stmt 0
 1332 0546 2C2A     		cmp	r2, #44
 1333 0548 05D0     		beq	.L149
 1334 054a 2A2A     		cmp	r2, #42
 1335 054c 05D1     		bne	.L150
 1336 054e 0023     		movs	r3, #0
 1337 0550 04E0     		b	.L91
 1338              	.L148:
 1339 0552 0023     		movs	r3, #0
 1340 0554 02E0     		b	.L91
 1341              	.L149:
 1342 0556 0023     		movs	r3, #0
 1343 0558 00E0     		b	.L91
 1344              	.L150:
 1345 055a 0123     		movs	r3, #1
 1346              	.L91:
 1347              	.LVL154:
 1348              	.LBE82:
 1349              	.LBE81:
 1350              		.loc 1 329 0 is_stmt 1
 1351 055c 002B     		cmp	r3, #0
 1352 055e E9D1     		bne	.L92
 1353              		.loc 1 329 0 is_stmt 0 discriminator 3
 1354 0560 2C2A     		cmp	r2, #44
 1355 0562 04D1     		bne	.L151
 1356              		.loc 1 329 0 discriminator 4
 1357 0564 0134     		adds	r4, r4, #1
 1358              	.LVL155:
 1359 0566 2746     		mov	r7, r4
 1360 0568 02E0     		b	.L31
 1361              	.LVL156:
 1362              	.L95:
 119:minmea.c      ****             continue;
 1363              		.loc 1 119 0 is_stmt 1
 1364 056a 0126     		movs	r6, #1
 1365              	.LVL157:
 1366 056c 00E0     		b	.L31
 1367              	.LVL158:
 1368              	.L151:
 1369              		.loc 1 329 0
 1370 056e 0027     		movs	r7, #0
 1371              	.LVL159:
 1372              	.L31:
 1373              	.LBE86:
ARM GAS  C:\Users\armst\AppData\Local\Temp\ccNPhHLt.s 			page 37


 114:minmea.c      ****         char type = *format++;
 1374              		.loc 1 114 0
 1375 0570 2B78     		ldrb	r3, [r5]	@ zero_extendqisi2
 1376 0572 002B     		cmp	r3, #0
 1377 0574 7FF452AD 		bne	.L93
 330:minmea.c      ****     }
 331:minmea.c      **** 
 332:minmea.c      ****     result = true;
 1378              		.loc 1 332 0
 1379 0578 0120     		movs	r0, #1
 1380 057a 16E0     		b	.L30
 1381              	.LVL160:
 1382              	.L96:
  90:minmea.c      ****     bool optional = false;
 1383              		.loc 1 90 0
 1384 057c 0020     		movs	r0, #0
 1385 057e 14E0     		b	.L30
 1386              	.LVL161:
 1387              	.L97:
 1388 0580 0020     		movs	r0, #0
 1389 0582 12E0     		b	.L30
 1390              	.LVL162:
 1391              	.L107:
 1392 0584 0020     		movs	r0, #0
 1393 0586 10E0     		b	.L30
 1394              	.LVL163:
 1395              	.L114:
 1396 0588 0020     		movs	r0, #0
 1397              	.LVL164:
 1398 058a 0EE0     		b	.L30
 1399              	.LVL165:
 1400              	.L115:
 1401 058c 0020     		movs	r0, #0
 1402              	.LVL166:
 1403 058e 0CE0     		b	.L30
 1404              	.LVL167:
 1405              	.L116:
 1406 0590 0020     		movs	r0, #0
 1407              	.LVL168:
 1408 0592 0AE0     		b	.L30
 1409              	.LVL169:
 1410              	.L117:
 1411 0594 0020     		movs	r0, #0
 1412              	.LVL170:
 1413 0596 08E0     		b	.L30
 1414              	.LVL171:
 1415              	.L121:
 1416 0598 0020     		movs	r0, #0
 1417              	.LVL172:
 1418 059a 06E0     		b	.L30
 1419              	.LVL173:
 1420              	.L131:
 1421 059c 0020     		movs	r0, #0
 1422 059e 04E0     		b	.L30
 1423              	.L132:
 1424 05a0 0020     		movs	r0, #0
 1425 05a2 02E0     		b	.L30
ARM GAS  C:\Users\armst\AppData\Local\Temp\ccNPhHLt.s 			page 38


 1426              	.LVL174:
 1427              	.L136:
 1428 05a4 0020     		movs	r0, #0
 1429              	.L34:
 1430              	.LVL175:
 333:minmea.c      **** 
 334:minmea.c      **** parse_error:
 335:minmea.c      ****     va_end(ap);
 336:minmea.c      ****     return result;
 1431              		.loc 1 336 0
 1432 05a6 00E0     		b	.L30
 1433              	.LVL176:
 1434              	.L94:
  94:minmea.c      **** 
 1435              		.loc 1 94 0
 1436 05a8 0020     		movs	r0, #0
 1437              	.LVL177:
 1438              	.L30:
 337:minmea.c      **** }
 1439              		.loc 1 337 0
 1440 05aa 04B0     		add	sp, sp, #16
 1441              		.cfi_def_cfa_offset 48
 1442              		@ sp needed
 1443 05ac BDE8F04F 		pop	{r4, r5, r6, r7, r8, r9, r10, fp, lr}
 1444              		.cfi_restore 14
 1445              		.cfi_restore 11
 1446              		.cfi_restore 10
 1447              		.cfi_restore 9
 1448              		.cfi_restore 8
 1449              		.cfi_restore 7
 1450              		.cfi_restore 6
 1451              		.cfi_restore 5
 1452              		.cfi_restore 4
 1453              		.cfi_def_cfa_offset 12
 1454 05b0 03B0     		add	sp, sp, #12
 1455              		.cfi_restore 3
 1456              		.cfi_restore 2
 1457              		.cfi_restore 1
 1458              		.cfi_def_cfa_offset 0
 1459 05b2 7047     		bx	lr
 1460              	.L156:
 1461              		.align	2
 1462              	.L155:
 1463 05b4 00000000 		.word	__ctype_ptr__
 1464 05b8 CDCCCCCC 		.word	-858993459
 1465 05bc 40420F00 		.word	1000000
 1466              		.cfi_endproc
 1467              	.LFE8:
 1468              		.size	minmea_scan, .-minmea_scan
 1469              		.section	.text.minmea_talker_id,"ax",%progbits
 1470              		.align	2
 1471              		.global	minmea_talker_id
 1472              		.thumb
 1473              		.thumb_func
 1474              		.type	minmea_talker_id, %function
 1475              	minmea_talker_id:
 1476              	.LFB9:
ARM GAS  C:\Users\armst\AppData\Local\Temp\ccNPhHLt.s 			page 39


 338:minmea.c      **** 
 339:minmea.c      **** bool minmea_talker_id(char talker[3], const char *sentence)
 340:minmea.c      **** {
 1477              		.loc 1 340 0
 1478              		.cfi_startproc
 1479              		@ args = 0, pretend = 0, frame = 8
 1480              		@ frame_needed = 0, uses_anonymous_args = 0
 1481              	.LVL178:
 1482 0000 10B5     		push	{r4, lr}
 1483              		.cfi_def_cfa_offset 8
 1484              		.cfi_offset 4, -8
 1485              		.cfi_offset 14, -4
 1486 0002 82B0     		sub	sp, sp, #8
 1487              		.cfi_def_cfa_offset 16
 1488 0004 0446     		mov	r4, r0
 1489 0006 0846     		mov	r0, r1
 1490              	.LVL179:
 341:minmea.c      ****     char type[6];
 342:minmea.c      ****     if (!minmea_scan(sentence, "t", type))
 1491              		.loc 1 342 0
 1492 0008 6A46     		mov	r2, sp
 1493 000a 0849     		ldr	r1, .L160
 1494              	.LVL180:
 1495 000c FFF7FEFF 		bl	minmea_scan
 1496              	.LVL181:
 1497 0010 0346     		mov	r3, r0
 1498 0012 38B1     		cbz	r0, .L158
 343:minmea.c      ****         return false;
 344:minmea.c      **** 
 345:minmea.c      ****     talker[0] = type[0];
 1499              		.loc 1 345 0
 1500 0014 9DF80020 		ldrb	r2, [sp]	@ zero_extendqisi2
 1501 0018 2270     		strb	r2, [r4]
 346:minmea.c      ****     talker[1] = type[1];
 1502              		.loc 1 346 0
 1503 001a 9DF80120 		ldrb	r2, [sp, #1]	@ zero_extendqisi2
 1504 001e 6270     		strb	r2, [r4, #1]
 347:minmea.c      ****     talker[2] = '\0';
 1505              		.loc 1 347 0
 1506 0020 0022     		movs	r2, #0
 1507 0022 A270     		strb	r2, [r4, #2]
 1508              	.L158:
 348:minmea.c      **** 
 349:minmea.c      ****     return true;
 350:minmea.c      **** }
 1509              		.loc 1 350 0
 1510 0024 1846     		mov	r0, r3
 1511 0026 02B0     		add	sp, sp, #8
 1512              		.cfi_def_cfa_offset 8
 1513              		@ sp needed
 1514 0028 10BD     		pop	{r4, pc}
 1515              	.LVL182:
 1516              	.L161:
 1517 002a 00BF     		.align	2
 1518              	.L160:
 1519 002c 00000000 		.word	.LC0
 1520              		.cfi_endproc
ARM GAS  C:\Users\armst\AppData\Local\Temp\ccNPhHLt.s 			page 40


 1521              	.LFE9:
 1522              		.size	minmea_talker_id, .-minmea_talker_id
 1523              		.section	.text.minmea_sentence_id,"ax",%progbits
 1524              		.align	2
 1525              		.global	minmea_sentence_id
 1526              		.thumb
 1527              		.thumb_func
 1528              		.type	minmea_sentence_id, %function
 1529              	minmea_sentence_id:
 1530              	.LFB10:
 351:minmea.c      **** 
 352:minmea.c      **** enum minmea_sentence_id minmea_sentence_id(const char *sentence, bool strict)
 353:minmea.c      **** {
 1531              		.loc 1 353 0
 1532              		.cfi_startproc
 1533              		@ args = 0, pretend = 0, frame = 8
 1534              		@ frame_needed = 0, uses_anonymous_args = 0
 1535              	.LVL183:
 1536 0000 10B5     		push	{r4, lr}
 1537              		.cfi_def_cfa_offset 8
 1538              		.cfi_offset 4, -8
 1539              		.cfi_offset 14, -4
 1540 0002 82B0     		sub	sp, sp, #8
 1541              		.cfi_def_cfa_offset 16
 1542 0004 0446     		mov	r4, r0
 354:minmea.c      ****     if (!minmea_check(sentence, strict))
 1543              		.loc 1 354 0
 1544 0006 FFF7FEFF 		bl	minmea_check
 1545              	.LVL184:
 1546 000a 0028     		cmp	r0, #0
 1547 000c 3ED0     		beq	.L164
 355:minmea.c      ****         return MINMEA_INVALID;
 356:minmea.c      **** 
 357:minmea.c      ****     char type[6];
 358:minmea.c      ****     if (!minmea_scan(sentence, "t", type))
 1548              		.loc 1 358 0
 1549 000e 6A46     		mov	r2, sp
 1550 0010 2B49     		ldr	r1, .L176
 1551 0012 2046     		mov	r0, r4
 1552 0014 FFF7FEFF 		bl	minmea_scan
 1553              	.LVL185:
 1554 0018 0028     		cmp	r0, #0
 1555 001a 3AD0     		beq	.L165
 359:minmea.c      ****         return MINMEA_INVALID;
 360:minmea.c      **** 
 361:minmea.c      ****     if (!strcmp(type+2, "GBS"))
 1556              		.loc 1 361 0
 1557 001c 2949     		ldr	r1, .L176+4
 1558 001e 0DF10200 		add	r0, sp, #2
 1559 0022 FFF7FEFF 		bl	strcmp
 1560              	.LVL186:
 1561 0026 B8B3     		cbz	r0, .L166
 362:minmea.c      ****         return MINMEA_SENTENCE_GBS;
 363:minmea.c      ****     if (!strcmp(type+2, "GGA"))
 1562              		.loc 1 363 0
 1563 0028 2749     		ldr	r1, .L176+8
 1564 002a 0DF10200 		add	r0, sp, #2
ARM GAS  C:\Users\armst\AppData\Local\Temp\ccNPhHLt.s 			page 41


 1565 002e FFF7FEFF 		bl	strcmp
 1566              	.LVL187:
 1567 0032 98B3     		cbz	r0, .L167
 364:minmea.c      ****         return MINMEA_SENTENCE_GGA;
 365:minmea.c      ****     if (!strcmp(type+2, "GLL"))
 1568              		.loc 1 365 0
 1569 0034 2549     		ldr	r1, .L176+12
 1570 0036 0DF10200 		add	r0, sp, #2
 1571 003a FFF7FEFF 		bl	strcmp
 1572              	.LVL188:
 1573 003e 78B3     		cbz	r0, .L168
 366:minmea.c      ****         return MINMEA_SENTENCE_GLL;
 367:minmea.c      ****     if (!strcmp(type+2, "GSA"))
 1574              		.loc 1 367 0
 1575 0040 2349     		ldr	r1, .L176+16
 1576 0042 0DF10200 		add	r0, sp, #2
 1577 0046 FFF7FEFF 		bl	strcmp
 1578              	.LVL189:
 1579 004a 58B3     		cbz	r0, .L169
 368:minmea.c      ****         return MINMEA_SENTENCE_GSA;
 369:minmea.c      ****     if (!strcmp(type+2, "GST"))
 1580              		.loc 1 369 0
 1581 004c 2149     		ldr	r1, .L176+20
 1582 004e 0DF10200 		add	r0, sp, #2
 1583 0052 FFF7FEFF 		bl	strcmp
 1584              	.LVL190:
 1585 0056 38B3     		cbz	r0, .L170
 370:minmea.c      ****         return MINMEA_SENTENCE_GST;
 371:minmea.c      ****     if (!strcmp(type+2, "GSV"))
 1586              		.loc 1 371 0
 1587 0058 1F49     		ldr	r1, .L176+24
 1588 005a 0DF10200 		add	r0, sp, #2
 1589 005e FFF7FEFF 		bl	strcmp
 1590              	.LVL191:
 1591 0062 18B3     		cbz	r0, .L171
 372:minmea.c      ****         return MINMEA_SENTENCE_GSV;
 373:minmea.c      ****     if (!strcmp(type+2, "RMC"))
 1592              		.loc 1 373 0
 1593 0064 1D49     		ldr	r1, .L176+28
 1594 0066 0DF10200 		add	r0, sp, #2
 1595 006a FFF7FEFF 		bl	strcmp
 1596              	.LVL192:
 1597 006e F8B1     		cbz	r0, .L172
 374:minmea.c      ****         return MINMEA_SENTENCE_RMC;
 375:minmea.c      ****     if (!strcmp(type+2, "VTG"))
 1598              		.loc 1 375 0
 1599 0070 1B49     		ldr	r1, .L176+32
 1600 0072 0DF10200 		add	r0, sp, #2
 1601 0076 FFF7FEFF 		bl	strcmp
 1602              	.LVL193:
 1603 007a D8B1     		cbz	r0, .L173
 376:minmea.c      ****         return MINMEA_SENTENCE_VTG;
 377:minmea.c      ****     if (!strcmp(type+2, "ZDA"))
 1604              		.loc 1 377 0
 1605 007c 1949     		ldr	r1, .L176+36
 1606 007e 0DF10200 		add	r0, sp, #2
 1607 0082 FFF7FEFF 		bl	strcmp
ARM GAS  C:\Users\armst\AppData\Local\Temp\ccNPhHLt.s 			page 42


 1608              	.LVL194:
 1609 0086 B8B9     		cbnz	r0, .L174
 378:minmea.c      ****         return MINMEA_SENTENCE_ZDA;
 1610              		.loc 1 378 0
 1611 0088 0920     		movs	r0, #9
 1612 008a 16E0     		b	.L163
 1613              	.L164:
 355:minmea.c      **** 
 1614              		.loc 1 355 0
 1615 008c 4FF0FF30 		mov	r0, #-1
 1616 0090 13E0     		b	.L163
 1617              	.L165:
 359:minmea.c      **** 
 1618              		.loc 1 359 0
 1619 0092 4FF0FF30 		mov	r0, #-1
 1620 0096 10E0     		b	.L163
 1621              	.L166:
 362:minmea.c      ****     if (!strcmp(type+2, "GGA"))
 1622              		.loc 1 362 0
 1623 0098 0120     		movs	r0, #1
 1624 009a 0EE0     		b	.L163
 1625              	.L167:
 364:minmea.c      ****     if (!strcmp(type+2, "GLL"))
 1626              		.loc 1 364 0
 1627 009c 0220     		movs	r0, #2
 1628 009e 0CE0     		b	.L163
 1629              	.L168:
 366:minmea.c      ****     if (!strcmp(type+2, "GSA"))
 1630              		.loc 1 366 0
 1631 00a0 0320     		movs	r0, #3
 1632 00a2 0AE0     		b	.L163
 1633              	.L169:
 368:minmea.c      ****     if (!strcmp(type+2, "GST"))
 1634              		.loc 1 368 0
 1635 00a4 0420     		movs	r0, #4
 1636 00a6 08E0     		b	.L163
 1637              	.L170:
 370:minmea.c      ****     if (!strcmp(type+2, "GSV"))
 1638              		.loc 1 370 0
 1639 00a8 0520     		movs	r0, #5
 1640 00aa 06E0     		b	.L163
 1641              	.L171:
 372:minmea.c      ****     if (!strcmp(type+2, "RMC"))
 1642              		.loc 1 372 0
 1643 00ac 0620     		movs	r0, #6
 1644 00ae 04E0     		b	.L163
 1645              	.L172:
 374:minmea.c      ****     if (!strcmp(type+2, "VTG"))
 1646              		.loc 1 374 0
 1647 00b0 0720     		movs	r0, #7
 1648 00b2 02E0     		b	.L163
 1649              	.L173:
 376:minmea.c      ****     if (!strcmp(type+2, "ZDA"))
 1650              		.loc 1 376 0
 1651 00b4 0820     		movs	r0, #8
 1652 00b6 00E0     		b	.L163
 1653              	.L174:
ARM GAS  C:\Users\armst\AppData\Local\Temp\ccNPhHLt.s 			page 43


 379:minmea.c      **** 
 380:minmea.c      ****     return MINMEA_UNKNOWN;
 1654              		.loc 1 380 0
 1655 00b8 0020     		movs	r0, #0
 1656              	.L163:
 381:minmea.c      **** }
 1657              		.loc 1 381 0
 1658 00ba 02B0     		add	sp, sp, #8
 1659              		.cfi_def_cfa_offset 8
 1660              		@ sp needed
 1661 00bc 10BD     		pop	{r4, pc}
 1662              	.LVL195:
 1663              	.L177:
 1664 00be 00BF     		.align	2
 1665              	.L176:
 1666 00c0 00000000 		.word	.LC0
 1667 00c4 04000000 		.word	.LC1
 1668 00c8 08000000 		.word	.LC2
 1669 00cc 0C000000 		.word	.LC3
 1670 00d0 10000000 		.word	.LC4
 1671 00d4 14000000 		.word	.LC5
 1672 00d8 18000000 		.word	.LC6
 1673 00dc 1C000000 		.word	.LC7
 1674 00e0 20000000 		.word	.LC8
 1675 00e4 24000000 		.word	.LC9
 1676              		.cfi_endproc
 1677              	.LFE10:
 1678              		.size	minmea_sentence_id, .-minmea_sentence_id
 1679              		.section	.text.minmea_parse_gbs,"ax",%progbits
 1680              		.align	2
 1681              		.global	minmea_parse_gbs
 1682              		.thumb
 1683              		.thumb_func
 1684              		.type	minmea_parse_gbs, %function
 1685              	minmea_parse_gbs:
 1686              	.LFB11:
 382:minmea.c      **** 
 383:minmea.c      **** bool minmea_parse_gbs(struct minmea_sentence_gbs *frame, const char *sentence)
 384:minmea.c      **** {
 1687              		.loc 1 384 0
 1688              		.cfi_startproc
 1689              		@ args = 0, pretend = 0, frame = 8
 1690              		@ frame_needed = 0, uses_anonymous_args = 0
 1691              	.LVL196:
 1692 0000 10B5     		push	{r4, lr}
 1693              		.cfi_def_cfa_offset 8
 1694              		.cfi_offset 4, -8
 1695              		.cfi_offset 14, -4
 1696 0002 8AB0     		sub	sp, sp, #40
 1697              		.cfi_def_cfa_offset 48
 1698 0004 0346     		mov	r3, r0
 1699 0006 0846     		mov	r0, r1
 1700              	.LVL197:
 385:minmea.c      ****     // $GNGBS,170556.00,3.0,2.9,8.3,,,,*5C
 386:minmea.c      ****     char type[6];
 387:minmea.c      ****     if (!minmea_scan(sentence, "tTfffifff",
 1701              		.loc 1 387 0
ARM GAS  C:\Users\armst\AppData\Local\Temp\ccNPhHLt.s 			page 44


 1702 0008 03F13C02 		add	r2, r3, #60
 1703 000c 0692     		str	r2, [sp, #24]
 1704 000e 03F13402 		add	r2, r3, #52
 1705 0012 0592     		str	r2, [sp, #20]
 1706 0014 03F12C02 		add	r2, r3, #44
 1707 0018 0492     		str	r2, [sp, #16]
 1708 001a 03F12802 		add	r2, r3, #40
 1709 001e 0392     		str	r2, [sp, #12]
 1710 0020 03F12002 		add	r2, r3, #32
 1711 0024 0292     		str	r2, [sp, #8]
 1712 0026 03F11802 		add	r2, r3, #24
 1713 002a 0192     		str	r2, [sp, #4]
 1714 002c 03F11002 		add	r2, r3, #16
 1715 0030 0092     		str	r2, [sp]
 1716 0032 08AA     		add	r2, sp, #32
 1717 0034 0749     		ldr	r1, .L181
 1718              	.LVL198:
 1719 0036 FFF7FEFF 		bl	minmea_scan
 1720              	.LVL199:
 1721 003a 0446     		mov	r4, r0
 1722 003c 30B1     		cbz	r0, .L179
 388:minmea.c      ****             type,
 389:minmea.c      ****             &frame->time,
 390:minmea.c      ****             &frame->err_latitude,
 391:minmea.c      ****             &frame->err_longitude,
 392:minmea.c      ****             &frame->err_altitude,
 393:minmea.c      ****             &frame->svid,
 394:minmea.c      ****             &frame->prob,
 395:minmea.c      ****             &frame->bias,
 396:minmea.c      ****             &frame->stddev
 397:minmea.c      ****             ))
 398:minmea.c      ****         return false;
 399:minmea.c      ****     if (strcmp(type+2, "GBS"))
 1723              		.loc 1 399 0
 1724 003e 0649     		ldr	r1, .L181+4
 1725 0040 0DF12200 		add	r0, sp, #34
 1726 0044 FFF7FEFF 		bl	strcmp
 1727              	.LVL200:
 1728 0048 00B1     		cbz	r0, .L179
 400:minmea.c      ****         return false;
 1729              		.loc 1 400 0
 1730 004a 0024     		movs	r4, #0
 1731              	.L179:
 401:minmea.c      **** 
 402:minmea.c      ****     return true;
 403:minmea.c      **** }
 1732              		.loc 1 403 0
 1733 004c 2046     		mov	r0, r4
 1734 004e 0AB0     		add	sp, sp, #40
 1735              		.cfi_def_cfa_offset 8
 1736              		@ sp needed
 1737 0050 10BD     		pop	{r4, pc}
 1738              	.L182:
 1739 0052 00BF     		.align	2
 1740              	.L181:
 1741 0054 28000000 		.word	.LC10
 1742 0058 04000000 		.word	.LC1
ARM GAS  C:\Users\armst\AppData\Local\Temp\ccNPhHLt.s 			page 45


 1743              		.cfi_endproc
 1744              	.LFE11:
 1745              		.size	minmea_parse_gbs, .-minmea_parse_gbs
 1746              		.section	.text.minmea_parse_rmc,"ax",%progbits
 1747              		.align	2
 1748              		.global	minmea_parse_rmc
 1749              		.thumb
 1750              		.thumb_func
 1751              		.type	minmea_parse_rmc, %function
 1752              	minmea_parse_rmc:
 1753              	.LFB12:
 404:minmea.c      **** 
 405:minmea.c      **** bool minmea_parse_rmc(struct minmea_sentence_rmc *frame, const char *sentence)
 406:minmea.c      **** {
 1754              		.loc 1 406 0
 1755              		.cfi_startproc
 1756              		@ args = 0, pretend = 0, frame = 24
 1757              		@ frame_needed = 0, uses_anonymous_args = 0
 1758              	.LVL201:
 1759 0000 30B5     		push	{r4, r5, lr}
 1760              		.cfi_def_cfa_offset 12
 1761              		.cfi_offset 4, -12
 1762              		.cfi_offset 5, -8
 1763              		.cfi_offset 14, -4
 1764 0002 91B0     		sub	sp, sp, #68
 1765              		.cfi_def_cfa_offset 80
 1766 0004 0446     		mov	r4, r0
 1767 0006 0846     		mov	r0, r1
 1768              	.LVL202:
 407:minmea.c      ****     // $GPRMC,081836,A,3751.65,S,14507.36,E,000.0,360.0,130998,011.3,E*62
 408:minmea.c      ****     char type[6];
 409:minmea.c      ****     char validity;
 410:minmea.c      ****     int latitude_direction;
 411:minmea.c      ****     int longitude_direction;
 412:minmea.c      ****     int variation_direction;
 413:minmea.c      ****     if (!minmea_scan(sentence, "tTcfdfdffDfd",
 1769              		.loc 1 413 0
 1770 0008 0AAB     		add	r3, sp, #40
 1771 000a 0993     		str	r3, [sp, #36]
 1772 000c 04F14003 		add	r3, r4, #64
 1773 0010 0893     		str	r3, [sp, #32]
 1774 0012 04F13403 		add	r3, r4, #52
 1775 0016 0793     		str	r3, [sp, #28]
 1776 0018 04F12C03 		add	r3, r4, #44
 1777 001c 0693     		str	r3, [sp, #24]
 1778 001e 04F12403 		add	r3, r4, #36
 1779 0022 0593     		str	r3, [sp, #20]
 1780 0024 0BAB     		add	r3, sp, #44
 1781 0026 0493     		str	r3, [sp, #16]
 1782 0028 04F11C03 		add	r3, r4, #28
 1783 002c 0393     		str	r3, [sp, #12]
 1784 002e 0CAB     		add	r3, sp, #48
 1785 0030 0293     		str	r3, [sp, #8]
 1786 0032 04F11403 		add	r3, r4, #20
 1787 0036 0193     		str	r3, [sp, #4]
 1788 0038 0DF13703 		add	r3, sp, #55
 1789 003c 0093     		str	r3, [sp]
ARM GAS  C:\Users\armst\AppData\Local\Temp\ccNPhHLt.s 			page 46


 1790 003e 2346     		mov	r3, r4
 1791 0040 0EAA     		add	r2, sp, #56
 1792 0042 1349     		ldr	r1, .L187
 1793              	.LVL203:
 1794 0044 FFF7FEFF 		bl	minmea_scan
 1795              	.LVL204:
 1796 0048 0546     		mov	r5, r0
 1797 004a E8B1     		cbz	r0, .L184
 414:minmea.c      ****             type,
 415:minmea.c      ****             &frame->time,
 416:minmea.c      ****             &validity,
 417:minmea.c      ****             &frame->latitude, &latitude_direction,
 418:minmea.c      ****             &frame->longitude, &longitude_direction,
 419:minmea.c      ****             &frame->speed,
 420:minmea.c      ****             &frame->course,
 421:minmea.c      ****             &frame->date,
 422:minmea.c      ****             &frame->variation, &variation_direction))
 423:minmea.c      ****         return false;
 424:minmea.c      ****     if (strcmp(type+2, "RMC"))
 1798              		.loc 1 424 0
 1799 004c 1149     		ldr	r1, .L187+4
 1800 004e 0DF13A00 		add	r0, sp, #58
 1801 0052 FFF7FEFF 		bl	strcmp
 1802              	.LVL205:
 1803 0056 B0B9     		cbnz	r0, .L185
 425:minmea.c      ****         return false;
 426:minmea.c      **** 
 427:minmea.c      ****     frame->valid = (validity == 'A');
 1804              		.loc 1 427 0
 1805 0058 9DF83730 		ldrb	r3, [sp, #55]	@ zero_extendqisi2
 1806 005c 412B     		cmp	r3, #65
 1807 005e 14BF     		ite	ne
 1808 0060 0023     		movne	r3, #0
 1809 0062 0123     		moveq	r3, #1
 1810 0064 2374     		strb	r3, [r4, #16]
 428:minmea.c      ****     frame->latitude.value *= latitude_direction;
 1811              		.loc 1 428 0
 1812 0066 6269     		ldr	r2, [r4, #20]
 1813 0068 0C9B     		ldr	r3, [sp, #48]
 1814 006a 03FB02F3 		mul	r3, r3, r2
 1815 006e 6361     		str	r3, [r4, #20]
 429:minmea.c      ****     frame->longitude.value *= longitude_direction;
 1816              		.loc 1 429 0
 1817 0070 E269     		ldr	r2, [r4, #28]
 1818 0072 0B9B     		ldr	r3, [sp, #44]
 1819 0074 03FB02F3 		mul	r3, r3, r2
 1820 0078 E361     		str	r3, [r4, #28]
 430:minmea.c      ****     frame->variation.value *= variation_direction;
 1821              		.loc 1 430 0
 1822 007a 226C     		ldr	r2, [r4, #64]
 1823 007c 0A9B     		ldr	r3, [sp, #40]
 1824 007e 03FB02F3 		mul	r3, r3, r2
 1825 0082 2364     		str	r3, [r4, #64]
 431:minmea.c      **** 
 432:minmea.c      ****     return true;
 1826              		.loc 1 432 0
 1827 0084 00E0     		b	.L184
ARM GAS  C:\Users\armst\AppData\Local\Temp\ccNPhHLt.s 			page 47


 1828              	.L185:
 425:minmea.c      **** 
 1829              		.loc 1 425 0
 1830 0086 0025     		movs	r5, #0
 1831              	.L184:
 433:minmea.c      **** }
 1832              		.loc 1 433 0
 1833 0088 2846     		mov	r0, r5
 1834 008a 11B0     		add	sp, sp, #68
 1835              		.cfi_def_cfa_offset 12
 1836              		@ sp needed
 1837 008c 30BD     		pop	{r4, r5, pc}
 1838              	.LVL206:
 1839              	.L188:
 1840 008e 00BF     		.align	2
 1841              	.L187:
 1842 0090 34000000 		.word	.LC11
 1843 0094 1C000000 		.word	.LC7
 1844              		.cfi_endproc
 1845              	.LFE12:
 1846              		.size	minmea_parse_rmc, .-minmea_parse_rmc
 1847              		.section	.text.minmea_parse_gga,"ax",%progbits
 1848              		.align	2
 1849              		.global	minmea_parse_gga
 1850              		.thumb
 1851              		.thumb_func
 1852              		.type	minmea_parse_gga, %function
 1853              	minmea_parse_gga:
 1854              	.LFB13:
 434:minmea.c      **** 
 435:minmea.c      **** bool minmea_parse_gga(struct minmea_sentence_gga *frame, const char *sentence)
 436:minmea.c      **** {
 1855              		.loc 1 436 0
 1856              		.cfi_startproc
 1857              		@ args = 0, pretend = 0, frame = 16
 1858              		@ frame_needed = 0, uses_anonymous_args = 0
 1859              	.LVL207:
 1860 0000 30B5     		push	{r4, r5, lr}
 1861              		.cfi_def_cfa_offset 12
 1862              		.cfi_offset 4, -12
 1863              		.cfi_offset 5, -8
 1864              		.cfi_offset 14, -4
 1865 0002 91B0     		sub	sp, sp, #68
 1866              		.cfi_def_cfa_offset 80
 1867 0004 0446     		mov	r4, r0
 1868 0006 0846     		mov	r0, r1
 1869              	.LVL208:
 437:minmea.c      ****     // $GPGGA,123519,4807.038,N,01131.000,E,1,08,0.9,545.4,M,46.9,M,,*47
 438:minmea.c      ****     char type[6];
 439:minmea.c      ****     int latitude_direction;
 440:minmea.c      ****     int longitude_direction;
 441:minmea.c      **** 
 442:minmea.c      ****     if (!minmea_scan(sentence, "tTfdfdiiffcfcf_",
 1870              		.loc 1 442 0
 1871 0008 04F14803 		add	r3, r4, #72
 1872 000c 0B93     		str	r3, [sp, #44]
 1873 000e 04F14403 		add	r3, r4, #68
ARM GAS  C:\Users\armst\AppData\Local\Temp\ccNPhHLt.s 			page 48


 1874 0012 0A93     		str	r3, [sp, #40]
 1875 0014 04F13C03 		add	r3, r4, #60
 1876 0018 0993     		str	r3, [sp, #36]
 1877 001a 04F13803 		add	r3, r4, #56
 1878 001e 0893     		str	r3, [sp, #32]
 1879 0020 04F13003 		add	r3, r4, #48
 1880 0024 0793     		str	r3, [sp, #28]
 1881 0026 04F12803 		add	r3, r4, #40
 1882 002a 0693     		str	r3, [sp, #24]
 1883 002c 04F12403 		add	r3, r4, #36
 1884 0030 0593     		str	r3, [sp, #20]
 1885 0032 04F12003 		add	r3, r4, #32
 1886 0036 0493     		str	r3, [sp, #16]
 1887 0038 0CAB     		add	r3, sp, #48
 1888 003a 0393     		str	r3, [sp, #12]
 1889 003c 04F11803 		add	r3, r4, #24
 1890 0040 0293     		str	r3, [sp, #8]
 1891 0042 0DAB     		add	r3, sp, #52
 1892 0044 0193     		str	r3, [sp, #4]
 1893 0046 04F11003 		add	r3, r4, #16
 1894 004a 0093     		str	r3, [sp]
 1895 004c 2346     		mov	r3, r4
 1896 004e 0EAA     		add	r2, sp, #56
 1897 0050 0C49     		ldr	r1, .L193
 1898              	.LVL209:
 1899 0052 FFF7FEFF 		bl	minmea_scan
 1900              	.LVL210:
 1901 0056 0546     		mov	r5, r0
 1902 0058 88B1     		cbz	r0, .L190
 443:minmea.c      ****             type,
 444:minmea.c      ****             &frame->time,
 445:minmea.c      ****             &frame->latitude, &latitude_direction,
 446:minmea.c      ****             &frame->longitude, &longitude_direction,
 447:minmea.c      ****             &frame->fix_quality,
 448:minmea.c      ****             &frame->satellites_tracked,
 449:minmea.c      ****             &frame->hdop,
 450:minmea.c      ****             &frame->altitude, &frame->altitude_units,
 451:minmea.c      ****             &frame->height, &frame->height_units,
 452:minmea.c      ****             &frame->dgps_age))
 453:minmea.c      ****         return false;
 454:minmea.c      ****     if (strcmp(type+2, "GGA"))
 1903              		.loc 1 454 0
 1904 005a 0B49     		ldr	r1, .L193+4
 1905 005c 0DF13A00 		add	r0, sp, #58
 1906 0060 FFF7FEFF 		bl	strcmp
 1907              	.LVL211:
 1908 0064 50B9     		cbnz	r0, .L191
 455:minmea.c      ****         return false;
 456:minmea.c      **** 
 457:minmea.c      ****     frame->latitude.value *= latitude_direction;
 1909              		.loc 1 457 0
 1910 0066 2269     		ldr	r2, [r4, #16]
 1911 0068 0D9B     		ldr	r3, [sp, #52]
 1912 006a 03FB02F3 		mul	r3, r3, r2
 1913 006e 2361     		str	r3, [r4, #16]
 458:minmea.c      ****     frame->longitude.value *= longitude_direction;
 1914              		.loc 1 458 0
ARM GAS  C:\Users\armst\AppData\Local\Temp\ccNPhHLt.s 			page 49


 1915 0070 A269     		ldr	r2, [r4, #24]
 1916 0072 0C9B     		ldr	r3, [sp, #48]
 1917 0074 03FB02F3 		mul	r3, r3, r2
 1918 0078 A361     		str	r3, [r4, #24]
 459:minmea.c      **** 
 460:minmea.c      ****     return true;
 1919              		.loc 1 460 0
 1920 007a 00E0     		b	.L190
 1921              	.L191:
 455:minmea.c      **** 
 1922              		.loc 1 455 0
 1923 007c 0025     		movs	r5, #0
 1924              	.L190:
 461:minmea.c      **** }
 1925              		.loc 1 461 0
 1926 007e 2846     		mov	r0, r5
 1927 0080 11B0     		add	sp, sp, #68
 1928              		.cfi_def_cfa_offset 12
 1929              		@ sp needed
 1930 0082 30BD     		pop	{r4, r5, pc}
 1931              	.LVL212:
 1932              	.L194:
 1933              		.align	2
 1934              	.L193:
 1935 0084 44000000 		.word	.LC12
 1936 0088 08000000 		.word	.LC2
 1937              		.cfi_endproc
 1938              	.LFE13:
 1939              		.size	minmea_parse_gga, .-minmea_parse_gga
 1940              		.section	.text.minmea_parse_gsa,"ax",%progbits
 1941              		.align	2
 1942              		.global	minmea_parse_gsa
 1943              		.thumb
 1944              		.thumb_func
 1945              		.type	minmea_parse_gsa, %function
 1946              	minmea_parse_gsa:
 1947              	.LFB14:
 462:minmea.c      **** 
 463:minmea.c      **** bool minmea_parse_gsa(struct minmea_sentence_gsa *frame, const char *sentence)
 464:minmea.c      **** {
 1948              		.loc 1 464 0
 1949              		.cfi_startproc
 1950              		@ args = 0, pretend = 0, frame = 8
 1951              		@ frame_needed = 0, uses_anonymous_args = 0
 1952              	.LVL213:
 1953 0000 10B5     		push	{r4, lr}
 1954              		.cfi_def_cfa_offset 8
 1955              		.cfi_offset 4, -8
 1956              		.cfi_offset 14, -4
 1957 0002 92B0     		sub	sp, sp, #72
 1958              		.cfi_def_cfa_offset 80
 1959 0004 0346     		mov	r3, r0
 1960 0006 0846     		mov	r0, r1
 1961              	.LVL214:
 465:minmea.c      ****     // $GPGSA,A,3,04,05,,09,12,,,24,,,,,2.5,1.3,2.1*39
 466:minmea.c      ****     char type[6];
 467:minmea.c      **** 
ARM GAS  C:\Users\armst\AppData\Local\Temp\ccNPhHLt.s 			page 50


 468:minmea.c      ****     if (!minmea_scan(sentence, "tciiiiiiiiiiiiifff",
 1962              		.loc 1 468 0
 1963 0008 03F14802 		add	r2, r3, #72
 1964 000c 0F92     		str	r2, [sp, #60]
 1965 000e 03F14002 		add	r2, r3, #64
 1966 0012 0E92     		str	r2, [sp, #56]
 1967 0014 03F13802 		add	r2, r3, #56
 1968 0018 0D92     		str	r2, [sp, #52]
 1969 001a 03F13402 		add	r2, r3, #52
 1970 001e 0C92     		str	r2, [sp, #48]
 1971 0020 03F13002 		add	r2, r3, #48
 1972 0024 0B92     		str	r2, [sp, #44]
 1973 0026 03F12C02 		add	r2, r3, #44
 1974 002a 0A92     		str	r2, [sp, #40]
 1975 002c 03F12802 		add	r2, r3, #40
 1976 0030 0992     		str	r2, [sp, #36]
 1977 0032 03F12402 		add	r2, r3, #36
 1978 0036 0892     		str	r2, [sp, #32]
 1979 0038 03F12002 		add	r2, r3, #32
 1980 003c 0792     		str	r2, [sp, #28]
 1981 003e 03F11C02 		add	r2, r3, #28
 1982 0042 0692     		str	r2, [sp, #24]
 1983 0044 03F11802 		add	r2, r3, #24
 1984 0048 0592     		str	r2, [sp, #20]
 1985 004a 03F11402 		add	r2, r3, #20
 1986 004e 0492     		str	r2, [sp, #16]
 1987 0050 03F11002 		add	r2, r3, #16
 1988 0054 0392     		str	r2, [sp, #12]
 1989 0056 03F10C02 		add	r2, r3, #12
 1990 005a 0292     		str	r2, [sp, #8]
 1991 005c 03F10802 		add	r2, r3, #8
 1992 0060 0192     		str	r2, [sp, #4]
 1993 0062 1A1D     		adds	r2, r3, #4
 1994 0064 0092     		str	r2, [sp]
 1995 0066 10AA     		add	r2, sp, #64
 1996 0068 0749     		ldr	r1, .L198
 1997              	.LVL215:
 1998 006a FFF7FEFF 		bl	minmea_scan
 1999              	.LVL216:
 2000 006e 0446     		mov	r4, r0
 2001 0070 30B1     		cbz	r0, .L196
 469:minmea.c      ****             type,
 470:minmea.c      ****             &frame->mode,
 471:minmea.c      ****             &frame->fix_type,
 472:minmea.c      ****             &frame->sats[0],
 473:minmea.c      ****             &frame->sats[1],
 474:minmea.c      ****             &frame->sats[2],
 475:minmea.c      ****             &frame->sats[3],
 476:minmea.c      ****             &frame->sats[4],
 477:minmea.c      ****             &frame->sats[5],
 478:minmea.c      ****             &frame->sats[6],
 479:minmea.c      ****             &frame->sats[7],
 480:minmea.c      ****             &frame->sats[8],
 481:minmea.c      ****             &frame->sats[9],
 482:minmea.c      ****             &frame->sats[10],
 483:minmea.c      ****             &frame->sats[11],
 484:minmea.c      ****             &frame->pdop,
ARM GAS  C:\Users\armst\AppData\Local\Temp\ccNPhHLt.s 			page 51


 485:minmea.c      ****             &frame->hdop,
 486:minmea.c      ****             &frame->vdop))
 487:minmea.c      ****         return false;
 488:minmea.c      ****     if (strcmp(type+2, "GSA"))
 2002              		.loc 1 488 0
 2003 0072 0649     		ldr	r1, .L198+4
 2004 0074 0DF14200 		add	r0, sp, #66
 2005 0078 FFF7FEFF 		bl	strcmp
 2006              	.LVL217:
 2007 007c 00B1     		cbz	r0, .L196
 489:minmea.c      ****         return false;
 2008              		.loc 1 489 0
 2009 007e 0024     		movs	r4, #0
 2010              	.L196:
 490:minmea.c      **** 
 491:minmea.c      ****     return true;
 492:minmea.c      **** }
 2011              		.loc 1 492 0
 2012 0080 2046     		mov	r0, r4
 2013 0082 12B0     		add	sp, sp, #72
 2014              		.cfi_def_cfa_offset 8
 2015              		@ sp needed
 2016 0084 10BD     		pop	{r4, pc}
 2017              	.L199:
 2018 0086 00BF     		.align	2
 2019              	.L198:
 2020 0088 54000000 		.word	.LC13
 2021 008c 10000000 		.word	.LC4
 2022              		.cfi_endproc
 2023              	.LFE14:
 2024              		.size	minmea_parse_gsa, .-minmea_parse_gsa
 2025              		.section	.text.minmea_parse_gll,"ax",%progbits
 2026              		.align	2
 2027              		.global	minmea_parse_gll
 2028              		.thumb
 2029              		.thumb_func
 2030              		.type	minmea_parse_gll, %function
 2031              	minmea_parse_gll:
 2032              	.LFB15:
 493:minmea.c      **** 
 494:minmea.c      **** bool minmea_parse_gll(struct minmea_sentence_gll *frame, const char *sentence)
 495:minmea.c      **** {
 2033              		.loc 1 495 0
 2034              		.cfi_startproc
 2035              		@ args = 0, pretend = 0, frame = 16
 2036              		@ frame_needed = 0, uses_anonymous_args = 0
 2037              	.LVL218:
 2038 0000 30B5     		push	{r4, r5, lr}
 2039              		.cfi_def_cfa_offset 12
 2040              		.cfi_offset 4, -12
 2041              		.cfi_offset 5, -8
 2042              		.cfi_offset 14, -4
 2043 0002 8BB0     		sub	sp, sp, #44
 2044              		.cfi_def_cfa_offset 56
 2045 0004 0446     		mov	r4, r0
 2046 0006 0846     		mov	r0, r1
 2047              	.LVL219:
ARM GAS  C:\Users\armst\AppData\Local\Temp\ccNPhHLt.s 			page 52


 496:minmea.c      ****     // $GPGLL,3723.2475,N,12158.3416,W,161229.487,A,A*41$;
 497:minmea.c      ****     char type[6];
 498:minmea.c      ****     int latitude_direction;
 499:minmea.c      ****     int longitude_direction;
 500:minmea.c      **** 
 501:minmea.c      ****     if (!minmea_scan(sentence, "tfdfdTc;c",
 2048              		.loc 1 501 0
 2049 0008 04F12103 		add	r3, r4, #33
 2050 000c 0593     		str	r3, [sp, #20]
 2051 000e 04F12003 		add	r3, r4, #32
 2052 0012 0493     		str	r3, [sp, #16]
 2053 0014 04F11003 		add	r3, r4, #16
 2054 0018 0393     		str	r3, [sp, #12]
 2055 001a 06AB     		add	r3, sp, #24
 2056 001c 0293     		str	r3, [sp, #8]
 2057 001e 04F10803 		add	r3, r4, #8
 2058 0022 0193     		str	r3, [sp, #4]
 2059 0024 07AB     		add	r3, sp, #28
 2060 0026 0093     		str	r3, [sp]
 2061 0028 2346     		mov	r3, r4
 2062 002a 08AA     		add	r2, sp, #32
 2063 002c 0C49     		ldr	r1, .L204
 2064              	.LVL220:
 2065 002e FFF7FEFF 		bl	minmea_scan
 2066              	.LVL221:
 2067 0032 0546     		mov	r5, r0
 2068 0034 88B1     		cbz	r0, .L201
 502:minmea.c      ****             type,
 503:minmea.c      ****             &frame->latitude, &latitude_direction,
 504:minmea.c      ****             &frame->longitude, &longitude_direction,
 505:minmea.c      ****             &frame->time,
 506:minmea.c      ****             &frame->status,
 507:minmea.c      ****             &frame->mode))
 508:minmea.c      ****         return false;
 509:minmea.c      ****     if (strcmp(type+2, "GLL"))
 2069              		.loc 1 509 0
 2070 0036 0B49     		ldr	r1, .L204+4
 2071 0038 0DF12200 		add	r0, sp, #34
 2072 003c FFF7FEFF 		bl	strcmp
 2073              	.LVL222:
 2074 0040 50B9     		cbnz	r0, .L202
 510:minmea.c      ****         return false;
 511:minmea.c      **** 
 512:minmea.c      ****     frame->latitude.value *= latitude_direction;
 2075              		.loc 1 512 0
 2076 0042 2268     		ldr	r2, [r4]
 2077 0044 079B     		ldr	r3, [sp, #28]
 2078 0046 03FB02F3 		mul	r3, r3, r2
 2079 004a 2360     		str	r3, [r4]
 513:minmea.c      ****     frame->longitude.value *= longitude_direction;
 2080              		.loc 1 513 0
 2081 004c A268     		ldr	r2, [r4, #8]
 2082 004e 069B     		ldr	r3, [sp, #24]
 2083 0050 03FB02F3 		mul	r3, r3, r2
 2084 0054 A360     		str	r3, [r4, #8]
 514:minmea.c      **** 
 515:minmea.c      ****     return true;
ARM GAS  C:\Users\armst\AppData\Local\Temp\ccNPhHLt.s 			page 53


 2085              		.loc 1 515 0
 2086 0056 00E0     		b	.L201
 2087              	.L202:
 510:minmea.c      **** 
 2088              		.loc 1 510 0
 2089 0058 0025     		movs	r5, #0
 2090              	.L201:
 516:minmea.c      **** }
 2091              		.loc 1 516 0
 2092 005a 2846     		mov	r0, r5
 2093 005c 0BB0     		add	sp, sp, #44
 2094              		.cfi_def_cfa_offset 12
 2095              		@ sp needed
 2096 005e 30BD     		pop	{r4, r5, pc}
 2097              	.LVL223:
 2098              	.L205:
 2099              		.align	2
 2100              	.L204:
 2101 0060 68000000 		.word	.LC14
 2102 0064 0C000000 		.word	.LC3
 2103              		.cfi_endproc
 2104              	.LFE15:
 2105              		.size	minmea_parse_gll, .-minmea_parse_gll
 2106              		.section	.text.minmea_parse_gst,"ax",%progbits
 2107              		.align	2
 2108              		.global	minmea_parse_gst
 2109              		.thumb
 2110              		.thumb_func
 2111              		.type	minmea_parse_gst, %function
 2112              	minmea_parse_gst:
 2113              	.LFB16:
 517:minmea.c      **** 
 518:minmea.c      **** bool minmea_parse_gst(struct minmea_sentence_gst *frame, const char *sentence)
 519:minmea.c      **** {
 2114              		.loc 1 519 0
 2115              		.cfi_startproc
 2116              		@ args = 0, pretend = 0, frame = 8
 2117              		@ frame_needed = 0, uses_anonymous_args = 0
 2118              	.LVL224:
 2119 0000 10B5     		push	{r4, lr}
 2120              		.cfi_def_cfa_offset 8
 2121              		.cfi_offset 4, -8
 2122              		.cfi_offset 14, -4
 2123 0002 8AB0     		sub	sp, sp, #40
 2124              		.cfi_def_cfa_offset 48
 2125 0004 0346     		mov	r3, r0
 2126 0006 0846     		mov	r0, r1
 2127              	.LVL225:
 520:minmea.c      ****     // $GPGST,024603.00,3.2,6.6,4.7,47.3,5.8,5.6,22.0*58
 521:minmea.c      ****     char type[6];
 522:minmea.c      **** 
 523:minmea.c      ****     if (!minmea_scan(sentence, "tTfffffff",
 2128              		.loc 1 523 0
 2129 0008 03F14002 		add	r2, r3, #64
 2130 000c 0692     		str	r2, [sp, #24]
 2131 000e 03F13802 		add	r2, r3, #56
 2132 0012 0592     		str	r2, [sp, #20]
ARM GAS  C:\Users\armst\AppData\Local\Temp\ccNPhHLt.s 			page 54


 2133 0014 03F13002 		add	r2, r3, #48
 2134 0018 0492     		str	r2, [sp, #16]
 2135 001a 03F12802 		add	r2, r3, #40
 2136 001e 0392     		str	r2, [sp, #12]
 2137 0020 03F12002 		add	r2, r3, #32
 2138 0024 0292     		str	r2, [sp, #8]
 2139 0026 03F11802 		add	r2, r3, #24
 2140 002a 0192     		str	r2, [sp, #4]
 2141 002c 03F11002 		add	r2, r3, #16
 2142 0030 0092     		str	r2, [sp]
 2143 0032 08AA     		add	r2, sp, #32
 2144 0034 0749     		ldr	r1, .L209
 2145              	.LVL226:
 2146 0036 FFF7FEFF 		bl	minmea_scan
 2147              	.LVL227:
 2148 003a 0446     		mov	r4, r0
 2149 003c 30B1     		cbz	r0, .L207
 524:minmea.c      ****             type,
 525:minmea.c      ****             &frame->time,
 526:minmea.c      ****             &frame->rms_deviation,
 527:minmea.c      ****             &frame->semi_major_deviation,
 528:minmea.c      ****             &frame->semi_minor_deviation,
 529:minmea.c      ****             &frame->semi_major_orientation,
 530:minmea.c      ****             &frame->latitude_error_deviation,
 531:minmea.c      ****             &frame->longitude_error_deviation,
 532:minmea.c      ****             &frame->altitude_error_deviation))
 533:minmea.c      ****         return false;
 534:minmea.c      ****     if (strcmp(type+2, "GST"))
 2150              		.loc 1 534 0
 2151 003e 0649     		ldr	r1, .L209+4
 2152 0040 0DF12200 		add	r0, sp, #34
 2153 0044 FFF7FEFF 		bl	strcmp
 2154              	.LVL228:
 2155 0048 00B1     		cbz	r0, .L207
 535:minmea.c      ****         return false;
 2156              		.loc 1 535 0
 2157 004a 0024     		movs	r4, #0
 2158              	.L207:
 536:minmea.c      **** 
 537:minmea.c      ****     return true;
 538:minmea.c      **** }
 2159              		.loc 1 538 0
 2160 004c 2046     		mov	r0, r4
 2161 004e 0AB0     		add	sp, sp, #40
 2162              		.cfi_def_cfa_offset 8
 2163              		@ sp needed
 2164 0050 10BD     		pop	{r4, pc}
 2165              	.L210:
 2166 0052 00BF     		.align	2
 2167              	.L209:
 2168 0054 74000000 		.word	.LC15
 2169 0058 14000000 		.word	.LC5
 2170              		.cfi_endproc
 2171              	.LFE16:
 2172              		.size	minmea_parse_gst, .-minmea_parse_gst
 2173              		.section	.text.minmea_parse_gsv,"ax",%progbits
 2174              		.align	2
ARM GAS  C:\Users\armst\AppData\Local\Temp\ccNPhHLt.s 			page 55


 2175              		.global	minmea_parse_gsv
 2176              		.thumb
 2177              		.thumb_func
 2178              		.type	minmea_parse_gsv, %function
 2179              	minmea_parse_gsv:
 2180              	.LFB17:
 539:minmea.c      **** 
 540:minmea.c      **** bool minmea_parse_gsv(struct minmea_sentence_gsv *frame, const char *sentence)
 541:minmea.c      **** {
 2181              		.loc 1 541 0
 2182              		.cfi_startproc
 2183              		@ args = 0, pretend = 0, frame = 8
 2184              		@ frame_needed = 0, uses_anonymous_args = 0
 2185              	.LVL229:
 2186 0000 10B5     		push	{r4, lr}
 2187              		.cfi_def_cfa_offset 8
 2188              		.cfi_offset 4, -8
 2189              		.cfi_offset 14, -4
 2190 0002 94B0     		sub	sp, sp, #80
 2191              		.cfi_def_cfa_offset 88
 2192 0004 0346     		mov	r3, r0
 2193 0006 0846     		mov	r0, r1
 2194              	.LVL230:
 542:minmea.c      ****     // $GPGSV,3,1,11,03,03,111,00,04,15,270,00,06,01,010,00,13,06,292,00*74
 543:minmea.c      ****     // $GPGSV,3,3,11,22,42,067,42,24,14,311,43,27,05,244,00,,,,*4D
 544:minmea.c      ****     // $GPGSV,4,2,11,08,51,203,30,09,45,215,28*75
 545:minmea.c      ****     // $GPGSV,4,4,13,39,31,170,27*40
 546:minmea.c      ****     // $GPGSV,4,4,13*7B
 547:minmea.c      ****     char type[6];
 548:minmea.c      **** 
 549:minmea.c      ****     if (!minmea_scan(sentence, "tiii;iiiiiiiiiiiiiiii",
 2195              		.loc 1 549 0
 2196 0008 03F14802 		add	r2, r3, #72
 2197 000c 1192     		str	r2, [sp, #68]
 2198 000e 03F14402 		add	r2, r3, #68
 2199 0012 1092     		str	r2, [sp, #64]
 2200 0014 03F14002 		add	r2, r3, #64
 2201 0018 0F92     		str	r2, [sp, #60]
 2202 001a 03F13C02 		add	r2, r3, #60
 2203 001e 0E92     		str	r2, [sp, #56]
 2204 0020 03F13802 		add	r2, r3, #56
 2205 0024 0D92     		str	r2, [sp, #52]
 2206 0026 03F13402 		add	r2, r3, #52
 2207 002a 0C92     		str	r2, [sp, #48]
 2208 002c 03F13002 		add	r2, r3, #48
 2209 0030 0B92     		str	r2, [sp, #44]
 2210 0032 03F12C02 		add	r2, r3, #44
 2211 0036 0A92     		str	r2, [sp, #40]
 2212 0038 03F12802 		add	r2, r3, #40
 2213 003c 0992     		str	r2, [sp, #36]
 2214 003e 03F12402 		add	r2, r3, #36
 2215 0042 0892     		str	r2, [sp, #32]
 2216 0044 03F12002 		add	r2, r3, #32
 2217 0048 0792     		str	r2, [sp, #28]
 2218 004a 03F11C02 		add	r2, r3, #28
 2219 004e 0692     		str	r2, [sp, #24]
 2220 0050 03F11802 		add	r2, r3, #24
ARM GAS  C:\Users\armst\AppData\Local\Temp\ccNPhHLt.s 			page 56


 2221 0054 0592     		str	r2, [sp, #20]
 2222 0056 03F11402 		add	r2, r3, #20
 2223 005a 0492     		str	r2, [sp, #16]
 2224 005c 03F11002 		add	r2, r3, #16
 2225 0060 0392     		str	r2, [sp, #12]
 2226 0062 03F10C02 		add	r2, r3, #12
 2227 0066 0292     		str	r2, [sp, #8]
 2228 0068 03F10802 		add	r2, r3, #8
 2229 006c 0192     		str	r2, [sp, #4]
 2230 006e 1A1D     		adds	r2, r3, #4
 2231 0070 0092     		str	r2, [sp]
 2232 0072 12AA     		add	r2, sp, #72
 2233 0074 0749     		ldr	r1, .L214
 2234              	.LVL231:
 2235 0076 FFF7FEFF 		bl	minmea_scan
 2236              	.LVL232:
 2237 007a 0446     		mov	r4, r0
 2238 007c 30B1     		cbz	r0, .L212
 550:minmea.c      ****             type,
 551:minmea.c      ****             &frame->total_msgs,
 552:minmea.c      ****             &frame->msg_nr,
 553:minmea.c      ****             &frame->total_sats,
 554:minmea.c      ****             &frame->sats[0].nr,
 555:minmea.c      ****             &frame->sats[0].elevation,
 556:minmea.c      ****             &frame->sats[0].azimuth,
 557:minmea.c      ****             &frame->sats[0].snr,
 558:minmea.c      ****             &frame->sats[1].nr,
 559:minmea.c      ****             &frame->sats[1].elevation,
 560:minmea.c      ****             &frame->sats[1].azimuth,
 561:minmea.c      ****             &frame->sats[1].snr,
 562:minmea.c      ****             &frame->sats[2].nr,
 563:minmea.c      ****             &frame->sats[2].elevation,
 564:minmea.c      ****             &frame->sats[2].azimuth,
 565:minmea.c      ****             &frame->sats[2].snr,
 566:minmea.c      ****             &frame->sats[3].nr,
 567:minmea.c      ****             &frame->sats[3].elevation,
 568:minmea.c      ****             &frame->sats[3].azimuth,
 569:minmea.c      ****             &frame->sats[3].snr
 570:minmea.c      ****             )) {
 571:minmea.c      ****         return false;
 572:minmea.c      ****     }
 573:minmea.c      ****     if (strcmp(type+2, "GSV"))
 2239              		.loc 1 573 0
 2240 007e 0649     		ldr	r1, .L214+4
 2241 0080 0DF14A00 		add	r0, sp, #74
 2242 0084 FFF7FEFF 		bl	strcmp
 2243              	.LVL233:
 2244 0088 00B1     		cbz	r0, .L212
 574:minmea.c      ****         return false;
 2245              		.loc 1 574 0
 2246 008a 0024     		movs	r4, #0
 2247              	.L212:
 575:minmea.c      **** 
 576:minmea.c      ****     return true;
 577:minmea.c      **** }
 2248              		.loc 1 577 0
 2249 008c 2046     		mov	r0, r4
ARM GAS  C:\Users\armst\AppData\Local\Temp\ccNPhHLt.s 			page 57


 2250 008e 14B0     		add	sp, sp, #80
 2251              		.cfi_def_cfa_offset 8
 2252              		@ sp needed
 2253 0090 10BD     		pop	{r4, pc}
 2254              	.L215:
 2255 0092 00BF     		.align	2
 2256              	.L214:
 2257 0094 80000000 		.word	.LC16
 2258 0098 18000000 		.word	.LC6
 2259              		.cfi_endproc
 2260              	.LFE17:
 2261              		.size	minmea_parse_gsv, .-minmea_parse_gsv
 2262              		.section	.text.minmea_parse_vtg,"ax",%progbits
 2263              		.align	2
 2264              		.global	minmea_parse_vtg
 2265              		.thumb
 2266              		.thumb_func
 2267              		.type	minmea_parse_vtg, %function
 2268              	minmea_parse_vtg:
 2269              	.LFB18:
 578:minmea.c      **** 
 579:minmea.c      **** bool minmea_parse_vtg(struct minmea_sentence_vtg *frame, const char *sentence)
 580:minmea.c      **** {
 2270              		.loc 1 580 0
 2271              		.cfi_startproc
 2272              		@ args = 0, pretend = 0, frame = 16
 2273              		@ frame_needed = 0, uses_anonymous_args = 0
 2274              	.LVL234:
 2275 0000 30B5     		push	{r4, r5, lr}
 2276              		.cfi_def_cfa_offset 12
 2277              		.cfi_offset 4, -12
 2278              		.cfi_offset 5, -8
 2279              		.cfi_offset 14, -4
 2280 0002 8DB0     		sub	sp, sp, #52
 2281              		.cfi_def_cfa_offset 64
 2282 0004 0446     		mov	r4, r0
 2283 0006 0846     		mov	r0, r1
 2284              	.LVL235:
 581:minmea.c      ****     // $GPVTG,054.7,T,034.4,M,005.5,N,010.2,K*48
 582:minmea.c      ****     // $GPVTG,156.1,T,140.9,M,0.0,N,0.0,K*41
 583:minmea.c      ****     // $GPVTG,096.5,T,083.5,M,0.0,N,0.0,K,D*22
 584:minmea.c      ****     // $GPVTG,188.36,T,,M,0.820,N,1.519,K,A*3F
 585:minmea.c      ****     char type[6];
 586:minmea.c      ****     char c_true, c_magnetic, c_knots, c_kph, c_faa_mode;
 587:minmea.c      **** 
 588:minmea.c      ****     if (!minmea_scan(sentence, "t;fcfcfcfcc",
 2285              		.loc 1 588 0
 2286 0008 0DF12303 		add	r3, sp, #35
 2287 000c 0793     		str	r3, [sp, #28]
 2288 000e 09AB     		add	r3, sp, #36
 2289 0010 0693     		str	r3, [sp, #24]
 2290 0012 04F11803 		add	r3, r4, #24
 2291 0016 0593     		str	r3, [sp, #20]
 2292 0018 0DF12503 		add	r3, sp, #37
 2293 001c 0493     		str	r3, [sp, #16]
 2294 001e 04F11003 		add	r3, r4, #16
 2295 0022 0393     		str	r3, [sp, #12]
ARM GAS  C:\Users\armst\AppData\Local\Temp\ccNPhHLt.s 			page 58


 2296 0024 0DF12603 		add	r3, sp, #38
 2297 0028 0293     		str	r3, [sp, #8]
 2298 002a 04F10803 		add	r3, r4, #8
 2299 002e 0193     		str	r3, [sp, #4]
 2300 0030 0DF12703 		add	r3, sp, #39
 2301 0034 0093     		str	r3, [sp]
 2302 0036 2346     		mov	r3, r4
 2303 0038 0AAA     		add	r2, sp, #40
 2304 003a 1649     		ldr	r1, .L224
 2305              	.LVL236:
 2306 003c FFF7FEFF 		bl	minmea_scan
 2307              	.LVL237:
 2308 0040 0546     		mov	r5, r0
 2309 0042 18B3     		cbz	r0, .L217
 589:minmea.c      ****             type,
 590:minmea.c      ****             &frame->true_track_degrees,
 591:minmea.c      ****             &c_true,
 592:minmea.c      ****             &frame->magnetic_track_degrees,
 593:minmea.c      ****             &c_magnetic,
 594:minmea.c      ****             &frame->speed_knots,
 595:minmea.c      ****             &c_knots,
 596:minmea.c      ****             &frame->speed_kph,
 597:minmea.c      ****             &c_kph,
 598:minmea.c      ****             &c_faa_mode))
 599:minmea.c      ****         return false;
 600:minmea.c      ****     if (strcmp(type+2, "VTG"))
 2310              		.loc 1 600 0
 2311 0044 1449     		ldr	r1, .L224+4
 2312 0046 0DF12A00 		add	r0, sp, #42
 2313 004a FFF7FEFF 		bl	strcmp
 2314              	.LVL238:
 2315 004e E0B9     		cbnz	r0, .L222
 601:minmea.c      ****         return false;
 602:minmea.c      ****     // values are only valid with the accompanying characters
 603:minmea.c      ****     if (c_true != 'T')
 2316              		.loc 1 603 0
 2317 0050 9DF82730 		ldrb	r3, [sp, #39]	@ zero_extendqisi2
 2318 0054 542B     		cmp	r3, #84
 2319 0056 01D0     		beq	.L218
 604:minmea.c      ****         frame->true_track_degrees.scale = 0;
 2320              		.loc 1 604 0
 2321 0058 0023     		movs	r3, #0
 2322 005a 6360     		str	r3, [r4, #4]
 2323              	.L218:
 605:minmea.c      ****     if (c_magnetic != 'M')
 2324              		.loc 1 605 0
 2325 005c 9DF82630 		ldrb	r3, [sp, #38]	@ zero_extendqisi2
 2326 0060 4D2B     		cmp	r3, #77
 2327 0062 01D0     		beq	.L219
 606:minmea.c      ****         frame->magnetic_track_degrees.scale = 0;
 2328              		.loc 1 606 0
 2329 0064 0023     		movs	r3, #0
 2330 0066 E360     		str	r3, [r4, #12]
 2331              	.L219:
 607:minmea.c      ****     if (c_knots != 'N')
 2332              		.loc 1 607 0
 2333 0068 9DF82530 		ldrb	r3, [sp, #37]	@ zero_extendqisi2
ARM GAS  C:\Users\armst\AppData\Local\Temp\ccNPhHLt.s 			page 59


 2334 006c 4E2B     		cmp	r3, #78
 2335 006e 01D0     		beq	.L220
 608:minmea.c      ****         frame->speed_knots.scale = 0;
 2336              		.loc 1 608 0
 2337 0070 0023     		movs	r3, #0
 2338 0072 6361     		str	r3, [r4, #20]
 2339              	.L220:
 609:minmea.c      ****     if (c_kph != 'K')
 2340              		.loc 1 609 0
 2341 0074 9DF82430 		ldrb	r3, [sp, #36]	@ zero_extendqisi2
 2342 0078 4B2B     		cmp	r3, #75
 2343 007a 01D0     		beq	.L221
 610:minmea.c      ****         frame->speed_kph.scale = 0;
 2344              		.loc 1 610 0
 2345 007c 0023     		movs	r3, #0
 2346 007e E361     		str	r3, [r4, #28]
 2347              	.L221:
 611:minmea.c      ****     frame->faa_mode = (enum minmea_faa_mode)c_faa_mode;
 2348              		.loc 1 611 0
 2349 0080 9DF82330 		ldrb	r3, [sp, #35]	@ zero_extendqisi2
 2350 0084 84F82030 		strb	r3, [r4, #32]
 612:minmea.c      **** 
 613:minmea.c      ****     return true;
 2351              		.loc 1 613 0
 2352 0088 00E0     		b	.L217
 2353              	.L222:
 601:minmea.c      ****     // values are only valid with the accompanying characters
 2354              		.loc 1 601 0
 2355 008a 0025     		movs	r5, #0
 2356              	.L217:
 614:minmea.c      **** }
 2357              		.loc 1 614 0
 2358 008c 2846     		mov	r0, r5
 2359 008e 0DB0     		add	sp, sp, #52
 2360              		.cfi_def_cfa_offset 12
 2361              		@ sp needed
 2362 0090 30BD     		pop	{r4, r5, pc}
 2363              	.LVL239:
 2364              	.L225:
 2365 0092 00BF     		.align	2
 2366              	.L224:
 2367 0094 98000000 		.word	.LC17
 2368 0098 20000000 		.word	.LC8
 2369              		.cfi_endproc
 2370              	.LFE18:
 2371              		.size	minmea_parse_vtg, .-minmea_parse_vtg
 2372              		.section	.text.minmea_parse_zda,"ax",%progbits
 2373              		.align	2
 2374              		.global	minmea_parse_zda
 2375              		.thumb
 2376              		.thumb_func
 2377              		.type	minmea_parse_zda, %function
 2378              	minmea_parse_zda:
 2379              	.LFB19:
 615:minmea.c      **** 
 616:minmea.c      **** bool minmea_parse_zda(struct minmea_sentence_zda *frame, const char *sentence)
 617:minmea.c      **** {
ARM GAS  C:\Users\armst\AppData\Local\Temp\ccNPhHLt.s 			page 60


 2380              		.loc 1 617 0
 2381              		.cfi_startproc
 2382              		@ args = 0, pretend = 0, frame = 8
 2383              		@ frame_needed = 0, uses_anonymous_args = 0
 2384              	.LVL240:
 2385 0000 30B5     		push	{r4, r5, lr}
 2386              		.cfi_def_cfa_offset 12
 2387              		.cfi_offset 4, -12
 2388              		.cfi_offset 5, -8
 2389              		.cfi_offset 14, -4
 2390 0002 89B0     		sub	sp, sp, #36
 2391              		.cfi_def_cfa_offset 48
 2392 0004 0446     		mov	r4, r0
 2393 0006 0846     		mov	r0, r1
 2394              	.LVL241:
 618:minmea.c      ****   // $GPZDA,201530.00,04,07,2002,00,00*60
 619:minmea.c      ****   char type[6];
 620:minmea.c      **** 
 621:minmea.c      ****   if(!minmea_scan(sentence, "tTiiiii",
 2395              		.loc 1 621 0
 2396 0008 04F12003 		add	r3, r4, #32
 2397 000c 0493     		str	r3, [sp, #16]
 2398 000e 04F11C03 		add	r3, r4, #28
 2399 0012 0393     		str	r3, [sp, #12]
 2400 0014 04F11803 		add	r3, r4, #24
 2401 0018 0293     		str	r3, [sp, #8]
 2402 001a 04F11403 		add	r3, r4, #20
 2403 001e 0193     		str	r3, [sp, #4]
 2404 0020 04F11003 		add	r3, r4, #16
 2405 0024 0093     		str	r3, [sp]
 2406 0026 2346     		mov	r3, r4
 2407 0028 06AA     		add	r2, sp, #24
 2408 002a 1049     		ldr	r1, .L232
 2409              	.LVL242:
 2410 002c FFF7FEFF 		bl	minmea_scan
 2411              	.LVL243:
 2412 0030 0546     		mov	r5, r0
 2413 0032 B8B1     		cbz	r0, .L227
 622:minmea.c      ****           type,
 623:minmea.c      ****           &frame->time,
 624:minmea.c      ****           &frame->date.day,
 625:minmea.c      ****           &frame->date.month,
 626:minmea.c      ****           &frame->date.year,
 627:minmea.c      ****           &frame->hour_offset,
 628:minmea.c      ****           &frame->minute_offset))
 629:minmea.c      ****       return false;
 630:minmea.c      ****   if (strcmp(type+2, "ZDA"))
 2414              		.loc 1 630 0
 2415 0034 0E49     		ldr	r1, .L232+4
 2416 0036 0DF11A00 		add	r0, sp, #26
 2417 003a FFF7FEFF 		bl	strcmp
 2418              	.LVL244:
 2419 003e 60B9     		cbnz	r0, .L228
 631:minmea.c      ****       return false;
 632:minmea.c      **** 
 633:minmea.c      ****   // check offsets
 634:minmea.c      ****   if (abs(frame->hour_offset) > 13 ||
ARM GAS  C:\Users\armst\AppData\Local\Temp\ccNPhHLt.s 			page 61


 2420              		.loc 1 634 0
 2421 0040 E369     		ldr	r3, [r4, #28]
 2422 0042 002B     		cmp	r3, #0
 2423 0044 B8BF     		it	lt
 2424 0046 5B42     		rsblt	r3, r3, #0
 2425 0048 0D2B     		cmp	r3, #13
 2426 004a 08DC     		bgt	.L229
 635:minmea.c      ****       frame->minute_offset > 59 ||
 2427              		.loc 1 635 0 discriminator 1
 2428 004c 236A     		ldr	r3, [r4, #32]
 634:minmea.c      ****       frame->minute_offset > 59 ||
 2429              		.loc 1 634 0 discriminator 1
 2430 004e 3B2B     		cmp	r3, #59
 2431 0050 07DC     		bgt	.L230
 2432              		.loc 1 635 0
 2433 0052 002B     		cmp	r3, #0
 2434 0054 06DA     		bge	.L227
 636:minmea.c      ****       frame->minute_offset < 0)
 637:minmea.c      ****       return false;
 2435              		.loc 1 637 0
 2436 0056 0025     		movs	r5, #0
 2437 0058 04E0     		b	.L227
 2438              	.L228:
 631:minmea.c      **** 
 2439              		.loc 1 631 0
 2440 005a 0025     		movs	r5, #0
 2441 005c 02E0     		b	.L227
 2442              	.L229:
 2443              		.loc 1 637 0
 2444 005e 0025     		movs	r5, #0
 2445 0060 00E0     		b	.L227
 2446              	.L230:
 2447 0062 0025     		movs	r5, #0
 2448              	.L227:
 638:minmea.c      **** 
 639:minmea.c      ****   return true;
 640:minmea.c      **** }
 2449              		.loc 1 640 0
 2450 0064 2846     		mov	r0, r5
 2451 0066 09B0     		add	sp, sp, #36
 2452              		.cfi_def_cfa_offset 12
 2453              		@ sp needed
 2454 0068 30BD     		pop	{r4, r5, pc}
 2455              	.LVL245:
 2456              	.L233:
 2457 006a 00BF     		.align	2
 2458              	.L232:
 2459 006c A4000000 		.word	.LC18
 2460 0070 24000000 		.word	.LC9
 2461              		.cfi_endproc
 2462              	.LFE19:
 2463              		.size	minmea_parse_zda, .-minmea_parse_zda
 2464              		.section	.text.minmea_getdatetime,"ax",%progbits
 2465              		.align	2
 2466              		.global	minmea_getdatetime
 2467              		.thumb
 2468              		.thumb_func
ARM GAS  C:\Users\armst\AppData\Local\Temp\ccNPhHLt.s 			page 62


 2469              		.type	minmea_getdatetime, %function
 2470              	minmea_getdatetime:
 2471              	.LFB20:
 641:minmea.c      **** 
 642:minmea.c      **** int minmea_getdatetime(struct tm *tm, const struct minmea_date *date, const struct minmea_time *tim
 643:minmea.c      **** {
 2472              		.loc 1 643 0
 2473              		.cfi_startproc
 2474              		@ args = 0, pretend = 0, frame = 0
 2475              		@ frame_needed = 0, uses_anonymous_args = 0
 2476              	.LVL246:
 644:minmea.c      ****     if (date->year == -1 || time_->hours == -1)
 2477              		.loc 1 644 0
 2478 0000 8B68     		ldr	r3, [r1, #8]
 2479 0002 B3F1FF3F 		cmp	r3, #-1
 2480 0006 28D0     		beq	.L240
 2481              		.loc 1 644 0 is_stmt 0 discriminator 1
 2482 0008 1368     		ldr	r3, [r2]
 2483 000a B3F1FF3F 		cmp	r3, #-1
 2484 000e 24D0     		beq	.L240
 643:minmea.c      ****     if (date->year == -1 || time_->hours == -1)
 2485              		.loc 1 643 0 is_stmt 1
 2486 0010 70B5     		push	{r4, r5, r6, lr}
 2487              		.cfi_def_cfa_offset 16
 2488              		.cfi_offset 4, -16
 2489              		.cfi_offset 5, -12
 2490              		.cfi_offset 6, -8
 2491              		.cfi_offset 14, -4
 2492 0012 1646     		mov	r6, r2
 2493 0014 0D46     		mov	r5, r1
 2494 0016 0446     		mov	r4, r0
 645:minmea.c      ****         return -1;
 646:minmea.c      **** 
 647:minmea.c      ****     memset(tm, 0, sizeof(*tm));
 2495              		.loc 1 647 0
 2496 0018 2422     		movs	r2, #36
 2497              	.LVL247:
 2498 001a 0021     		movs	r1, #0
 2499              	.LVL248:
 2500 001c FFF7FEFF 		bl	memset
 2501              	.LVL249:
 648:minmea.c      ****     if (date->year < 80) {
 2502              		.loc 1 648 0
 2503 0020 AB68     		ldr	r3, [r5, #8]
 2504 0022 4F2B     		cmp	r3, #79
 2505 0024 02DC     		bgt	.L236
 649:minmea.c      ****         tm->tm_year = 2000 + date->year - 1900; // 2000-2079
 2506              		.loc 1 649 0
 2507 0026 6433     		adds	r3, r3, #100
 2508 0028 6361     		str	r3, [r4, #20]
 2509 002a 08E0     		b	.L237
 2510              	.L236:
 650:minmea.c      ****     } else if (date->year >= 1900) {
 2511              		.loc 1 650 0
 2512 002c 40F26B72 		movw	r2, #1899
 2513 0030 9342     		cmp	r3, r2
 2514 0032 03DD     		ble	.L238
ARM GAS  C:\Users\armst\AppData\Local\Temp\ccNPhHLt.s 			page 63


 651:minmea.c      ****         tm->tm_year = date->year - 1900;        // 4 digit year, use directly
 2515              		.loc 1 651 0
 2516 0034 A3F26C73 		subw	r3, r3, #1900
 2517 0038 6361     		str	r3, [r4, #20]
 2518 003a 00E0     		b	.L237
 2519              	.L238:
 652:minmea.c      ****     } else {
 653:minmea.c      ****         tm->tm_year = date->year;               // 1980-1999
 2520              		.loc 1 653 0
 2521 003c 6361     		str	r3, [r4, #20]
 2522              	.L237:
 654:minmea.c      ****     }
 655:minmea.c      ****     tm->tm_mon = date->month - 1;
 2523              		.loc 1 655 0
 2524 003e 6B68     		ldr	r3, [r5, #4]
 2525 0040 013B     		subs	r3, r3, #1
 2526 0042 2361     		str	r3, [r4, #16]
 656:minmea.c      ****     tm->tm_mday = date->day;
 2527              		.loc 1 656 0
 2528 0044 2B68     		ldr	r3, [r5]
 2529 0046 E360     		str	r3, [r4, #12]
 657:minmea.c      ****     tm->tm_hour = time_->hours;
 2530              		.loc 1 657 0
 2531 0048 3368     		ldr	r3, [r6]
 2532 004a A360     		str	r3, [r4, #8]
 658:minmea.c      ****     tm->tm_min = time_->minutes;
 2533              		.loc 1 658 0
 2534 004c 7368     		ldr	r3, [r6, #4]
 2535 004e 6360     		str	r3, [r4, #4]
 659:minmea.c      ****     tm->tm_sec = time_->seconds;
 2536              		.loc 1 659 0
 2537 0050 B368     		ldr	r3, [r6, #8]
 2538 0052 2360     		str	r3, [r4]
 660:minmea.c      **** 
 661:minmea.c      ****     return 0;
 2539              		.loc 1 661 0
 2540 0054 0023     		movs	r3, #0
 662:minmea.c      **** }
 2541              		.loc 1 662 0
 2542 0056 1846     		mov	r0, r3
 2543 0058 70BD     		pop	{r4, r5, r6, pc}
 2544              	.LVL250:
 2545              	.L240:
 2546              		.cfi_def_cfa_offset 0
 2547              		.cfi_restore 4
 2548              		.cfi_restore 5
 2549              		.cfi_restore 6
 2550              		.cfi_restore 14
 2551 005a 1846     		mov	r0, r3
 2552              	.LVL251:
 2553 005c 7047     		bx	lr
 2554              		.cfi_endproc
 2555              	.LFE20:
 2556              		.size	minmea_getdatetime, .-minmea_getdatetime
 2557 005e 00BF     		.section	.rodata.str1.4,"aMS",%progbits,1
 2558              		.align	2
 2559              	.LC0:
ARM GAS  C:\Users\armst\AppData\Local\Temp\ccNPhHLt.s 			page 64


 2560 0000 7400     		.ascii	"t\000"
 2561 0002 0000     		.space	2
 2562              	.LC1:
 2563 0004 47425300 		.ascii	"GBS\000"
 2564              	.LC2:
 2565 0008 47474100 		.ascii	"GGA\000"
 2566              	.LC3:
 2567 000c 474C4C00 		.ascii	"GLL\000"
 2568              	.LC4:
 2569 0010 47534100 		.ascii	"GSA\000"
 2570              	.LC5:
 2571 0014 47535400 		.ascii	"GST\000"
 2572              	.LC6:
 2573 0018 47535600 		.ascii	"GSV\000"
 2574              	.LC7:
 2575 001c 524D4300 		.ascii	"RMC\000"
 2576              	.LC8:
 2577 0020 56544700 		.ascii	"VTG\000"
 2578              	.LC9:
 2579 0024 5A444100 		.ascii	"ZDA\000"
 2580              	.LC10:
 2581 0028 74546666 		.ascii	"tTfffifff\000"
 2581      66696666 
 2581      6600
 2582 0032 0000     		.space	2
 2583              	.LC11:
 2584 0034 74546366 		.ascii	"tTcfdfdffDfd\000"
 2584      64666466 
 2584      66446664 
 2584      00
 2585 0041 000000   		.space	3
 2586              	.LC12:
 2587 0044 74546664 		.ascii	"tTfdfdiiffcfcf_\000"
 2587      66646969 
 2587      66666366 
 2587      63665F00 
 2588              	.LC13:
 2589 0054 74636969 		.ascii	"tciiiiiiiiiiiiifff\000"
 2589      69696969 
 2589      69696969 
 2589      69696966 
 2589      666600
 2590 0067 00       		.space	1
 2591              	.LC14:
 2592 0068 74666466 		.ascii	"tfdfdTc;c\000"
 2592      6454633B 
 2592      6300
 2593 0072 0000     		.space	2
 2594              	.LC15:
 2595 0074 74546666 		.ascii	"tTfffffff\000"
 2595      66666666 
 2595      6600
 2596 007e 0000     		.space	2
 2597              	.LC16:
 2598 0080 74696969 		.ascii	"tiii;iiiiiiiiiiiiiiii\000"
 2598      3B696969 
 2598      69696969 
ARM GAS  C:\Users\armst\AppData\Local\Temp\ccNPhHLt.s 			page 65


 2598      69696969 
 2598      69696969 
 2599 0096 0000     		.space	2
 2600              	.LC17:
 2601 0098 743B6663 		.ascii	"t;fcfcfcfcc\000"
 2601      66636663 
 2601      66636300 
 2602              	.LC18:
 2603 00a4 74546969 		.ascii	"tTiiiii\000"
 2603      69696900 
 2604              		.text
 2605              	.Letext0:
 2606              		.file 3 "c:\\program files (x86)\\cypress\\psoc creator\\4.4\\psoc creator\\import\\gnu\\arm\\5.4.
 2607              		.file 4 "c:\\program files (x86)\\cypress\\psoc creator\\4.4\\psoc creator\\import\\gnu\\arm\\5.4.
 2608              		.file 5 "c:\\program files (x86)\\cypress\\psoc creator\\4.4\\psoc creator\\import\\gnu\\arm\\5.4.
 2609              		.file 6 "c:\\program files (x86)\\cypress\\psoc creator\\4.4\\psoc creator\\import\\gnu\\arm\\5.4.
 2610              		.file 7 "<built-in>"
 2611              		.file 8 "c:\\program files (x86)\\cypress\\psoc creator\\4.4\\psoc creator\\import\\gnu\\arm\\5.4.
 2612              		.file 9 "c:\\program files (x86)\\cypress\\psoc creator\\4.4\\psoc creator\\import\\gnu\\arm\\5.4.
 2613              		.file 10 "c:\\program files (x86)\\cypress\\psoc creator\\4.4\\psoc creator\\import\\gnu\\arm\\5.4
 2614              		.file 11 "c:\\program files (x86)\\cypress\\psoc creator\\4.4\\psoc creator\\import\\gnu\\arm\\5.4
 2615              		.section	.debug_info,"",%progbits
 2616              	.Ldebug_info0:
 2617 0000 BC170000 		.4byte	0x17bc
 2618 0004 0400     		.2byte	0x4
 2619 0006 00000000 		.4byte	.Ldebug_abbrev0
 2620 000a 04       		.byte	0x4
 2621 000b 01       		.uleb128 0x1
 2622 000c 1C010000 		.4byte	.LASF170
 2623 0010 0C       		.byte	0xc
 2624 0011 70090000 		.4byte	.LASF171
 2625 0015 E0020000 		.4byte	.LASF172
 2626 0019 20010000 		.4byte	.Ldebug_ranges0+0x120
 2627 001d 00000000 		.4byte	0
 2628 0021 00000000 		.4byte	.Ldebug_line0
 2629 0025 02       		.uleb128 0x2
 2630 0026 01       		.byte	0x1
 2631 0027 06       		.byte	0x6
 2632 0028 A4080000 		.4byte	.LASF0
 2633 002c 03       		.uleb128 0x3
 2634 002d 57070000 		.4byte	.LASF5
 2635 0031 03       		.byte	0x3
 2636 0032 1D       		.byte	0x1d
 2637 0033 37000000 		.4byte	0x37
 2638 0037 02       		.uleb128 0x2
 2639 0038 01       		.byte	0x1
 2640 0039 08       		.byte	0x8
 2641 003a 1E080000 		.4byte	.LASF1
 2642 003e 02       		.uleb128 0x2
 2643 003f 02       		.byte	0x2
 2644 0040 05       		.byte	0x5
 2645 0041 DC060000 		.4byte	.LASF2
 2646 0045 02       		.uleb128 0x2
 2647 0046 02       		.byte	0x2
 2648 0047 07       		.byte	0x7
 2649 0048 B0080000 		.4byte	.LASF3
 2650 004c 02       		.uleb128 0x2
ARM GAS  C:\Users\armst\AppData\Local\Temp\ccNPhHLt.s 			page 66


 2651 004d 04       		.byte	0x4
 2652 004e 05       		.byte	0x5
 2653 004f E6060000 		.4byte	.LASF4
 2654 0053 03       		.uleb128 0x3
 2655 0054 2C080000 		.4byte	.LASF6
 2656 0058 03       		.byte	0x3
 2657 0059 41       		.byte	0x41
 2658 005a 5E000000 		.4byte	0x5e
 2659 005e 02       		.uleb128 0x2
 2660 005f 04       		.byte	0x4
 2661 0060 07       		.byte	0x7
 2662 0061 D0070000 		.4byte	.LASF7
 2663 0065 02       		.uleb128 0x2
 2664 0066 08       		.byte	0x8
 2665 0067 05       		.byte	0x5
 2666 0068 4F050000 		.4byte	.LASF8
 2667 006c 02       		.uleb128 0x2
 2668 006d 08       		.byte	0x8
 2669 006e 07       		.byte	0x7
 2670 006f B2020000 		.4byte	.LASF9
 2671 0073 03       		.uleb128 0x3
 2672 0074 BE000000 		.4byte	.LASF10
 2673 0078 03       		.byte	0x3
 2674 0079 A8       		.byte	0xa8
 2675 007a 4C000000 		.4byte	0x4c
 2676 007e 04       		.uleb128 0x4
 2677 007f 04       		.byte	0x4
 2678 0080 05       		.byte	0x5
 2679 0081 696E7400 		.ascii	"int\000"
 2680 0085 02       		.uleb128 0x2
 2681 0086 04       		.byte	0x4
 2682 0087 07       		.byte	0x7
 2683 0088 83000000 		.4byte	.LASF11
 2684 008c 02       		.uleb128 0x2
 2685 008d 08       		.byte	0x8
 2686 008e 04       		.byte	0x4
 2687 008f 7D060000 		.4byte	.LASF12
 2688 0093 03       		.uleb128 0x3
 2689 0094 B1040000 		.4byte	.LASF13
 2690 0098 04       		.byte	0x4
 2691 0099 18       		.byte	0x18
 2692 009a 2C000000 		.4byte	0x2c
 2693 009e 03       		.uleb128 0x3
 2694 009f 27020000 		.4byte	.LASF14
 2695 00a3 04       		.byte	0x4
 2696 00a4 30       		.byte	0x30
 2697 00a5 53000000 		.4byte	0x53
 2698 00a9 03       		.uleb128 0x3
 2699 00aa E9070000 		.4byte	.LASF15
 2700 00ae 05       		.byte	0x5
 2701 00af 21       		.byte	0x21
 2702 00b0 73000000 		.4byte	0x73
 2703 00b4 02       		.uleb128 0x2
 2704 00b5 04       		.byte	0x4
 2705 00b6 07       		.byte	0x7
 2706 00b7 BE070000 		.4byte	.LASF16
 2707 00bb 05       		.uleb128 0x5
ARM GAS  C:\Users\armst\AppData\Local\Temp\ccNPhHLt.s 			page 67


 2708 00bc 04       		.byte	0x4
 2709 00bd 06       		.uleb128 0x6
 2710 00be AF070000 		.4byte	.LASF18
 2711 00c2 04       		.byte	0x4
 2712 00c3 07       		.byte	0x7
 2713 00c4 00       		.byte	0
 2714 00c5 D4000000 		.4byte	0xd4
 2715 00c9 07       		.uleb128 0x7
 2716 00ca AC050000 		.4byte	.LASF173
 2717 00ce BB000000 		.4byte	0xbb
 2718 00d2 00       		.byte	0
 2719 00d3 00       		.byte	0
 2720 00d4 08       		.uleb128 0x8
 2721 00d5 04       		.byte	0x4
 2722 00d6 DA000000 		.4byte	0xda
 2723 00da 02       		.uleb128 0x2
 2724 00db 01       		.byte	0x1
 2725 00dc 08       		.byte	0x8
 2726 00dd 1E040000 		.4byte	.LASF17
 2727 00e1 08       		.uleb128 0x8
 2728 00e2 04       		.byte	0x4
 2729 00e3 E7000000 		.4byte	0xe7
 2730 00e7 09       		.uleb128 0x9
 2731 00e8 DA000000 		.4byte	0xda
 2732 00ec 0A       		.uleb128 0xa
 2733 00ed 746D00   		.ascii	"tm\000"
 2734 00f0 24       		.byte	0x24
 2735 00f1 06       		.byte	0x6
 2736 00f2 21       		.byte	0x21
 2737 00f3 64010000 		.4byte	0x164
 2738 00f7 0B       		.uleb128 0xb
 2739 00f8 C3080000 		.4byte	.LASF19
 2740 00fc 06       		.byte	0x6
 2741 00fd 23       		.byte	0x23
 2742 00fe 7E000000 		.4byte	0x7e
 2743 0102 00       		.byte	0
 2744 0103 0B       		.uleb128 0xb
 2745 0104 FC070000 		.4byte	.LASF20
 2746 0108 06       		.byte	0x6
 2747 0109 24       		.byte	0x24
 2748 010a 7E000000 		.4byte	0x7e
 2749 010e 04       		.byte	0x4
 2750 010f 0B       		.uleb128 0xb
 2751 0110 9C080000 		.4byte	.LASF21
 2752 0114 06       		.byte	0x6
 2753 0115 25       		.byte	0x25
 2754 0116 7E000000 		.4byte	0x7e
 2755 011a 08       		.byte	0x8
 2756 011b 0B       		.uleb128 0xb
 2757 011c B0000000 		.4byte	.LASF22
 2758 0120 06       		.byte	0x6
 2759 0121 26       		.byte	0x26
 2760 0122 7E000000 		.4byte	0x7e
 2761 0126 0C       		.byte	0xc
 2762 0127 0B       		.uleb128 0xb
 2763 0128 3D020000 		.4byte	.LASF23
 2764 012c 06       		.byte	0x6
ARM GAS  C:\Users\armst\AppData\Local\Temp\ccNPhHLt.s 			page 68


 2765 012d 27       		.byte	0x27
 2766 012e 7E000000 		.4byte	0x7e
 2767 0132 10       		.byte	0x10
 2768 0133 0B       		.uleb128 0xb
 2769 0134 68040000 		.4byte	.LASF24
 2770 0138 06       		.byte	0x6
 2771 0139 28       		.byte	0x28
 2772 013a 7E000000 		.4byte	0x7e
 2773 013e 14       		.byte	0x14
 2774 013f 0B       		.uleb128 0xb
 2775 0140 7A080000 		.4byte	.LASF25
 2776 0144 06       		.byte	0x6
 2777 0145 29       		.byte	0x29
 2778 0146 7E000000 		.4byte	0x7e
 2779 014a 18       		.byte	0x18
 2780 014b 0B       		.uleb128 0xb
 2781 014c 63000000 		.4byte	.LASF26
 2782 0150 06       		.byte	0x6
 2783 0151 2A       		.byte	0x2a
 2784 0152 7E000000 		.4byte	0x7e
 2785 0156 1C       		.byte	0x1c
 2786 0157 0B       		.uleb128 0xb
 2787 0158 DE080000 		.4byte	.LASF27
 2788 015c 06       		.byte	0x6
 2789 015d 2B       		.byte	0x2b
 2790 015e 7E000000 		.4byte	0x7e
 2791 0162 20       		.byte	0x20
 2792 0163 00       		.byte	0
 2793 0164 02       		.uleb128 0x2
 2794 0165 08       		.byte	0x8
 2795 0166 04       		.byte	0x4
 2796 0167 07090000 		.4byte	.LASF28
 2797 016b 02       		.uleb128 0x2
 2798 016c 04       		.byte	0x4
 2799 016d 04       		.byte	0x4
 2800 016e 58020000 		.4byte	.LASF29
 2801 0172 0C       		.uleb128 0xc
 2802 0173 D5010000 		.4byte	.LASF79
 2803 0177 01       		.byte	0x1
 2804 0178 25000000 		.4byte	0x25
 2805 017c 02       		.byte	0x2
 2806 017d 1E       		.byte	0x1e
 2807 017e C5010000 		.4byte	0x1c5
 2808 0182 0D       		.uleb128 0xd
 2809 0183 74000000 		.4byte	.LASF30
 2810 0187 7F       		.sleb128 -1
 2811 0188 0E       		.uleb128 0xe
 2812 0189 4A030000 		.4byte	.LASF31
 2813 018d 00       		.byte	0
 2814 018e 0E       		.uleb128 0xe
 2815 018f BF030000 		.4byte	.LASF32
 2816 0193 01       		.byte	0x1
 2817 0194 0E       		.uleb128 0xe
 2818 0195 C8060000 		.4byte	.LASF33
 2819 0199 02       		.byte	0x2
 2820 019a 0E       		.uleb128 0xe
 2821 019b 00000000 		.4byte	.LASF34
ARM GAS  C:\Users\armst\AppData\Local\Temp\ccNPhHLt.s 			page 69


 2822 019f 03       		.byte	0x3
 2823 01a0 0E       		.uleb128 0xe
 2824 01a1 9D040000 		.4byte	.LASF35
 2825 01a5 04       		.byte	0x4
 2826 01a6 0E       		.uleb128 0xe
 2827 01a7 CE040000 		.4byte	.LASF36
 2828 01ab 05       		.byte	0x5
 2829 01ac 0E       		.uleb128 0xe
 2830 01ad E2040000 		.4byte	.LASF37
 2831 01b1 06       		.byte	0x6
 2832 01b2 0E       		.uleb128 0xe
 2833 01b3 2D040000 		.4byte	.LASF38
 2834 01b7 07       		.byte	0x7
 2835 01b8 0E       		.uleb128 0xe
 2836 01b9 F6040000 		.4byte	.LASF39
 2837 01bd 08       		.byte	0x8
 2838 01be 0E       		.uleb128 0xe
 2839 01bf 14000000 		.4byte	.LASF40
 2840 01c3 09       		.byte	0x9
 2841 01c4 00       		.byte	0
 2842 01c5 06       		.uleb128 0x6
 2843 01c6 CE000000 		.4byte	.LASF41
 2844 01ca 08       		.byte	0x8
 2845 01cb 02       		.byte	0x2
 2846 01cc 2C       		.byte	0x2c
 2847 01cd EA010000 		.4byte	0x1ea
 2848 01d1 0B       		.uleb128 0xb
 2849 01d2 44030000 		.4byte	.LASF42
 2850 01d6 02       		.byte	0x2
 2851 01d7 2D       		.byte	0x2d
 2852 01d8 A9000000 		.4byte	0xa9
 2853 01dc 00       		.byte	0
 2854 01dd 0B       		.uleb128 0xb
 2855 01de BF050000 		.4byte	.LASF43
 2856 01e2 02       		.byte	0x2
 2857 01e3 2E       		.byte	0x2e
 2858 01e4 A9000000 		.4byte	0xa9
 2859 01e8 04       		.byte	0x4
 2860 01e9 00       		.byte	0
 2861 01ea 06       		.uleb128 0x6
 2862 01eb 61070000 		.4byte	.LASF44
 2863 01ef 0C       		.byte	0xc
 2864 01f0 02       		.byte	0x2
 2865 01f1 31       		.byte	0x31
 2866 01f2 1B020000 		.4byte	0x21b
 2867 01f6 0F       		.uleb128 0xf
 2868 01f7 64617900 		.ascii	"day\000"
 2869 01fb 02       		.byte	0x2
 2870 01fc 32       		.byte	0x32
 2871 01fd 7E000000 		.4byte	0x7e
 2872 0201 00       		.byte	0
 2873 0202 0B       		.uleb128 0xb
 2874 0203 A2030000 		.4byte	.LASF45
 2875 0207 02       		.byte	0x2
 2876 0208 33       		.byte	0x33
 2877 0209 7E000000 		.4byte	0x7e
 2878 020d 04       		.byte	0x4
ARM GAS  C:\Users\armst\AppData\Local\Temp\ccNPhHLt.s 			page 70


 2879 020e 0B       		.uleb128 0xb
 2880 020f F7070000 		.4byte	.LASF46
 2881 0213 02       		.byte	0x2
 2882 0214 34       		.byte	0x34
 2883 0215 7E000000 		.4byte	0x7e
 2884 0219 08       		.byte	0x8
 2885 021a 00       		.byte	0
 2886 021b 06       		.uleb128 0x6
 2887 021c FB060000 		.4byte	.LASF47
 2888 0220 10       		.byte	0x10
 2889 0221 02       		.byte	0x2
 2890 0222 37       		.byte	0x37
 2891 0223 58020000 		.4byte	0x258
 2892 0227 0B       		.uleb128 0xb
 2893 0228 51070000 		.4byte	.LASF48
 2894 022c 02       		.byte	0x2
 2895 022d 38       		.byte	0x38
 2896 022e 7E000000 		.4byte	0x7e
 2897 0232 00       		.byte	0
 2898 0233 0B       		.uleb128 0xb
 2899 0234 27070000 		.4byte	.LASF49
 2900 0238 02       		.byte	0x2
 2901 0239 39       		.byte	0x39
 2902 023a 7E000000 		.4byte	0x7e
 2903 023e 04       		.byte	0x4
 2904 023f 0B       		.uleb128 0xb
 2905 0240 FA050000 		.4byte	.LASF50
 2906 0244 02       		.byte	0x2
 2907 0245 3A       		.byte	0x3a
 2908 0246 7E000000 		.4byte	0x7e
 2909 024a 08       		.byte	0x8
 2910 024b 0B       		.uleb128 0xb
 2911 024c 3D080000 		.4byte	.LASF51
 2912 0250 02       		.byte	0x2
 2913 0251 3B       		.byte	0x3b
 2914 0252 7E000000 		.4byte	0x7e
 2915 0256 0C       		.byte	0xc
 2916 0257 00       		.byte	0
 2917 0258 06       		.uleb128 0x6
 2918 0259 44020000 		.4byte	.LASF52
 2919 025d 44       		.byte	0x44
 2920 025e 02       		.byte	0x2
 2921 025f 3E       		.byte	0x3e
 2922 0260 C5020000 		.4byte	0x2c5
 2923 0264 0B       		.uleb128 0xb
 2924 0265 39030000 		.4byte	.LASF53
 2925 0269 02       		.byte	0x2
 2926 026a 3F       		.byte	0x3f
 2927 026b 1B020000 		.4byte	0x21b
 2928 026f 00       		.byte	0
 2929 0270 0B       		.uleb128 0xb
 2930 0271 2D000000 		.4byte	.LASF54
 2931 0275 02       		.byte	0x2
 2932 0276 40       		.byte	0x40
 2933 0277 C5010000 		.4byte	0x1c5
 2934 027b 10       		.byte	0x10
 2935 027c 0B       		.uleb128 0xb
ARM GAS  C:\Users\armst\AppData\Local\Temp\ccNPhHLt.s 			page 71


 2936 027d C0040000 		.4byte	.LASF55
 2937 0281 02       		.byte	0x2
 2938 0282 41       		.byte	0x41
 2939 0283 C5010000 		.4byte	0x1c5
 2940 0287 18       		.byte	0x18
 2941 0288 0B       		.uleb128 0xb
 2942 0289 30020000 		.4byte	.LASF56
 2943 028d 02       		.byte	0x2
 2944 028e 42       		.byte	0x42
 2945 028f C5010000 		.4byte	0x1c5
 2946 0293 20       		.byte	0x20
 2947 0294 0B       		.uleb128 0xb
 2948 0295 0E060000 		.4byte	.LASF57
 2949 0299 02       		.byte	0x2
 2950 029a 43       		.byte	0x43
 2951 029b 7E000000 		.4byte	0x7e
 2952 029f 28       		.byte	0x28
 2953 02a0 0B       		.uleb128 0xb
 2954 02a1 B9070000 		.4byte	.LASF58
 2955 02a5 02       		.byte	0x2
 2956 02a6 44       		.byte	0x44
 2957 02a7 C5010000 		.4byte	0x1c5
 2958 02ab 2C       		.byte	0x2c
 2959 02ac 0B       		.uleb128 0xb
 2960 02ad 86020000 		.4byte	.LASF59
 2961 02b1 02       		.byte	0x2
 2962 02b2 45       		.byte	0x45
 2963 02b3 C5010000 		.4byte	0x1c5
 2964 02b7 34       		.byte	0x34
 2965 02b8 0B       		.uleb128 0xb
 2966 02b9 E2070000 		.4byte	.LASF60
 2967 02bd 02       		.byte	0x2
 2968 02be 46       		.byte	0x46
 2969 02bf C5010000 		.4byte	0x1c5
 2970 02c3 3C       		.byte	0x3c
 2971 02c4 00       		.byte	0
 2972 02c5 06       		.uleb128 0x6
 2973 02c6 88080000 		.4byte	.LASF61
 2974 02ca 48       		.byte	0x48
 2975 02cb 02       		.byte	0x2
 2976 02cc 49       		.byte	0x49
 2977 02cd 32030000 		.4byte	0x332
 2978 02d1 0B       		.uleb128 0xb
 2979 02d2 39030000 		.4byte	.LASF53
 2980 02d6 02       		.byte	0x2
 2981 02d7 4A       		.byte	0x4a
 2982 02d8 1B020000 		.4byte	0x21b
 2983 02dc 00       		.byte	0
 2984 02dd 0B       		.uleb128 0xb
 2985 02de 81050000 		.4byte	.LASF62
 2986 02e2 02       		.byte	0x2
 2987 02e3 4B       		.byte	0x4b
 2988 02e4 32030000 		.4byte	0x332
 2989 02e8 10       		.byte	0x10
 2990 02e9 0B       		.uleb128 0xb
 2991 02ea EE030000 		.4byte	.LASF63
 2992 02ee 02       		.byte	0x2
ARM GAS  C:\Users\armst\AppData\Local\Temp\ccNPhHLt.s 			page 72


 2993 02ef 4C       		.byte	0x4c
 2994 02f0 C5010000 		.4byte	0x1c5
 2995 02f4 14       		.byte	0x14
 2996 02f5 0B       		.uleb128 0xb
 2997 02f6 14040000 		.4byte	.LASF64
 2998 02fa 02       		.byte	0x2
 2999 02fb 4D       		.byte	0x4d
 3000 02fc C5010000 		.4byte	0x1c5
 3001 0300 1C       		.byte	0x1c
 3002 0301 0B       		.uleb128 0xb
 3003 0302 B8000000 		.4byte	.LASF65
 3004 0306 02       		.byte	0x2
 3005 0307 4E       		.byte	0x4e
 3006 0308 C5010000 		.4byte	0x1c5
 3007 030c 24       		.byte	0x24
 3008 030d 0B       		.uleb128 0xb
 3009 030e A1000000 		.4byte	.LASF66
 3010 0312 02       		.byte	0x2
 3011 0313 4F       		.byte	0x4f
 3012 0314 C5010000 		.4byte	0x1c5
 3013 0318 2C       		.byte	0x2c
 3014 0319 0B       		.uleb128 0xb
 3015 031a 98040000 		.4byte	.LASF67
 3016 031e 02       		.byte	0x2
 3017 031f 50       		.byte	0x50
 3018 0320 EA010000 		.4byte	0x1ea
 3019 0324 34       		.byte	0x34
 3020 0325 0B       		.uleb128 0xb
 3021 0326 23040000 		.4byte	.LASF68
 3022 032a 02       		.byte	0x2
 3023 032b 51       		.byte	0x51
 3024 032c C5010000 		.4byte	0x1c5
 3025 0330 40       		.byte	0x40
 3026 0331 00       		.byte	0
 3027 0332 02       		.uleb128 0x2
 3028 0333 01       		.byte	0x1
 3029 0334 02       		.byte	0x2
 3030 0335 9C030000 		.4byte	.LASF69
 3031 0339 06       		.uleb128 0x6
 3032 033a E0000000 		.4byte	.LASF70
 3033 033e 50       		.byte	0x50
 3034 033f 02       		.byte	0x2
 3035 0340 54       		.byte	0x54
 3036 0341 CA030000 		.4byte	0x3ca
 3037 0345 0B       		.uleb128 0xb
 3038 0346 39030000 		.4byte	.LASF53
 3039 034a 02       		.byte	0x2
 3040 034b 55       		.byte	0x55
 3041 034c 1B020000 		.4byte	0x21b
 3042 0350 00       		.byte	0
 3043 0351 0B       		.uleb128 0xb
 3044 0352 EE030000 		.4byte	.LASF63
 3045 0356 02       		.byte	0x2
 3046 0357 56       		.byte	0x56
 3047 0358 C5010000 		.4byte	0x1c5
 3048 035c 10       		.byte	0x10
 3049 035d 0B       		.uleb128 0xb
ARM GAS  C:\Users\armst\AppData\Local\Temp\ccNPhHLt.s 			page 73


 3050 035e 14040000 		.4byte	.LASF64
 3051 0362 02       		.byte	0x2
 3052 0363 57       		.byte	0x57
 3053 0364 C5010000 		.4byte	0x1c5
 3054 0368 18       		.byte	0x18
 3055 0369 0B       		.uleb128 0xb
 3056 036a EF060000 		.4byte	.LASF71
 3057 036e 02       		.byte	0x2
 3058 036f 58       		.byte	0x58
 3059 0370 7E000000 		.4byte	0x7e
 3060 0374 20       		.byte	0x20
 3061 0375 0B       		.uleb128 0xb
 3062 0376 E8010000 		.4byte	.LASF72
 3063 037a 02       		.byte	0x2
 3064 037b 59       		.byte	0x59
 3065 037c 7E000000 		.4byte	0x7e
 3066 0380 24       		.byte	0x24
 3067 0381 0B       		.uleb128 0xb
 3068 0382 68030000 		.4byte	.LASF73
 3069 0386 02       		.byte	0x2
 3070 0387 5A       		.byte	0x5a
 3071 0388 C5010000 		.4byte	0x1c5
 3072 038c 28       		.byte	0x28
 3073 038d 0B       		.uleb128 0xb
 3074 038e CC050000 		.4byte	.LASF74
 3075 0392 02       		.byte	0x2
 3076 0393 5B       		.byte	0x5b
 3077 0394 C5010000 		.4byte	0x1c5
 3078 0398 30       		.byte	0x30
 3079 0399 0B       		.uleb128 0xb
 3080 039a 18070000 		.4byte	.LASF75
 3081 039e 02       		.byte	0x2
 3082 039f 5B       		.byte	0x5b
 3083 03a0 DA000000 		.4byte	0xda
 3084 03a4 38       		.byte	0x38
 3085 03a5 0B       		.uleb128 0xb
 3086 03a6 02060000 		.4byte	.LASF76
 3087 03aa 02       		.byte	0x2
 3088 03ab 5C       		.byte	0x5c
 3089 03ac C5010000 		.4byte	0x1c5
 3090 03b0 3C       		.byte	0x3c
 3091 03b1 0B       		.uleb128 0xb
 3092 03b2 32060000 		.4byte	.LASF77
 3093 03b6 02       		.byte	0x2
 3094 03b7 5C       		.byte	0x5c
 3095 03b8 DA000000 		.4byte	0xda
 3096 03bc 44       		.byte	0x44
 3097 03bd 0B       		.uleb128 0xb
 3098 03be 6B000000 		.4byte	.LASF78
 3099 03c2 02       		.byte	0x2
 3100 03c3 5D       		.byte	0x5d
 3101 03c4 C5010000 		.4byte	0x1c5
 3102 03c8 48       		.byte	0x48
 3103 03c9 00       		.byte	0
 3104 03ca 0C       		.uleb128 0xc
 3105 03cb 70040000 		.4byte	.LASF80
 3106 03cf 01       		.byte	0x1
ARM GAS  C:\Users\armst\AppData\Local\Temp\ccNPhHLt.s 			page 74


 3107 03d0 37000000 		.4byte	0x37
 3108 03d4 02       		.byte	0x2
 3109 03d5 66       		.byte	0x66
 3110 03d6 05040000 		.4byte	0x405
 3111 03da 0E       		.uleb128 0xe
 3112 03db D3030000 		.4byte	.LASF81
 3113 03df 41       		.byte	0x41
 3114 03e0 0E       		.uleb128 0xe
 3115 03e1 F7030000 		.4byte	.LASF82
 3116 03e5 44       		.byte	0x44
 3117 03e6 0E       		.uleb128 0xe
 3118 03e7 95070000 		.4byte	.LASF83
 3119 03eb 45       		.byte	0x45
 3120 03ec 0E       		.uleb128 0xe
 3121 03ed 95050000 		.4byte	.LASF84
 3122 03f1 4D       		.byte	0x4d
 3123 03f2 0E       		.uleb128 0xe
 3124 03f3 60080000 		.4byte	.LASF85
 3125 03f7 53       		.byte	0x53
 3126 03f8 0E       		.uleb128 0xe
 3127 03f9 79090000 		.4byte	.LASF86
 3128 03fd 4E       		.byte	0x4e
 3129 03fe 0E       		.uleb128 0xe
 3130 03ff 6D070000 		.4byte	.LASF87
 3131 0403 50       		.byte	0x50
 3132 0404 00       		.byte	0
 3133 0405 06       		.uleb128 0x6
 3134 0406 0A050000 		.4byte	.LASF88
 3135 040a 24       		.byte	0x24
 3136 040b 02       		.byte	0x2
 3137 040c 70       		.byte	0x70
 3138 040d 4E040000 		.4byte	0x44e
 3139 0411 0B       		.uleb128 0xb
 3140 0412 EE030000 		.4byte	.LASF63
 3141 0416 02       		.byte	0x2
 3142 0417 71       		.byte	0x71
 3143 0418 C5010000 		.4byte	0x1c5
 3144 041c 00       		.byte	0
 3145 041d 0B       		.uleb128 0xb
 3146 041e 14040000 		.4byte	.LASF64
 3147 0422 02       		.byte	0x2
 3148 0423 72       		.byte	0x72
 3149 0424 C5010000 		.4byte	0x1c5
 3150 0428 08       		.byte	0x8
 3151 0429 0B       		.uleb128 0xb
 3152 042a 39030000 		.4byte	.LASF53
 3153 042e 02       		.byte	0x2
 3154 042f 73       		.byte	0x73
 3155 0430 1B020000 		.4byte	0x21b
 3156 0434 10       		.byte	0x10
 3157 0435 0B       		.uleb128 0xb
 3158 0436 B9040000 		.4byte	.LASF89
 3159 043a 02       		.byte	0x2
 3160 043b 74       		.byte	0x74
 3161 043c DA000000 		.4byte	0xda
 3162 0440 20       		.byte	0x20
 3163 0441 0B       		.uleb128 0xb
ARM GAS  C:\Users\armst\AppData\Local\Temp\ccNPhHLt.s 			page 75


 3164 0442 DB000000 		.4byte	.LASF90
 3165 0446 02       		.byte	0x2
 3166 0447 75       		.byte	0x75
 3167 0448 DA000000 		.4byte	0xda
 3168 044c 21       		.byte	0x21
 3169 044d 00       		.byte	0
 3170 044e 06       		.uleb128 0x6
 3171 044f 0E090000 		.4byte	.LASF91
 3172 0453 48       		.byte	0x48
 3173 0454 02       		.byte	0x2
 3174 0455 78       		.byte	0x78
 3175 0456 BB040000 		.4byte	0x4bb
 3176 045a 0B       		.uleb128 0xb
 3177 045b 39030000 		.4byte	.LASF53
 3178 045f 02       		.byte	0x2
 3179 0460 79       		.byte	0x79
 3180 0461 1B020000 		.4byte	0x21b
 3181 0465 00       		.byte	0
 3182 0466 0B       		.uleb128 0xb
 3183 0467 5A040000 		.4byte	.LASF92
 3184 046b 02       		.byte	0x2
 3185 046c 7A       		.byte	0x7a
 3186 046d C5010000 		.4byte	0x1c5
 3187 0471 10       		.byte	0x10
 3188 0472 0B       		.uleb128 0xb
 3189 0473 B3060000 		.4byte	.LASF93
 3190 0477 02       		.byte	0x2
 3191 0478 7B       		.byte	0x7b
 3192 0479 C5010000 		.4byte	0x1c5
 3193 047d 18       		.byte	0x18
 3194 047e 0B       		.uleb128 0xb
 3195 047f 32050000 		.4byte	.LASF94
 3196 0483 02       		.byte	0x2
 3197 0484 7C       		.byte	0x7c
 3198 0485 C5010000 		.4byte	0x1c5
 3199 0489 20       		.byte	0x20
 3200 048a 0B       		.uleb128 0xb
 3201 048b A8030000 		.4byte	.LASF95
 3202 048f 02       		.byte	0x2
 3203 0490 7D       		.byte	0x7d
 3204 0491 C5010000 		.4byte	0x1c5
 3205 0495 28       		.byte	0x28
 3206 0496 0B       		.uleb128 0xb
 3207 0497 41040000 		.4byte	.LASF96
 3208 049b 02       		.byte	0x2
 3209 049c 7E       		.byte	0x7e
 3210 049d C5010000 		.4byte	0x1c5
 3211 04a1 30       		.byte	0x30
 3212 04a2 0B       		.uleb128 0xb
 3213 04a3 FB010000 		.4byte	.LASF97
 3214 04a7 02       		.byte	0x2
 3215 04a8 7F       		.byte	0x7f
 3216 04a9 C5010000 		.4byte	0x1c5
 3217 04ad 38       		.byte	0x38
 3218 04ae 0B       		.uleb128 0xb
 3219 04af 5E020000 		.4byte	.LASF98
 3220 04b3 02       		.byte	0x2
ARM GAS  C:\Users\armst\AppData\Local\Temp\ccNPhHLt.s 			page 76


 3221 04b4 80       		.byte	0x80
 3222 04b5 C5010000 		.4byte	0x1c5
 3223 04b9 40       		.byte	0x40
 3224 04ba 00       		.byte	0
 3225 04bb 06       		.uleb128 0x6
 3226 04bc CA080000 		.4byte	.LASF99
 3227 04c0 50       		.byte	0x50
 3228 04c1 02       		.byte	0x2
 3229 04c2 8E       		.byte	0x8e
 3230 04c3 10050000 		.4byte	0x510
 3231 04c7 0B       		.uleb128 0xb
 3232 04c8 DB000000 		.4byte	.LASF90
 3233 04cc 02       		.byte	0x2
 3234 04cd 8F       		.byte	0x8f
 3235 04ce DA000000 		.4byte	0xda
 3236 04d2 00       		.byte	0
 3237 04d3 0B       		.uleb128 0xb
 3238 04d4 E7080000 		.4byte	.LASF100
 3239 04d8 02       		.byte	0x2
 3240 04d9 90       		.byte	0x90
 3241 04da 7E000000 		.4byte	0x7e
 3242 04de 04       		.byte	0x4
 3243 04df 0B       		.uleb128 0xb
 3244 04e0 28000000 		.4byte	.LASF101
 3245 04e4 02       		.byte	0x2
 3246 04e5 91       		.byte	0x91
 3247 04e6 10050000 		.4byte	0x510
 3248 04ea 08       		.byte	0x8
 3249 04eb 0B       		.uleb128 0xb
 3250 04ec A6020000 		.4byte	.LASF102
 3251 04f0 02       		.byte	0x2
 3252 04f1 92       		.byte	0x92
 3253 04f2 C5010000 		.4byte	0x1c5
 3254 04f6 38       		.byte	0x38
 3255 04f7 0B       		.uleb128 0xb
 3256 04f8 68030000 		.4byte	.LASF73
 3257 04fc 02       		.byte	0x2
 3258 04fd 93       		.byte	0x93
 3259 04fe C5010000 		.4byte	0x1c5
 3260 0502 40       		.byte	0x40
 3261 0503 0B       		.uleb128 0xb
 3262 0504 09060000 		.4byte	.LASF103
 3263 0508 02       		.byte	0x2
 3264 0509 94       		.byte	0x94
 3265 050a C5010000 		.4byte	0x1c5
 3266 050e 48       		.byte	0x48
 3267 050f 00       		.byte	0
 3268 0510 10       		.uleb128 0x10
 3269 0511 7E000000 		.4byte	0x7e
 3270 0515 20050000 		.4byte	0x520
 3271 0519 11       		.uleb128 0x11
 3272 051a B4000000 		.4byte	0xb4
 3273 051e 0B       		.byte	0xb
 3274 051f 00       		.byte	0
 3275 0520 06       		.uleb128 0x6
 3276 0521 4C000000 		.4byte	.LASF104
 3277 0525 10       		.byte	0x10
ARM GAS  C:\Users\armst\AppData\Local\Temp\ccNPhHLt.s 			page 77


 3278 0526 02       		.byte	0x2
 3279 0527 97       		.byte	0x97
 3280 0528 5C050000 		.4byte	0x55c
 3281 052c 0F       		.uleb128 0xf
 3282 052d 6E7200   		.ascii	"nr\000"
 3283 0530 02       		.byte	0x2
 3284 0531 98       		.byte	0x98
 3285 0532 7E000000 		.4byte	0x7e
 3286 0536 00       		.byte	0
 3287 0537 0B       		.uleb128 0xb
 3288 0538 90000000 		.4byte	.LASF105
 3289 053c 02       		.byte	0x2
 3290 053d 99       		.byte	0x99
 3291 053e 7E000000 		.4byte	0x7e
 3292 0542 04       		.byte	0x4
 3293 0543 0B       		.uleb128 0xb
 3294 0544 58080000 		.4byte	.LASF106
 3295 0548 02       		.byte	0x2
 3296 0549 9A       		.byte	0x9a
 3297 054a 7E000000 		.4byte	0x7e
 3298 054e 08       		.byte	0x8
 3299 054f 0F       		.uleb128 0xf
 3300 0550 736E7200 		.ascii	"snr\000"
 3301 0554 02       		.byte	0x2
 3302 0555 9B       		.byte	0x9b
 3303 0556 7E000000 		.4byte	0x7e
 3304 055a 0C       		.byte	0xc
 3305 055b 00       		.byte	0
 3306 055c 06       		.uleb128 0x6
 3307 055d 22090000 		.4byte	.LASF107
 3308 0561 4C       		.byte	0x4c
 3309 0562 02       		.byte	0x2
 3310 0563 9E       		.byte	0x9e
 3311 0564 99050000 		.4byte	0x599
 3312 0568 0B       		.uleb128 0xb
 3313 0569 80040000 		.4byte	.LASF108
 3314 056d 02       		.byte	0x2
 3315 056e 9F       		.byte	0x9f
 3316 056f 7E000000 		.4byte	0x7e
 3317 0573 00       		.byte	0
 3318 0574 0B       		.uleb128 0xb
 3319 0575 4A080000 		.4byte	.LASF109
 3320 0579 02       		.byte	0x2
 3321 057a A0       		.byte	0xa0
 3322 057b 7E000000 		.4byte	0x7e
 3323 057f 04       		.byte	0x4
 3324 0580 0B       		.uleb128 0xb
 3325 0581 3F060000 		.4byte	.LASF110
 3326 0585 02       		.byte	0x2
 3327 0586 A1       		.byte	0xa1
 3328 0587 7E000000 		.4byte	0x7e
 3329 058b 08       		.byte	0x8
 3330 058c 0B       		.uleb128 0xb
 3331 058d 28000000 		.4byte	.LASF101
 3332 0591 02       		.byte	0x2
 3333 0592 A2       		.byte	0xa2
 3334 0593 99050000 		.4byte	0x599
ARM GAS  C:\Users\armst\AppData\Local\Temp\ccNPhHLt.s 			page 78


 3335 0597 0C       		.byte	0xc
 3336 0598 00       		.byte	0
 3337 0599 10       		.uleb128 0x10
 3338 059a 20050000 		.4byte	0x520
 3339 059e A9050000 		.4byte	0x5a9
 3340 05a2 11       		.uleb128 0x11
 3341 05a3 B4000000 		.4byte	0xb4
 3342 05a7 03       		.byte	0x3
 3343 05a8 00       		.byte	0
 3344 05a9 06       		.uleb128 0x6
 3345 05aa 36090000 		.4byte	.LASF111
 3346 05ae 24       		.byte	0x24
 3347 05af 02       		.byte	0x2
 3348 05b0 A5       		.byte	0xa5
 3349 05b1 F2050000 		.4byte	0x5f2
 3350 05b5 0B       		.uleb128 0xb
 3351 05b6 A0060000 		.4byte	.LASF112
 3352 05ba 02       		.byte	0x2
 3353 05bb A6       		.byte	0xa6
 3354 05bc C5010000 		.4byte	0x1c5
 3355 05c0 00       		.byte	0
 3356 05c1 0B       		.uleb128 0xb
 3357 05c2 C9020000 		.4byte	.LASF113
 3358 05c6 02       		.byte	0x2
 3359 05c7 A7       		.byte	0xa7
 3360 05c8 C5010000 		.4byte	0x1c5
 3361 05cc 08       		.byte	0x8
 3362 05cd 0B       		.uleb128 0xb
 3363 05ce 85030000 		.4byte	.LASF114
 3364 05d2 02       		.byte	0x2
 3365 05d3 A8       		.byte	0xa8
 3366 05d4 C5010000 		.4byte	0x1c5
 3367 05d8 10       		.byte	0x10
 3368 05d9 0B       		.uleb128 0xb
 3369 05da 56090000 		.4byte	.LASF115
 3370 05de 02       		.byte	0x2
 3371 05df A9       		.byte	0xa9
 3372 05e0 C5010000 		.4byte	0x1c5
 3373 05e4 18       		.byte	0x18
 3374 05e5 0B       		.uleb128 0xb
 3375 05e6 C7070000 		.4byte	.LASF116
 3376 05ea 02       		.byte	0x2
 3377 05eb AA       		.byte	0xaa
 3378 05ec CA030000 		.4byte	0x3ca
 3379 05f0 20       		.byte	0x20
 3380 05f1 00       		.byte	0
 3381 05f2 06       		.uleb128 0x6
 3382 05f3 1E050000 		.4byte	.LASF117
 3383 05f7 24       		.byte	0x24
 3384 05f8 02       		.byte	0x2
 3385 05f9 AD       		.byte	0xad
 3386 05fa 2F060000 		.4byte	0x62f
 3387 05fe 0B       		.uleb128 0xb
 3388 05ff 39030000 		.4byte	.LASF53
 3389 0603 02       		.byte	0x2
 3390 0604 AE       		.byte	0xae
 3391 0605 1B020000 		.4byte	0x21b
ARM GAS  C:\Users\armst\AppData\Local\Temp\ccNPhHLt.s 			page 79


 3392 0609 00       		.byte	0
 3393 060a 0B       		.uleb128 0xb
 3394 060b 98040000 		.4byte	.LASF67
 3395 060f 02       		.byte	0x2
 3396 0610 AF       		.byte	0xaf
 3397 0611 EA010000 		.4byte	0x1ea
 3398 0615 10       		.byte	0x10
 3399 0616 0B       		.uleb128 0xb
 3400 0617 45070000 		.4byte	.LASF118
 3401 061b 02       		.byte	0x2
 3402 061c B0       		.byte	0xb0
 3403 061d 7E000000 		.4byte	0x7e
 3404 0621 1C       		.byte	0x1c
 3405 0622 0B       		.uleb128 0xb
 3406 0623 B1050000 		.4byte	.LASF119
 3407 0627 02       		.byte	0x2
 3408 0628 B1       		.byte	0xb1
 3409 0629 7E000000 		.4byte	0x7e
 3410 062d 20       		.byte	0x20
 3411 062e 00       		.byte	0
 3412 062f 03       		.uleb128 0x3
 3413 0630 59030000 		.4byte	.LASF120
 3414 0634 08       		.byte	0x8
 3415 0635 28       		.byte	0x28
 3416 0636 BD000000 		.4byte	0xbd
 3417 063a 03       		.uleb128 0x3
 3418 063b 47050000 		.4byte	.LASF121
 3419 063f 08       		.byte	0x8
 3420 0640 62       		.byte	0x62
 3421 0641 2F060000 		.4byte	0x62f
 3422 0645 12       		.uleb128 0x12
 3423 0646 36070000 		.4byte	.LASF174
 3424 064a 02       		.byte	0x2
 3425 064b 2D01     		.2byte	0x12d
 3426 064d 32030000 		.4byte	0x332
 3427 0651 03       		.byte	0x3
 3428 0652 61060000 		.4byte	0x661
 3429 0656 13       		.uleb128 0x13
 3430 0657 6300     		.ascii	"c\000"
 3431 0659 02       		.byte	0x2
 3432 065a 2D01     		.2byte	0x12d
 3433 065c DA000000 		.4byte	0xda
 3434 0660 00       		.byte	0
 3435 0661 14       		.uleb128 0x14
 3436 0662 8E060000 		.4byte	.LASF175
 3437 0666 01       		.byte	0x1
 3438 0667 12       		.byte	0x12
 3439 0668 7E000000 		.4byte	0x7e
 3440 066c 00000000 		.4byte	.LFB5
 3441 0670 30000000 		.4byte	.LFE5-.LFB5
 3442 0674 01       		.uleb128 0x1
 3443 0675 9C       		.byte	0x9c
 3444 0676 88060000 		.4byte	0x688
 3445 067a 15       		.uleb128 0x15
 3446 067b 6300     		.ascii	"c\000"
 3447 067d 01       		.byte	0x1
 3448 067e 12       		.byte	0x12
ARM GAS  C:\Users\armst\AppData\Local\Temp\ccNPhHLt.s 			page 80


 3449 067f DA000000 		.4byte	0xda
 3450 0683 00000000 		.4byte	.LLST0
 3451 0687 00       		.byte	0
 3452 0688 16       		.uleb128 0x16
 3453 0689 85070000 		.4byte	.LASF123
 3454 068d 01       		.byte	0x1
 3455 068e 1D       		.byte	0x1d
 3456 068f 93000000 		.4byte	0x93
 3457 0693 00000000 		.4byte	.LFB6
 3458 0697 1C000000 		.4byte	.LFE6-.LFB6
 3459 069b 01       		.uleb128 0x1
 3460 069c 9C       		.byte	0x9c
 3461 069d BE060000 		.4byte	0x6be
 3462 06a1 17       		.uleb128 0x17
 3463 06a2 15020000 		.4byte	.LASF122
 3464 06a6 01       		.byte	0x1
 3465 06a7 1D       		.byte	0x1d
 3466 06a8 E1000000 		.4byte	0xe1
 3467 06ac 6C000000 		.4byte	.LLST1
 3468 06b0 18       		.uleb128 0x18
 3469 06b1 77020000 		.4byte	.LASF126
 3470 06b5 01       		.byte	0x1
 3471 06b6 23       		.byte	0x23
 3472 06b7 93000000 		.4byte	0x93
 3473 06bb 01       		.uleb128 0x1
 3474 06bc 50       		.byte	0x50
 3475 06bd 00       		.byte	0
 3476 06be 16       		.uleb128 0x16
 3477 06bf 3A000000 		.4byte	.LASF124
 3478 06c3 01       		.byte	0x1
 3479 06c4 2C       		.byte	0x2c
 3480 06c5 32030000 		.4byte	0x332
 3481 06c9 00000000 		.4byte	.LFB7
 3482 06cd 88000000 		.4byte	.LFE7-.LFB7
 3483 06d1 01       		.uleb128 0x1
 3484 06d2 9C       		.byte	0x9c
 3485 06d3 4A070000 		.4byte	0x74a
 3486 06d7 17       		.uleb128 0x17
 3487 06d8 15020000 		.4byte	.LASF122
 3488 06dc 01       		.byte	0x1
 3489 06dd 2C       		.byte	0x2c
 3490 06de E1000000 		.4byte	0xe1
 3491 06e2 8A000000 		.4byte	.LLST2
 3492 06e6 17       		.uleb128 0x17
 3493 06e7 2F070000 		.4byte	.LASF125
 3494 06eb 01       		.byte	0x1
 3495 06ec 2C       		.byte	0x2c
 3496 06ed 32030000 		.4byte	0x332
 3497 06f1 18010000 		.4byte	.LLST3
 3498 06f5 19       		.uleb128 0x19
 3499 06f6 77020000 		.4byte	.LASF126
 3500 06fa 01       		.byte	0x1
 3501 06fb 2E       		.byte	0x2e
 3502 06fc 93000000 		.4byte	0x93
 3503 0700 84010000 		.4byte	.LLST4
 3504 0704 1A       		.uleb128 0x1a
 3505 0705 00000000 		.4byte	.Ldebug_ranges0+0
ARM GAS  C:\Users\armst\AppData\Local\Temp\ccNPhHLt.s 			page 81


 3506 0709 19       		.uleb128 0x19
 3507 070a 37080000 		.4byte	.LASF127
 3508 070e 01       		.byte	0x1
 3509 070f 3C       		.byte	0x3c
 3510 0710 7E000000 		.4byte	0x7e
 3511 0714 BA010000 		.4byte	.LLST5
 3512 0718 19       		.uleb128 0x19
 3513 0719 3E030000 		.4byte	.LASF128
 3514 071d 01       		.byte	0x1
 3515 071e 3F       		.byte	0x3f
 3516 071f 7E000000 		.4byte	0x7e
 3517 0723 EE010000 		.4byte	.LLST6
 3518 0727 19       		.uleb128 0x19
 3519 0728 8C050000 		.4byte	.LASF129
 3520 072c 01       		.byte	0x1
 3521 072d 42       		.byte	0x42
 3522 072e 7E000000 		.4byte	0x7e
 3523 0732 0C020000 		.4byte	.LLST7
 3524 0736 1B       		.uleb128 0x1b
 3525 0737 32000000 		.4byte	.LVL20
 3526 073b 61060000 		.4byte	0x661
 3527 073f 1B       		.uleb128 0x1b
 3528 0740 42000000 		.4byte	.LVL24
 3529 0744 61060000 		.4byte	0x661
 3530 0748 00       		.byte	0
 3531 0749 00       		.byte	0
 3532 074a 16       		.uleb128 0x16
 3533 074b 4A090000 		.4byte	.LASF130
 3534 074f 01       		.byte	0x1
 3535 0750 58       		.byte	0x58
 3536 0751 32030000 		.4byte	0x332
 3537 0755 00000000 		.4byte	.LFB8
 3538 0759 C0050000 		.4byte	.LFE8-.LFB8
 3539 075d 01       		.uleb128 0x1
 3540 075e 9C       		.byte	0x9c
 3541 075f 060C0000 		.4byte	0xc06
 3542 0763 17       		.uleb128 0x17
 3543 0764 15020000 		.4byte	.LASF122
 3544 0768 01       		.byte	0x1
 3545 0769 58       		.byte	0x58
 3546 076a E1000000 		.4byte	0xe1
 3547 076e 2A020000 		.4byte	.LLST8
 3548 0772 17       		.uleb128 0x17
 3549 0773 5C000000 		.4byte	.LASF131
 3550 0777 01       		.byte	0x1
 3551 0778 58       		.byte	0x58
 3552 0779 E1000000 		.4byte	0xe1
 3553 077d 53020000 		.4byte	.LLST9
 3554 0781 1C       		.uleb128 0x1c
 3555 0782 19       		.uleb128 0x19
 3556 0783 8B020000 		.4byte	.LASF132
 3557 0787 01       		.byte	0x1
 3558 0788 5A       		.byte	0x5a
 3559 0789 32030000 		.4byte	0x332
 3560 078d 7E020000 		.4byte	.LLST10
 3561 0791 19       		.uleb128 0x19
 3562 0792 67090000 		.4byte	.LASF133
ARM GAS  C:\Users\armst\AppData\Local\Temp\ccNPhHLt.s 			page 82


 3563 0796 01       		.byte	0x1
 3564 0797 5B       		.byte	0x5b
 3565 0798 32030000 		.4byte	0x332
 3566 079c A9020000 		.4byte	.LLST11
 3567 07a0 1D       		.uleb128 0x1d
 3568 07a1 617000   		.ascii	"ap\000"
 3569 07a4 01       		.byte	0x1
 3570 07a5 60       		.byte	0x60
 3571 07a6 3A060000 		.4byte	0x63a
 3572 07aa 02       		.uleb128 0x2
 3573 07ab 91       		.byte	0x91
 3574 07ac 4C       		.sleb128 -52
 3575 07ad 19       		.uleb128 0x19
 3576 07ae 80020000 		.4byte	.LASF134
 3577 07b2 01       		.byte	0x1
 3578 07b3 63       		.byte	0x63
 3579 07b4 E1000000 		.4byte	0xe1
 3580 07b8 DF020000 		.4byte	.LLST12
 3581 07bc 1E       		.uleb128 0x1e
 3582 07bd FB080000 		.4byte	.LASF176
 3583 07c1 01       		.byte	0x1
 3584 07c2 4E01     		.2byte	0x14e
 3585 07c4 A6050000 		.4byte	.L34
 3586 07c8 1A       		.uleb128 0x1a
 3587 07c9 18000000 		.4byte	.Ldebug_ranges0+0x18
 3588 07cd 19       		.uleb128 0x19
 3589 07ce 19080000 		.4byte	.LASF135
 3590 07d2 01       		.byte	0x1
 3591 07d3 73       		.byte	0x73
 3592 07d4 DA000000 		.4byte	0xda
 3593 07d8 7A030000 		.4byte	.LLST13
 3594 07dc 1F       		.uleb128 0x1f
 3595 07dd 9A000000 		.4byte	.LBB40
 3596 07e1 3A000000 		.4byte	.LBE40-.LBB40
 3597 07e5 12080000 		.4byte	0x812
 3598 07e9 19       		.uleb128 0x19
 3599 07ea 44030000 		.4byte	.LASF42
 3600 07ee 01       		.byte	0x1
 3601 07ef 82       		.byte	0x82
 3602 07f0 DA000000 		.4byte	0xda
 3603 07f4 A3030000 		.4byte	.LLST14
 3604 07f8 20       		.uleb128 0x20
 3605 07f9 45060000 		.4byte	0x645
 3606 07fd 9E000000 		.4byte	.LBB41
 3607 0801 24000000 		.4byte	.LBE41-.LBB41
 3608 0805 01       		.byte	0x1
 3609 0806 84       		.byte	0x84
 3610 0807 21       		.uleb128 0x21
 3611 0808 56060000 		.4byte	0x656
 3612 080c C2030000 		.4byte	.LLST15
 3613 0810 00       		.byte	0
 3614 0811 00       		.byte	0
 3615 0812 1F       		.uleb128 0x1f
 3616 0813 D6000000 		.4byte	.LBB43
 3617 0817 76000000 		.4byte	.LBE43-.LBB43
 3618 081b 48080000 		.4byte	0x848
 3619 081f 19       		.uleb128 0x19
ARM GAS  C:\Users\armst\AppData\Local\Temp\ccNPhHLt.s 			page 83


 3620 0820 44030000 		.4byte	.LASF42
 3621 0824 01       		.byte	0x1
 3622 0825 8B       		.byte	0x8b
 3623 0826 7E000000 		.4byte	0x7e
 3624 082a D5030000 		.4byte	.LLST16
 3625 082e 20       		.uleb128 0x20
 3626 082f 45060000 		.4byte	0x645
 3627 0833 DA000000 		.4byte	.LBB44
 3628 0837 24000000 		.4byte	.LBE44-.LBB44
 3629 083b 01       		.byte	0x1
 3630 083c 8D       		.byte	0x8d
 3631 083d 21       		.uleb128 0x21
 3632 083e 56060000 		.4byte	0x656
 3633 0842 00040000 		.4byte	.LLST17
 3634 0846 00       		.byte	0
 3635 0847 00       		.byte	0
 3636 0848 22       		.uleb128 0x22
 3637 0849 48000000 		.4byte	.Ldebug_ranges0+0x48
 3638 084d B5080000 		.4byte	0x8b5
 3639 0851 19       		.uleb128 0x19
 3640 0852 6D030000 		.4byte	.LASF136
 3641 0856 01       		.byte	0x1
 3642 0857 A0       		.byte	0xa0
 3643 0858 7E000000 		.4byte	0x7e
 3644 085c 13040000 		.4byte	.LLST18
 3645 0860 19       		.uleb128 0x19
 3646 0861 44030000 		.4byte	.LASF42
 3647 0865 01       		.byte	0x1
 3648 0866 A1       		.byte	0xa1
 3649 0867 A9000000 		.4byte	0xa9
 3650 086b 6A040000 		.4byte	.LLST19
 3651 086f 19       		.uleb128 0x19
 3652 0870 BF050000 		.4byte	.LASF43
 3653 0874 01       		.byte	0x1
 3654 0875 A2       		.byte	0xa2
 3655 0876 A9000000 		.4byte	0xa9
 3656 087a C3040000 		.4byte	.LLST20
 3657 087e 1F       		.uleb128 0x1f
 3658 087f 82010000 		.4byte	.LBB47
 3659 0883 3A000000 		.4byte	.LBE47-.LBB47
 3660 0887 9B080000 		.4byte	0x89b
 3661 088b 19       		.uleb128 0x19
 3662 088c CF010000 		.4byte	.LASF137
 3663 0890 01       		.byte	0x1
 3664 0891 AB       		.byte	0xab
 3665 0892 7E000000 		.4byte	0x7e
 3666 0896 3B050000 		.4byte	.LLST21
 3667 089a 00       		.byte	0
 3668 089b 20       		.uleb128 0x20
 3669 089c 45060000 		.4byte	0x645
 3670 08a0 F8010000 		.4byte	.LBB48
 3671 08a4 2C000000 		.4byte	.LBE48-.LBB48
 3672 08a8 01       		.byte	0x1
 3673 08a9 A5       		.byte	0xa5
 3674 08aa 21       		.uleb128 0x21
 3675 08ab 56060000 		.4byte	0x656
 3676 08af 63050000 		.4byte	.LLST22
ARM GAS  C:\Users\armst\AppData\Local\Temp\ccNPhHLt.s 			page 84


 3677 08b3 00       		.byte	0
 3678 08b4 00       		.byte	0
 3679 08b5 22       		.uleb128 0x22
 3680 08b6 60000000 		.4byte	.Ldebug_ranges0+0x60
 3681 08ba 1F090000 		.4byte	0x91f
 3682 08be 19       		.uleb128 0x19
 3683 08bf 44030000 		.4byte	.LASF42
 3684 08c3 01       		.byte	0x1
 3685 08c4 DB       		.byte	0xdb
 3686 08c5 7E000000 		.4byte	0x7e
 3687 08c9 76050000 		.4byte	.LLST23
 3688 08cd 23       		.uleb128 0x23
 3689 08ce 66020000 		.4byte	.LBB52
 3690 08d2 34000000 		.4byte	.LBE52-.LBB52
 3691 08d6 18       		.uleb128 0x18
 3692 08d7 9A000000 		.4byte	.LASF138
 3693 08db 01       		.byte	0x1
 3694 08dc DE       		.byte	0xde
 3695 08dd D4000000 		.4byte	0xd4
 3696 08e1 02       		.uleb128 0x2
 3697 08e2 91       		.byte	0x91
 3698 08e3 48       		.sleb128 -56
 3699 08e4 24       		.uleb128 0x24
 3700 08e5 45060000 		.4byte	0x645
 3701 08e9 74020000 		.4byte	.LBB53
 3702 08ed 24000000 		.4byte	.LBE53-.LBB53
 3703 08f1 01       		.byte	0x1
 3704 08f2 E0       		.byte	0xe0
 3705 08f3 01090000 		.4byte	0x901
 3706 08f7 21       		.uleb128 0x21
 3707 08f8 56060000 		.4byte	0x656
 3708 08fc AC050000 		.4byte	.LLST24
 3709 0900 00       		.byte	0
 3710 0901 25       		.uleb128 0x25
 3711 0902 70020000 		.4byte	.LVL80
 3712 0906 A0170000 		.4byte	0x17a0
 3713 090a 26       		.uleb128 0x26
 3714 090b 01       		.uleb128 0x1
 3715 090c 50       		.byte	0x50
 3716 090d 02       		.uleb128 0x2
 3717 090e 77       		.byte	0x77
 3718 090f 00       		.sleb128 0
 3719 0910 26       		.uleb128 0x26
 3720 0911 01       		.uleb128 0x1
 3721 0912 51       		.byte	0x51
 3722 0913 03       		.uleb128 0x3
 3723 0914 91       		.byte	0x91
 3724 0915 B07F     		.sleb128 -80
 3725 0917 26       		.uleb128 0x26
 3726 0918 01       		.uleb128 0x1
 3727 0919 52       		.byte	0x52
 3728 091a 01       		.uleb128 0x1
 3729 091b 3A       		.byte	0x3a
 3730 091c 00       		.byte	0
 3731 091d 00       		.byte	0
 3732 091e 00       		.byte	0
 3733 091f 1F       		.uleb128 0x1f
ARM GAS  C:\Users\armst\AppData\Local\Temp\ccNPhHLt.s 			page 85


 3734 0920 AC020000 		.4byte	.LBB56
 3735 0924 40000000 		.4byte	.LBE56-.LBB56
 3736 0928 55090000 		.4byte	0x955
 3737 092c 27       		.uleb128 0x27
 3738 092d 62756600 		.ascii	"buf\000"
 3739 0931 01       		.byte	0x1
 3740 0932 E8       		.byte	0xe8
 3741 0933 D4000000 		.4byte	0xd4
 3742 0937 BF050000 		.4byte	.LLST25
 3743 093b 20       		.uleb128 0x20
 3744 093c 45060000 		.4byte	0x645
 3745 0940 C0020000 		.4byte	.LBB57
 3746 0944 24000000 		.4byte	.LBE57-.LBB57
 3747 0948 01       		.byte	0x1
 3748 0949 EB       		.byte	0xeb
 3749 094a 21       		.uleb128 0x21
 3750 094b 56060000 		.4byte	0x656
 3751 094f EA050000 		.4byte	.LLST26
 3752 0953 00       		.byte	0
 3753 0954 00       		.byte	0
 3754 0955 1F       		.uleb128 0x1f
 3755 0956 EE020000 		.4byte	.LBB59
 3756 095a 64000000 		.4byte	.LBE59-.LBB59
 3757 095e A2090000 		.4byte	0x9a2
 3758 0962 27       		.uleb128 0x27
 3759 0963 62756600 		.ascii	"buf\000"
 3760 0967 01       		.byte	0x1
 3761 0968 FD       		.byte	0xfd
 3762 0969 D4000000 		.4byte	0xd4
 3763 096d FD050000 		.4byte	.LLST27
 3764 0971 23       		.uleb128 0x23
 3765 0972 00030000 		.4byte	.LBB60
 3766 0976 3C000000 		.4byte	.LBE60-.LBB60
 3767 097a 27       		.uleb128 0x27
 3768 097b 6600     		.ascii	"f\000"
 3769 097d 01       		.byte	0x1
 3770 097e F9       		.byte	0xf9
 3771 097f 7E000000 		.4byte	0x7e
 3772 0983 10060000 		.4byte	.LLST28
 3773 0987 20       		.uleb128 0x20
 3774 0988 45060000 		.4byte	0x645
 3775 098c 04030000 		.4byte	.LBB61
 3776 0990 2E000000 		.4byte	.LBE61-.LBB61
 3777 0994 01       		.byte	0x1
 3778 0995 FA       		.byte	0xfa
 3779 0996 21       		.uleb128 0x21
 3780 0997 56060000 		.4byte	0x656
 3781 099b 48060000 		.4byte	.LLST29
 3782 099f 00       		.byte	0
 3783 09a0 00       		.byte	0
 3784 09a1 00       		.byte	0
 3785 09a2 22       		.uleb128 0x22
 3786 09a3 78000000 		.4byte	.Ldebug_ranges0+0x78
 3787 09a7 AA0A0000 		.4byte	0xaaa
 3788 09ab 28       		.uleb128 0x28
 3789 09ac 98040000 		.4byte	.LASF67
 3790 09b0 01       		.byte	0x1
ARM GAS  C:\Users\armst\AppData\Local\Temp\ccNPhHLt.s 			page 86


 3791 09b1 0301     		.2byte	0x103
 3792 09b3 060C0000 		.4byte	0xc06
 3793 09b7 5B060000 		.4byte	.LLST30
 3794 09bb 29       		.uleb128 0x29
 3795 09bc 6400     		.ascii	"d\000"
 3796 09be 01       		.byte	0x1
 3797 09bf 0501     		.2byte	0x105
 3798 09c1 7E000000 		.4byte	0x7e
 3799 09c5 6E060000 		.4byte	.LLST31
 3800 09c9 29       		.uleb128 0x29
 3801 09ca 6D00     		.ascii	"m\000"
 3802 09cc 01       		.byte	0x1
 3803 09cd 0501     		.2byte	0x105
 3804 09cf 7E000000 		.4byte	0x7e
 3805 09d3 B1060000 		.4byte	.LLST32
 3806 09d7 29       		.uleb128 0x29
 3807 09d8 7900     		.ascii	"y\000"
 3808 09da 01       		.byte	0x1
 3809 09db 0501     		.2byte	0x105
 3810 09dd 7E000000 		.4byte	0x7e
 3811 09e1 F4060000 		.4byte	.LLST33
 3812 09e5 2A       		.uleb128 0x2a
 3813 09e6 45060000 		.4byte	0x645
 3814 09ea 64030000 		.4byte	.LBB64
 3815 09ee 24000000 		.4byte	.LBE64-.LBB64
 3816 09f2 01       		.byte	0x1
 3817 09f3 0701     		.2byte	0x107
 3818 09f5 030A0000 		.4byte	0xa03
 3819 09f9 21       		.uleb128 0x21
 3820 09fa 56060000 		.4byte	0x656
 3821 09fe 2C070000 		.4byte	.LLST34
 3822 0a02 00       		.byte	0
 3823 0a03 1A       		.uleb128 0x1a
 3824 0a04 90000000 		.4byte	.Ldebug_ranges0+0x90
 3825 0a08 2B       		.uleb128 0x2b
 3826 0a09 89060000 		.4byte	.LASF139
 3827 0a0d 01       		.byte	0x1
 3828 0a0e 0D01     		.2byte	0x10d
 3829 0a10 0C0C0000 		.4byte	0xc0c
 3830 0a14 02       		.uleb128 0x2
 3831 0a15 91       		.byte	0x91
 3832 0a16 40       		.sleb128 -64
 3833 0a17 2B       		.uleb128 0x2b
 3834 0a18 14080000 		.4byte	.LASF140
 3835 0a1c 01       		.byte	0x1
 3836 0a1d 0E01     		.2byte	0x10e
 3837 0a1f 0C0C0000 		.4byte	0xc0c
 3838 0a23 02       		.uleb128 0x2
 3839 0a24 91       		.byte	0x91
 3840 0a25 44       		.sleb128 -60
 3841 0a26 2B       		.uleb128 0x2b
 3842 0a27 96060000 		.4byte	.LASF141
 3843 0a2b 01       		.byte	0x1
 3844 0a2c 0F01     		.2byte	0x10f
 3845 0a2e 0C0C0000 		.4byte	0xc0c
 3846 0a32 02       		.uleb128 0x2
 3847 0a33 91       		.byte	0x91
ARM GAS  C:\Users\armst\AppData\Local\Temp\ccNPhHLt.s 			page 87


 3848 0a34 48       		.sleb128 -56
 3849 0a35 22       		.uleb128 0x22
 3850 0a36 A8000000 		.4byte	.Ldebug_ranges0+0xa8
 3851 0a3a 4D0A0000 		.4byte	0xa4d
 3852 0a3e 29       		.uleb128 0x29
 3853 0a3f 6600     		.ascii	"f\000"
 3854 0a41 01       		.byte	0x1
 3855 0a42 0901     		.2byte	0x109
 3856 0a44 7E000000 		.4byte	0x7e
 3857 0a48 3F070000 		.4byte	.LLST35
 3858 0a4c 00       		.byte	0
 3859 0a4d 2C       		.uleb128 0x2c
 3860 0a4e E6030000 		.4byte	.LVL112
 3861 0a52 A0170000 		.4byte	0x17a0
 3862 0a56 6C0A0000 		.4byte	0xa6c
 3863 0a5a 26       		.uleb128 0x26
 3864 0a5b 01       		.uleb128 0x1
 3865 0a5c 50       		.byte	0x50
 3866 0a5d 02       		.uleb128 0x2
 3867 0a5e 7D       		.byte	0x7d
 3868 0a5f 00       		.sleb128 0
 3869 0a60 26       		.uleb128 0x26
 3870 0a61 01       		.uleb128 0x1
 3871 0a62 51       		.byte	0x51
 3872 0a63 02       		.uleb128 0x2
 3873 0a64 79       		.byte	0x79
 3874 0a65 00       		.sleb128 0
 3875 0a66 26       		.uleb128 0x26
 3876 0a67 01       		.uleb128 0x1
 3877 0a68 52       		.byte	0x52
 3878 0a69 01       		.uleb128 0x1
 3879 0a6a 3A       		.byte	0x3a
 3880 0a6b 00       		.byte	0
 3881 0a6c 2C       		.uleb128 0x2c
 3882 0a6d F2030000 		.4byte	.LVL115
 3883 0a71 A0170000 		.4byte	0x17a0
 3884 0a75 8C0A0000 		.4byte	0xa8c
 3885 0a79 26       		.uleb128 0x26
 3886 0a7a 01       		.uleb128 0x1
 3887 0a7b 50       		.byte	0x50
 3888 0a7c 03       		.uleb128 0x3
 3889 0a7d 91       		.byte	0x91
 3890 0a7e AC7F     		.sleb128 -84
 3891 0a80 26       		.uleb128 0x26
 3892 0a81 01       		.uleb128 0x1
 3893 0a82 51       		.byte	0x51
 3894 0a83 02       		.uleb128 0x2
 3895 0a84 79       		.byte	0x79
 3896 0a85 00       		.sleb128 0
 3897 0a86 26       		.uleb128 0x26
 3898 0a87 01       		.uleb128 0x1
 3899 0a88 52       		.byte	0x52
 3900 0a89 01       		.uleb128 0x1
 3901 0a8a 3A       		.byte	0x3a
 3902 0a8b 00       		.byte	0
 3903 0a8c 25       		.uleb128 0x25
 3904 0a8d FE030000 		.4byte	.LVL118
ARM GAS  C:\Users\armst\AppData\Local\Temp\ccNPhHLt.s 			page 88


 3905 0a91 A0170000 		.4byte	0x17a0
 3906 0a95 26       		.uleb128 0x26
 3907 0a96 01       		.uleb128 0x1
 3908 0a97 50       		.byte	0x50
 3909 0a98 03       		.uleb128 0x3
 3910 0a99 91       		.byte	0x91
 3911 0a9a B07F     		.sleb128 -80
 3912 0a9c 26       		.uleb128 0x26
 3913 0a9d 01       		.uleb128 0x1
 3914 0a9e 51       		.byte	0x51
 3915 0a9f 02       		.uleb128 0x2
 3916 0aa0 79       		.byte	0x79
 3917 0aa1 00       		.sleb128 0
 3918 0aa2 26       		.uleb128 0x26
 3919 0aa3 01       		.uleb128 0x1
 3920 0aa4 52       		.byte	0x52
 3921 0aa5 01       		.uleb128 0x1
 3922 0aa6 3A       		.byte	0x3a
 3923 0aa7 00       		.byte	0
 3924 0aa8 00       		.byte	0
 3925 0aa9 00       		.byte	0
 3926 0aaa 22       		.uleb128 0x22
 3927 0aab C0000000 		.4byte	.Ldebug_ranges0+0xc0
 3928 0aaf EA0B0000 		.4byte	0xbea
 3929 0ab3 28       		.uleb128 0x28
 3930 0ab4 8B040000 		.4byte	.LASF142
 3931 0ab8 01       		.byte	0x1
 3932 0ab9 1B01     		.2byte	0x11b
 3933 0abb 1C0C0000 		.4byte	0xc1c
 3934 0abf 68070000 		.4byte	.LLST36
 3935 0ac3 29       		.uleb128 0x29
 3936 0ac4 6800     		.ascii	"h\000"
 3937 0ac6 01       		.byte	0x1
 3938 0ac7 1D01     		.2byte	0x11d
 3939 0ac9 7E000000 		.4byte	0x7e
 3940 0acd 7B070000 		.4byte	.LLST37
 3941 0ad1 29       		.uleb128 0x29
 3942 0ad2 6900     		.ascii	"i\000"
 3943 0ad4 01       		.byte	0x1
 3944 0ad5 1D01     		.2byte	0x11d
 3945 0ad7 7E000000 		.4byte	0x7e
 3946 0adb BE070000 		.4byte	.LLST38
 3947 0adf 29       		.uleb128 0x29
 3948 0ae0 7300     		.ascii	"s\000"
 3949 0ae2 01       		.byte	0x1
 3950 0ae3 1D01     		.2byte	0x11d
 3951 0ae5 7E000000 		.4byte	0x7e
 3952 0ae9 01080000 		.4byte	.LLST39
 3953 0aed 29       		.uleb128 0x29
 3954 0aee 7500     		.ascii	"u\000"
 3955 0af0 01       		.byte	0x1
 3956 0af1 1D01     		.2byte	0x11d
 3957 0af3 7E000000 		.4byte	0x7e
 3958 0af7 39080000 		.4byte	.LLST40
 3959 0afb 2A       		.uleb128 0x2a
 3960 0afc 45060000 		.4byte	0x645
 3961 0b00 2A040000 		.4byte	.LBB72
ARM GAS  C:\Users\armst\AppData\Local\Temp\ccNPhHLt.s 			page 89


 3962 0b04 24000000 		.4byte	.LBE72-.LBB72
 3963 0b08 01       		.byte	0x1
 3964 0b09 1F01     		.2byte	0x11f
 3965 0b0b 190B0000 		.4byte	0xb19
 3966 0b0f 21       		.uleb128 0x21
 3967 0b10 56060000 		.4byte	0x656
 3968 0b14 71080000 		.4byte	.LLST41
 3969 0b18 00       		.byte	0
 3970 0b19 1A       		.uleb128 0x1a
 3971 0b1a D8000000 		.4byte	.Ldebug_ranges0+0xd8
 3972 0b1e 2B       		.uleb128 0x2b
 3973 0b1f 9B060000 		.4byte	.LASF143
 3974 0b23 01       		.byte	0x1
 3975 0b24 2501     		.2byte	0x125
 3976 0b26 0C0C0000 		.4byte	0xc0c
 3977 0b2a 02       		.uleb128 0x2
 3978 0b2b 91       		.byte	0x91
 3979 0b2c 40       		.sleb128 -64
 3980 0b2d 2B       		.uleb128 0x2b
 3981 0b2e 87050000 		.4byte	.LASF144
 3982 0b32 01       		.byte	0x1
 3983 0b33 2601     		.2byte	0x126
 3984 0b35 0C0C0000 		.4byte	0xc0c
 3985 0b39 02       		.uleb128 0x2
 3986 0b3a 91       		.byte	0x91
 3987 0b3b 44       		.sleb128 -60
 3988 0b3c 2B       		.uleb128 0x2b
 3989 0b3d 47000000 		.4byte	.LASF145
 3990 0b41 01       		.byte	0x1
 3991 0b42 2701     		.2byte	0x127
 3992 0b44 0C0C0000 		.4byte	0xc0c
 3993 0b48 02       		.uleb128 0x2
 3994 0b49 91       		.byte	0x91
 3995 0b4a 48       		.sleb128 -56
 3996 0b4b 22       		.uleb128 0x22
 3997 0b4c F0000000 		.4byte	.Ldebug_ranges0+0xf0
 3998 0b50 630B0000 		.4byte	0xb63
 3999 0b54 29       		.uleb128 0x29
 4000 0b55 6600     		.ascii	"f\000"
 4001 0b57 01       		.byte	0x1
 4002 0b58 2101     		.2byte	0x121
 4003 0b5a 7E000000 		.4byte	0x7e
 4004 0b5e 84080000 		.4byte	.LLST42
 4005 0b62 00       		.byte	0
 4006 0b63 22       		.uleb128 0x22
 4007 0b64 08010000 		.4byte	.Ldebug_ranges0+0x108
 4008 0b68 8D0B0000 		.4byte	0xb8d
 4009 0b6c 28       		.uleb128 0x28
 4010 0b6d 44030000 		.4byte	.LASF42
 4011 0b71 01       		.byte	0x1
 4012 0b72 2F01     		.2byte	0x12f
 4013 0b74 9E000000 		.4byte	0x9e
 4014 0b78 AD080000 		.4byte	.LLST43
 4015 0b7c 28       		.uleb128 0x28
 4016 0b7d BF050000 		.4byte	.LASF43
 4017 0b81 01       		.byte	0x1
 4018 0b82 3001     		.2byte	0x130
ARM GAS  C:\Users\armst\AppData\Local\Temp\ccNPhHLt.s 			page 90


 4019 0b84 9E000000 		.4byte	0x9e
 4020 0b88 CB080000 		.4byte	.LLST44
 4021 0b8c 00       		.byte	0
 4022 0b8d 2C       		.uleb128 0x2c
 4023 0b8e AE040000 		.4byte	.LVL132
 4024 0b92 A0170000 		.4byte	0x17a0
 4025 0b96 AC0B0000 		.4byte	0xbac
 4026 0b9a 26       		.uleb128 0x26
 4027 0b9b 01       		.uleb128 0x1
 4028 0b9c 50       		.byte	0x50
 4029 0b9d 02       		.uleb128 0x2
 4030 0b9e 7D       		.byte	0x7d
 4031 0b9f 00       		.sleb128 0
 4032 0ba0 26       		.uleb128 0x26
 4033 0ba1 01       		.uleb128 0x1
 4034 0ba2 51       		.byte	0x51
 4035 0ba3 02       		.uleb128 0x2
 4036 0ba4 7B       		.byte	0x7b
 4037 0ba5 00       		.sleb128 0
 4038 0ba6 26       		.uleb128 0x26
 4039 0ba7 01       		.uleb128 0x1
 4040 0ba8 52       		.byte	0x52
 4041 0ba9 01       		.uleb128 0x1
 4042 0baa 3A       		.byte	0x3a
 4043 0bab 00       		.byte	0
 4044 0bac 2C       		.uleb128 0x2c
 4045 0bad BA040000 		.4byte	.LVL135
 4046 0bb1 A0170000 		.4byte	0x17a0
 4047 0bb5 CC0B0000 		.4byte	0xbcc
 4048 0bb9 26       		.uleb128 0x26
 4049 0bba 01       		.uleb128 0x1
 4050 0bbb 50       		.byte	0x50
 4051 0bbc 03       		.uleb128 0x3
 4052 0bbd 91       		.byte	0x91
 4053 0bbe AC7F     		.sleb128 -84
 4054 0bc0 26       		.uleb128 0x26
 4055 0bc1 01       		.uleb128 0x1
 4056 0bc2 51       		.byte	0x51
 4057 0bc3 02       		.uleb128 0x2
 4058 0bc4 7B       		.byte	0x7b
 4059 0bc5 00       		.sleb128 0
 4060 0bc6 26       		.uleb128 0x26
 4061 0bc7 01       		.uleb128 0x1
 4062 0bc8 52       		.byte	0x52
 4063 0bc9 01       		.uleb128 0x1
 4064 0bca 3A       		.byte	0x3a
 4065 0bcb 00       		.byte	0
 4066 0bcc 25       		.uleb128 0x25
 4067 0bcd C6040000 		.4byte	.LVL138
 4068 0bd1 A0170000 		.4byte	0x17a0
 4069 0bd5 26       		.uleb128 0x26
 4070 0bd6 01       		.uleb128 0x1
 4071 0bd7 50       		.byte	0x50
 4072 0bd8 03       		.uleb128 0x3
 4073 0bd9 91       		.byte	0x91
 4074 0bda B07F     		.sleb128 -80
 4075 0bdc 26       		.uleb128 0x26
ARM GAS  C:\Users\armst\AppData\Local\Temp\ccNPhHLt.s 			page 91


 4076 0bdd 01       		.uleb128 0x1
 4077 0bde 51       		.byte	0x51
 4078 0bdf 02       		.uleb128 0x2
 4079 0be0 7B       		.byte	0x7b
 4080 0be1 00       		.sleb128 0
 4081 0be2 26       		.uleb128 0x26
 4082 0be3 01       		.uleb128 0x1
 4083 0be4 52       		.byte	0x52
 4084 0be5 01       		.uleb128 0x1
 4085 0be6 3A       		.byte	0x3a
 4086 0be7 00       		.byte	0
 4087 0be8 00       		.byte	0
 4088 0be9 00       		.byte	0
 4089 0bea 2D       		.uleb128 0x2d
 4090 0beb 45060000 		.4byte	0x645
 4091 0bef 38050000 		.4byte	.LBB81
 4092 0bf3 24000000 		.4byte	.LBE81-.LBB81
 4093 0bf7 01       		.byte	0x1
 4094 0bf8 4901     		.2byte	0x149
 4095 0bfa 21       		.uleb128 0x21
 4096 0bfb 56060000 		.4byte	0x656
 4097 0bff F4080000 		.4byte	.LLST45
 4098 0c03 00       		.byte	0
 4099 0c04 00       		.byte	0
 4100 0c05 00       		.byte	0
 4101 0c06 08       		.uleb128 0x8
 4102 0c07 04       		.byte	0x4
 4103 0c08 EA010000 		.4byte	0x1ea
 4104 0c0c 10       		.uleb128 0x10
 4105 0c0d DA000000 		.4byte	0xda
 4106 0c11 1C0C0000 		.4byte	0xc1c
 4107 0c15 11       		.uleb128 0x11
 4108 0c16 B4000000 		.4byte	0xb4
 4109 0c1a 02       		.byte	0x2
 4110 0c1b 00       		.byte	0
 4111 0c1c 08       		.uleb128 0x8
 4112 0c1d 04       		.byte	0x4
 4113 0c1e 1B020000 		.4byte	0x21b
 4114 0c22 2E       		.uleb128 0x2e
 4115 0c23 07070000 		.4byte	.LASF146
 4116 0c27 01       		.byte	0x1
 4117 0c28 5301     		.2byte	0x153
 4118 0c2a 32030000 		.4byte	0x332
 4119 0c2e 00000000 		.4byte	.LFB9
 4120 0c32 30000000 		.4byte	.LFE9-.LFB9
 4121 0c36 01       		.uleb128 0x1
 4122 0c37 9C       		.byte	0x9c
 4123 0c38 8C0C0000 		.4byte	0xc8c
 4124 0c3c 2F       		.uleb128 0x2f
 4125 0c3d 91040000 		.4byte	.LASF147
 4126 0c41 01       		.byte	0x1
 4127 0c42 5301     		.2byte	0x153
 4128 0c44 D4000000 		.4byte	0xd4
 4129 0c48 07090000 		.4byte	.LLST46
 4130 0c4c 2F       		.uleb128 0x2f
 4131 0c4d 15020000 		.4byte	.LASF122
 4132 0c51 01       		.byte	0x1
ARM GAS  C:\Users\armst\AppData\Local\Temp\ccNPhHLt.s 			page 92


 4133 0c52 5301     		.2byte	0x153
 4134 0c54 E1000000 		.4byte	0xe1
 4135 0c58 33090000 		.4byte	.LLST47
 4136 0c5c 2B       		.uleb128 0x2b
 4137 0c5d 19080000 		.4byte	.LASF135
 4138 0c61 01       		.byte	0x1
 4139 0c62 5501     		.2byte	0x155
 4140 0c64 8C0C0000 		.4byte	0xc8c
 4141 0c68 02       		.uleb128 0x2
 4142 0c69 91       		.byte	0x91
 4143 0c6a 70       		.sleb128 -16
 4144 0c6b 25       		.uleb128 0x25
 4145 0c6c 10000000 		.4byte	.LVL181
 4146 0c70 4A070000 		.4byte	0x74a
 4147 0c74 26       		.uleb128 0x26
 4148 0c75 01       		.uleb128 0x1
 4149 0c76 50       		.byte	0x50
 4150 0c77 03       		.uleb128 0x3
 4151 0c78 F3       		.byte	0xf3
 4152 0c79 01       		.uleb128 0x1
 4153 0c7a 51       		.byte	0x51
 4154 0c7b 26       		.uleb128 0x26
 4155 0c7c 01       		.uleb128 0x1
 4156 0c7d 51       		.byte	0x51
 4157 0c7e 05       		.uleb128 0x5
 4158 0c7f 03       		.byte	0x3
 4159 0c80 00000000 		.4byte	.LC0
 4160 0c84 26       		.uleb128 0x26
 4161 0c85 01       		.uleb128 0x1
 4162 0c86 52       		.byte	0x52
 4163 0c87 02       		.uleb128 0x2
 4164 0c88 7D       		.byte	0x7d
 4165 0c89 00       		.sleb128 0
 4166 0c8a 00       		.byte	0
 4167 0c8b 00       		.byte	0
 4168 0c8c 10       		.uleb128 0x10
 4169 0c8d DA000000 		.4byte	0xda
 4170 0c91 9C0C0000 		.4byte	0xc9c
 4171 0c95 11       		.uleb128 0x11
 4172 0c96 B4000000 		.4byte	0xb4
 4173 0c9a 05       		.byte	0x5
 4174 0c9b 00       		.byte	0
 4175 0c9c 2E       		.uleb128 0x2e
 4176 0c9d D5010000 		.4byte	.LASF79
 4177 0ca1 01       		.byte	0x1
 4178 0ca2 6001     		.2byte	0x160
 4179 0ca4 72010000 		.4byte	0x172
 4180 0ca8 00000000 		.4byte	.LFB10
 4181 0cac E8000000 		.4byte	.LFE10-.LFB10
 4182 0cb0 01       		.uleb128 0x1
 4183 0cb1 9C       		.byte	0x9c
 4184 0cb2 1E0E0000 		.4byte	0xe1e
 4185 0cb6 2F       		.uleb128 0x2f
 4186 0cb7 15020000 		.4byte	.LASF122
 4187 0cbb 01       		.byte	0x1
 4188 0cbc 6001     		.2byte	0x160
 4189 0cbe E1000000 		.4byte	0xe1
ARM GAS  C:\Users\armst\AppData\Local\Temp\ccNPhHLt.s 			page 93


 4190 0cc2 5F090000 		.4byte	.LLST48
 4191 0cc6 2F       		.uleb128 0x2f
 4192 0cc7 2F070000 		.4byte	.LASF125
 4193 0ccb 01       		.byte	0x1
 4194 0ccc 6001     		.2byte	0x160
 4195 0cce 32030000 		.4byte	0x332
 4196 0cd2 8B090000 		.4byte	.LLST49
 4197 0cd6 2B       		.uleb128 0x2b
 4198 0cd7 19080000 		.4byte	.LASF135
 4199 0cdb 01       		.byte	0x1
 4200 0cdc 6501     		.2byte	0x165
 4201 0cde 8C0C0000 		.4byte	0xc8c
 4202 0ce2 02       		.uleb128 0x2
 4203 0ce3 91       		.byte	0x91
 4204 0ce4 70       		.sleb128 -16
 4205 0ce5 2C       		.uleb128 0x2c
 4206 0ce6 0A000000 		.4byte	.LVL184
 4207 0cea BE060000 		.4byte	0x6be
 4208 0cee F90C0000 		.4byte	0xcf9
 4209 0cf2 26       		.uleb128 0x26
 4210 0cf3 01       		.uleb128 0x1
 4211 0cf4 50       		.byte	0x50
 4212 0cf5 02       		.uleb128 0x2
 4213 0cf6 74       		.byte	0x74
 4214 0cf7 00       		.sleb128 0
 4215 0cf8 00       		.byte	0
 4216 0cf9 2C       		.uleb128 0x2c
 4217 0cfa 18000000 		.4byte	.LVL185
 4218 0cfe 4A070000 		.4byte	0x74a
 4219 0d02 1C0D0000 		.4byte	0xd1c
 4220 0d06 26       		.uleb128 0x26
 4221 0d07 01       		.uleb128 0x1
 4222 0d08 50       		.byte	0x50
 4223 0d09 02       		.uleb128 0x2
 4224 0d0a 74       		.byte	0x74
 4225 0d0b 00       		.sleb128 0
 4226 0d0c 26       		.uleb128 0x26
 4227 0d0d 01       		.uleb128 0x1
 4228 0d0e 51       		.byte	0x51
 4229 0d0f 05       		.uleb128 0x5
 4230 0d10 03       		.byte	0x3
 4231 0d11 00000000 		.4byte	.LC0
 4232 0d15 26       		.uleb128 0x26
 4233 0d16 01       		.uleb128 0x1
 4234 0d17 52       		.byte	0x52
 4235 0d18 02       		.uleb128 0x2
 4236 0d19 7D       		.byte	0x7d
 4237 0d1a 00       		.sleb128 0
 4238 0d1b 00       		.byte	0
 4239 0d1c 2C       		.uleb128 0x2c
 4240 0d1d 26000000 		.4byte	.LVL186
 4241 0d21 AB170000 		.4byte	0x17ab
 4242 0d25 390D0000 		.4byte	0xd39
 4243 0d29 26       		.uleb128 0x26
 4244 0d2a 01       		.uleb128 0x1
 4245 0d2b 50       		.byte	0x50
 4246 0d2c 02       		.uleb128 0x2
ARM GAS  C:\Users\armst\AppData\Local\Temp\ccNPhHLt.s 			page 94


 4247 0d2d 91       		.byte	0x91
 4248 0d2e 72       		.sleb128 -14
 4249 0d2f 26       		.uleb128 0x26
 4250 0d30 01       		.uleb128 0x1
 4251 0d31 51       		.byte	0x51
 4252 0d32 05       		.uleb128 0x5
 4253 0d33 03       		.byte	0x3
 4254 0d34 04000000 		.4byte	.LC1
 4255 0d38 00       		.byte	0
 4256 0d39 2C       		.uleb128 0x2c
 4257 0d3a 32000000 		.4byte	.LVL187
 4258 0d3e AB170000 		.4byte	0x17ab
 4259 0d42 560D0000 		.4byte	0xd56
 4260 0d46 26       		.uleb128 0x26
 4261 0d47 01       		.uleb128 0x1
 4262 0d48 50       		.byte	0x50
 4263 0d49 02       		.uleb128 0x2
 4264 0d4a 91       		.byte	0x91
 4265 0d4b 72       		.sleb128 -14
 4266 0d4c 26       		.uleb128 0x26
 4267 0d4d 01       		.uleb128 0x1
 4268 0d4e 51       		.byte	0x51
 4269 0d4f 05       		.uleb128 0x5
 4270 0d50 03       		.byte	0x3
 4271 0d51 08000000 		.4byte	.LC2
 4272 0d55 00       		.byte	0
 4273 0d56 2C       		.uleb128 0x2c
 4274 0d57 3E000000 		.4byte	.LVL188
 4275 0d5b AB170000 		.4byte	0x17ab
 4276 0d5f 730D0000 		.4byte	0xd73
 4277 0d63 26       		.uleb128 0x26
 4278 0d64 01       		.uleb128 0x1
 4279 0d65 50       		.byte	0x50
 4280 0d66 02       		.uleb128 0x2
 4281 0d67 91       		.byte	0x91
 4282 0d68 72       		.sleb128 -14
 4283 0d69 26       		.uleb128 0x26
 4284 0d6a 01       		.uleb128 0x1
 4285 0d6b 51       		.byte	0x51
 4286 0d6c 05       		.uleb128 0x5
 4287 0d6d 03       		.byte	0x3
 4288 0d6e 0C000000 		.4byte	.LC3
 4289 0d72 00       		.byte	0
 4290 0d73 2C       		.uleb128 0x2c
 4291 0d74 4A000000 		.4byte	.LVL189
 4292 0d78 AB170000 		.4byte	0x17ab
 4293 0d7c 900D0000 		.4byte	0xd90
 4294 0d80 26       		.uleb128 0x26
 4295 0d81 01       		.uleb128 0x1
 4296 0d82 50       		.byte	0x50
 4297 0d83 02       		.uleb128 0x2
 4298 0d84 91       		.byte	0x91
 4299 0d85 72       		.sleb128 -14
 4300 0d86 26       		.uleb128 0x26
 4301 0d87 01       		.uleb128 0x1
 4302 0d88 51       		.byte	0x51
 4303 0d89 05       		.uleb128 0x5
ARM GAS  C:\Users\armst\AppData\Local\Temp\ccNPhHLt.s 			page 95


 4304 0d8a 03       		.byte	0x3
 4305 0d8b 10000000 		.4byte	.LC4
 4306 0d8f 00       		.byte	0
 4307 0d90 2C       		.uleb128 0x2c
 4308 0d91 56000000 		.4byte	.LVL190
 4309 0d95 AB170000 		.4byte	0x17ab
 4310 0d99 AD0D0000 		.4byte	0xdad
 4311 0d9d 26       		.uleb128 0x26
 4312 0d9e 01       		.uleb128 0x1
 4313 0d9f 50       		.byte	0x50
 4314 0da0 02       		.uleb128 0x2
 4315 0da1 91       		.byte	0x91
 4316 0da2 72       		.sleb128 -14
 4317 0da3 26       		.uleb128 0x26
 4318 0da4 01       		.uleb128 0x1
 4319 0da5 51       		.byte	0x51
 4320 0da6 05       		.uleb128 0x5
 4321 0da7 03       		.byte	0x3
 4322 0da8 14000000 		.4byte	.LC5
 4323 0dac 00       		.byte	0
 4324 0dad 2C       		.uleb128 0x2c
 4325 0dae 62000000 		.4byte	.LVL191
 4326 0db2 AB170000 		.4byte	0x17ab
 4327 0db6 CA0D0000 		.4byte	0xdca
 4328 0dba 26       		.uleb128 0x26
 4329 0dbb 01       		.uleb128 0x1
 4330 0dbc 50       		.byte	0x50
 4331 0dbd 02       		.uleb128 0x2
 4332 0dbe 91       		.byte	0x91
 4333 0dbf 72       		.sleb128 -14
 4334 0dc0 26       		.uleb128 0x26
 4335 0dc1 01       		.uleb128 0x1
 4336 0dc2 51       		.byte	0x51
 4337 0dc3 05       		.uleb128 0x5
 4338 0dc4 03       		.byte	0x3
 4339 0dc5 18000000 		.4byte	.LC6
 4340 0dc9 00       		.byte	0
 4341 0dca 2C       		.uleb128 0x2c
 4342 0dcb 6E000000 		.4byte	.LVL192
 4343 0dcf AB170000 		.4byte	0x17ab
 4344 0dd3 E70D0000 		.4byte	0xde7
 4345 0dd7 26       		.uleb128 0x26
 4346 0dd8 01       		.uleb128 0x1
 4347 0dd9 50       		.byte	0x50
 4348 0dda 02       		.uleb128 0x2
 4349 0ddb 91       		.byte	0x91
 4350 0ddc 72       		.sleb128 -14
 4351 0ddd 26       		.uleb128 0x26
 4352 0dde 01       		.uleb128 0x1
 4353 0ddf 51       		.byte	0x51
 4354 0de0 05       		.uleb128 0x5
 4355 0de1 03       		.byte	0x3
 4356 0de2 1C000000 		.4byte	.LC7
 4357 0de6 00       		.byte	0
 4358 0de7 2C       		.uleb128 0x2c
 4359 0de8 7A000000 		.4byte	.LVL193
 4360 0dec AB170000 		.4byte	0x17ab
ARM GAS  C:\Users\armst\AppData\Local\Temp\ccNPhHLt.s 			page 96


 4361 0df0 040E0000 		.4byte	0xe04
 4362 0df4 26       		.uleb128 0x26
 4363 0df5 01       		.uleb128 0x1
 4364 0df6 50       		.byte	0x50
 4365 0df7 02       		.uleb128 0x2
 4366 0df8 91       		.byte	0x91
 4367 0df9 72       		.sleb128 -14
 4368 0dfa 26       		.uleb128 0x26
 4369 0dfb 01       		.uleb128 0x1
 4370 0dfc 51       		.byte	0x51
 4371 0dfd 05       		.uleb128 0x5
 4372 0dfe 03       		.byte	0x3
 4373 0dff 20000000 		.4byte	.LC8
 4374 0e03 00       		.byte	0
 4375 0e04 25       		.uleb128 0x25
 4376 0e05 86000000 		.4byte	.LVL194
 4377 0e09 AB170000 		.4byte	0x17ab
 4378 0e0d 26       		.uleb128 0x26
 4379 0e0e 01       		.uleb128 0x1
 4380 0e0f 50       		.byte	0x50
 4381 0e10 02       		.uleb128 0x2
 4382 0e11 91       		.byte	0x91
 4383 0e12 72       		.sleb128 -14
 4384 0e13 26       		.uleb128 0x26
 4385 0e14 01       		.uleb128 0x1
 4386 0e15 51       		.byte	0x51
 4387 0e16 05       		.uleb128 0x5
 4388 0e17 03       		.byte	0x3
 4389 0e18 24000000 		.4byte	.LC9
 4390 0e1c 00       		.byte	0
 4391 0e1d 00       		.byte	0
 4392 0e1e 2E       		.uleb128 0x2e
 4393 0e1f 70050000 		.4byte	.LASF148
 4394 0e23 01       		.byte	0x1
 4395 0e24 7F01     		.2byte	0x17f
 4396 0e26 32030000 		.4byte	0x332
 4397 0e2a 00000000 		.4byte	.LFB11
 4398 0e2e 5C000000 		.4byte	.LFE11-.LFB11
 4399 0e32 01       		.uleb128 0x1
 4400 0e33 9C       		.byte	0x9c
 4401 0e34 F20E0000 		.4byte	0xef2
 4402 0e38 2F       		.uleb128 0x2f
 4403 0e39 82080000 		.4byte	.LASF149
 4404 0e3d 01       		.byte	0x1
 4405 0e3e 7F01     		.2byte	0x17f
 4406 0e40 F20E0000 		.4byte	0xef2
 4407 0e44 AC090000 		.4byte	.LLST50
 4408 0e48 2F       		.uleb128 0x2f
 4409 0e49 15020000 		.4byte	.LASF122
 4410 0e4d 01       		.byte	0x1
 4411 0e4e 7F01     		.2byte	0x17f
 4412 0e50 E1000000 		.4byte	0xe1
 4413 0e54 D8090000 		.4byte	.LLST51
 4414 0e58 2B       		.uleb128 0x2b
 4415 0e59 19080000 		.4byte	.LASF135
 4416 0e5d 01       		.byte	0x1
 4417 0e5e 8201     		.2byte	0x182
ARM GAS  C:\Users\armst\AppData\Local\Temp\ccNPhHLt.s 			page 97


 4418 0e60 8C0C0000 		.4byte	0xc8c
 4419 0e64 02       		.uleb128 0x2
 4420 0e65 91       		.byte	0x91
 4421 0e66 70       		.sleb128 -16
 4422 0e67 2C       		.uleb128 0x2c
 4423 0e68 3A000000 		.4byte	.LVL199
 4424 0e6c 4A070000 		.4byte	0x74a
 4425 0e70 D80E0000 		.4byte	0xed8
 4426 0e74 26       		.uleb128 0x26
 4427 0e75 01       		.uleb128 0x1
 4428 0e76 50       		.byte	0x50
 4429 0e77 03       		.uleb128 0x3
 4430 0e78 F3       		.byte	0xf3
 4431 0e79 01       		.uleb128 0x1
 4432 0e7a 51       		.byte	0x51
 4433 0e7b 26       		.uleb128 0x26
 4434 0e7c 01       		.uleb128 0x1
 4435 0e7d 51       		.byte	0x51
 4436 0e7e 05       		.uleb128 0x5
 4437 0e7f 03       		.byte	0x3
 4438 0e80 28000000 		.4byte	.LC10
 4439 0e84 26       		.uleb128 0x26
 4440 0e85 01       		.uleb128 0x1
 4441 0e86 52       		.byte	0x52
 4442 0e87 02       		.uleb128 0x2
 4443 0e88 91       		.byte	0x91
 4444 0e89 70       		.sleb128 -16
 4445 0e8a 26       		.uleb128 0x26
 4446 0e8b 01       		.uleb128 0x1
 4447 0e8c 53       		.byte	0x53
 4448 0e8d 03       		.uleb128 0x3
 4449 0e8e F3       		.byte	0xf3
 4450 0e8f 01       		.uleb128 0x1
 4451 0e90 50       		.byte	0x50
 4452 0e91 26       		.uleb128 0x26
 4453 0e92 02       		.uleb128 0x2
 4454 0e93 7D       		.byte	0x7d
 4455 0e94 00       		.sleb128 0
 4456 0e95 05       		.uleb128 0x5
 4457 0e96 F3       		.byte	0xf3
 4458 0e97 01       		.uleb128 0x1
 4459 0e98 50       		.byte	0x50
 4460 0e99 23       		.byte	0x23
 4461 0e9a 10       		.uleb128 0x10
 4462 0e9b 26       		.uleb128 0x26
 4463 0e9c 02       		.uleb128 0x2
 4464 0e9d 7D       		.byte	0x7d
 4465 0e9e 04       		.sleb128 4
 4466 0e9f 05       		.uleb128 0x5
 4467 0ea0 F3       		.byte	0xf3
 4468 0ea1 01       		.uleb128 0x1
 4469 0ea2 50       		.byte	0x50
 4470 0ea3 23       		.byte	0x23
 4471 0ea4 18       		.uleb128 0x18
 4472 0ea5 26       		.uleb128 0x26
 4473 0ea6 02       		.uleb128 0x2
 4474 0ea7 7D       		.byte	0x7d
ARM GAS  C:\Users\armst\AppData\Local\Temp\ccNPhHLt.s 			page 98


 4475 0ea8 08       		.sleb128 8
 4476 0ea9 05       		.uleb128 0x5
 4477 0eaa F3       		.byte	0xf3
 4478 0eab 01       		.uleb128 0x1
 4479 0eac 50       		.byte	0x50
 4480 0ead 23       		.byte	0x23
 4481 0eae 20       		.uleb128 0x20
 4482 0eaf 26       		.uleb128 0x26
 4483 0eb0 02       		.uleb128 0x2
 4484 0eb1 7D       		.byte	0x7d
 4485 0eb2 0C       		.sleb128 12
 4486 0eb3 05       		.uleb128 0x5
 4487 0eb4 F3       		.byte	0xf3
 4488 0eb5 01       		.uleb128 0x1
 4489 0eb6 50       		.byte	0x50
 4490 0eb7 23       		.byte	0x23
 4491 0eb8 28       		.uleb128 0x28
 4492 0eb9 26       		.uleb128 0x26
 4493 0eba 02       		.uleb128 0x2
 4494 0ebb 7D       		.byte	0x7d
 4495 0ebc 10       		.sleb128 16
 4496 0ebd 05       		.uleb128 0x5
 4497 0ebe F3       		.byte	0xf3
 4498 0ebf 01       		.uleb128 0x1
 4499 0ec0 50       		.byte	0x50
 4500 0ec1 23       		.byte	0x23
 4501 0ec2 2C       		.uleb128 0x2c
 4502 0ec3 26       		.uleb128 0x26
 4503 0ec4 02       		.uleb128 0x2
 4504 0ec5 7D       		.byte	0x7d
 4505 0ec6 14       		.sleb128 20
 4506 0ec7 05       		.uleb128 0x5
 4507 0ec8 F3       		.byte	0xf3
 4508 0ec9 01       		.uleb128 0x1
 4509 0eca 50       		.byte	0x50
 4510 0ecb 23       		.byte	0x23
 4511 0ecc 34       		.uleb128 0x34
 4512 0ecd 26       		.uleb128 0x26
 4513 0ece 02       		.uleb128 0x2
 4514 0ecf 7D       		.byte	0x7d
 4515 0ed0 18       		.sleb128 24
 4516 0ed1 05       		.uleb128 0x5
 4517 0ed2 F3       		.byte	0xf3
 4518 0ed3 01       		.uleb128 0x1
 4519 0ed4 50       		.byte	0x50
 4520 0ed5 23       		.byte	0x23
 4521 0ed6 3C       		.uleb128 0x3c
 4522 0ed7 00       		.byte	0
 4523 0ed8 25       		.uleb128 0x25
 4524 0ed9 48000000 		.4byte	.LVL200
 4525 0edd AB170000 		.4byte	0x17ab
 4526 0ee1 26       		.uleb128 0x26
 4527 0ee2 01       		.uleb128 0x1
 4528 0ee3 50       		.byte	0x50
 4529 0ee4 02       		.uleb128 0x2
 4530 0ee5 91       		.byte	0x91
 4531 0ee6 72       		.sleb128 -14
ARM GAS  C:\Users\armst\AppData\Local\Temp\ccNPhHLt.s 			page 99


 4532 0ee7 26       		.uleb128 0x26
 4533 0ee8 01       		.uleb128 0x1
 4534 0ee9 51       		.byte	0x51
 4535 0eea 05       		.uleb128 0x5
 4536 0eeb 03       		.byte	0x3
 4537 0eec 04000000 		.4byte	.LC1
 4538 0ef0 00       		.byte	0
 4539 0ef1 00       		.byte	0
 4540 0ef2 08       		.uleb128 0x8
 4541 0ef3 04       		.byte	0x4
 4542 0ef4 58020000 		.4byte	0x258
 4543 0ef8 2E       		.uleb128 0x2e
 4544 0ef9 E9050000 		.4byte	.LASF150
 4545 0efd 01       		.byte	0x1
 4546 0efe 9501     		.2byte	0x195
 4547 0f00 32030000 		.4byte	0x332
 4548 0f04 00000000 		.4byte	.LFB12
 4549 0f08 98000000 		.4byte	.LFE12-.LFB12
 4550 0f0c 01       		.uleb128 0x1
 4551 0f0d 9C       		.byte	0x9c
 4552 0f0e 08100000 		.4byte	0x1008
 4553 0f12 2F       		.uleb128 0x2f
 4554 0f13 82080000 		.4byte	.LASF149
 4555 0f17 01       		.byte	0x1
 4556 0f18 9501     		.2byte	0x195
 4557 0f1a 08100000 		.4byte	0x1008
 4558 0f1e 040A0000 		.4byte	.LLST52
 4559 0f22 2F       		.uleb128 0x2f
 4560 0f23 15020000 		.4byte	.LASF122
 4561 0f27 01       		.byte	0x1
 4562 0f28 9501     		.2byte	0x195
 4563 0f2a E1000000 		.4byte	0xe1
 4564 0f2e 300A0000 		.4byte	.LLST53
 4565 0f32 2B       		.uleb128 0x2b
 4566 0f33 19080000 		.4byte	.LASF135
 4567 0f37 01       		.byte	0x1
 4568 0f38 9801     		.2byte	0x198
 4569 0f3a 8C0C0000 		.4byte	0xc8c
 4570 0f3e 02       		.uleb128 0x2
 4571 0f3f 91       		.byte	0x91
 4572 0f40 68       		.sleb128 -24
 4573 0f41 2B       		.uleb128 0x2b
 4574 0f42 1E020000 		.4byte	.LASF151
 4575 0f46 01       		.byte	0x1
 4576 0f47 9901     		.2byte	0x199
 4577 0f49 DA000000 		.4byte	0xda
 4578 0f4d 02       		.uleb128 0x2
 4579 0f4e 91       		.byte	0x91
 4580 0f4f 67       		.sleb128 -25
 4581 0f50 2B       		.uleb128 0x2b
 4582 0f51 72030000 		.4byte	.LASF152
 4583 0f55 01       		.byte	0x1
 4584 0f56 9A01     		.2byte	0x19a
 4585 0f58 7E000000 		.4byte	0x7e
 4586 0f5c 02       		.uleb128 0x2
 4587 0f5d 91       		.byte	0x91
 4588 0f5e 60       		.sleb128 -32
ARM GAS  C:\Users\armst\AppData\Local\Temp\ccNPhHLt.s 			page 100


 4589 0f5f 2B       		.uleb128 0x2b
 4590 0f60 D5050000 		.4byte	.LASF153
 4591 0f64 01       		.byte	0x1
 4592 0f65 9B01     		.2byte	0x19b
 4593 0f67 7E000000 		.4byte	0x7e
 4594 0f6b 02       		.uleb128 0x2
 4595 0f6c 91       		.byte	0x91
 4596 0f6d 5C       		.sleb128 -36
 4597 0f6e 2B       		.uleb128 0x2b
 4598 0f6f 92020000 		.4byte	.LASF154
 4599 0f73 01       		.byte	0x1
 4600 0f74 9C01     		.2byte	0x19c
 4601 0f76 7E000000 		.4byte	0x7e
 4602 0f7a 02       		.uleb128 0x2
 4603 0f7b 91       		.byte	0x91
 4604 0f7c 58       		.sleb128 -40
 4605 0f7d 2C       		.uleb128 0x2c
 4606 0f7e 48000000 		.4byte	.LVL204
 4607 0f82 4A070000 		.4byte	0x74a
 4608 0f86 EE0F0000 		.4byte	0xfee
 4609 0f8a 26       		.uleb128 0x26
 4610 0f8b 01       		.uleb128 0x1
 4611 0f8c 50       		.byte	0x50
 4612 0f8d 03       		.uleb128 0x3
 4613 0f8e F3       		.byte	0xf3
 4614 0f8f 01       		.uleb128 0x1
 4615 0f90 51       		.byte	0x51
 4616 0f91 26       		.uleb128 0x26
 4617 0f92 01       		.uleb128 0x1
 4618 0f93 51       		.byte	0x51
 4619 0f94 05       		.uleb128 0x5
 4620 0f95 03       		.byte	0x3
 4621 0f96 34000000 		.4byte	.LC11
 4622 0f9a 26       		.uleb128 0x26
 4623 0f9b 01       		.uleb128 0x1
 4624 0f9c 52       		.byte	0x52
 4625 0f9d 02       		.uleb128 0x2
 4626 0f9e 91       		.byte	0x91
 4627 0f9f 68       		.sleb128 -24
 4628 0fa0 26       		.uleb128 0x26
 4629 0fa1 01       		.uleb128 0x1
 4630 0fa2 53       		.byte	0x53
 4631 0fa3 02       		.uleb128 0x2
 4632 0fa4 74       		.byte	0x74
 4633 0fa5 00       		.sleb128 0
 4634 0fa6 26       		.uleb128 0x26
 4635 0fa7 02       		.uleb128 0x2
 4636 0fa8 7D       		.byte	0x7d
 4637 0fa9 00       		.sleb128 0
 4638 0faa 02       		.uleb128 0x2
 4639 0fab 91       		.byte	0x91
 4640 0fac 67       		.sleb128 -25
 4641 0fad 26       		.uleb128 0x26
 4642 0fae 02       		.uleb128 0x2
 4643 0faf 7D       		.byte	0x7d
 4644 0fb0 04       		.sleb128 4
 4645 0fb1 02       		.uleb128 0x2
ARM GAS  C:\Users\armst\AppData\Local\Temp\ccNPhHLt.s 			page 101


 4646 0fb2 74       		.byte	0x74
 4647 0fb3 14       		.sleb128 20
 4648 0fb4 26       		.uleb128 0x26
 4649 0fb5 02       		.uleb128 0x2
 4650 0fb6 7D       		.byte	0x7d
 4651 0fb7 08       		.sleb128 8
 4652 0fb8 02       		.uleb128 0x2
 4653 0fb9 91       		.byte	0x91
 4654 0fba 60       		.sleb128 -32
 4655 0fbb 26       		.uleb128 0x26
 4656 0fbc 02       		.uleb128 0x2
 4657 0fbd 7D       		.byte	0x7d
 4658 0fbe 0C       		.sleb128 12
 4659 0fbf 02       		.uleb128 0x2
 4660 0fc0 74       		.byte	0x74
 4661 0fc1 1C       		.sleb128 28
 4662 0fc2 26       		.uleb128 0x26
 4663 0fc3 02       		.uleb128 0x2
 4664 0fc4 7D       		.byte	0x7d
 4665 0fc5 10       		.sleb128 16
 4666 0fc6 02       		.uleb128 0x2
 4667 0fc7 91       		.byte	0x91
 4668 0fc8 5C       		.sleb128 -36
 4669 0fc9 26       		.uleb128 0x26
 4670 0fca 02       		.uleb128 0x2
 4671 0fcb 7D       		.byte	0x7d
 4672 0fcc 14       		.sleb128 20
 4673 0fcd 02       		.uleb128 0x2
 4674 0fce 74       		.byte	0x74
 4675 0fcf 24       		.sleb128 36
 4676 0fd0 26       		.uleb128 0x26
 4677 0fd1 02       		.uleb128 0x2
 4678 0fd2 7D       		.byte	0x7d
 4679 0fd3 18       		.sleb128 24
 4680 0fd4 02       		.uleb128 0x2
 4681 0fd5 74       		.byte	0x74
 4682 0fd6 2C       		.sleb128 44
 4683 0fd7 26       		.uleb128 0x26
 4684 0fd8 02       		.uleb128 0x2
 4685 0fd9 7D       		.byte	0x7d
 4686 0fda 1C       		.sleb128 28
 4687 0fdb 02       		.uleb128 0x2
 4688 0fdc 74       		.byte	0x74
 4689 0fdd 34       		.sleb128 52
 4690 0fde 26       		.uleb128 0x26
 4691 0fdf 02       		.uleb128 0x2
 4692 0fe0 7D       		.byte	0x7d
 4693 0fe1 20       		.sleb128 32
 4694 0fe2 03       		.uleb128 0x3
 4695 0fe3 74       		.byte	0x74
 4696 0fe4 C000     		.sleb128 64
 4697 0fe6 26       		.uleb128 0x26
 4698 0fe7 02       		.uleb128 0x2
 4699 0fe8 7D       		.byte	0x7d
 4700 0fe9 24       		.sleb128 36
 4701 0fea 02       		.uleb128 0x2
 4702 0feb 91       		.byte	0x91
ARM GAS  C:\Users\armst\AppData\Local\Temp\ccNPhHLt.s 			page 102


 4703 0fec 58       		.sleb128 -40
 4704 0fed 00       		.byte	0
 4705 0fee 25       		.uleb128 0x25
 4706 0fef 56000000 		.4byte	.LVL205
 4707 0ff3 AB170000 		.4byte	0x17ab
 4708 0ff7 26       		.uleb128 0x26
 4709 0ff8 01       		.uleb128 0x1
 4710 0ff9 50       		.byte	0x50
 4711 0ffa 02       		.uleb128 0x2
 4712 0ffb 91       		.byte	0x91
 4713 0ffc 6A       		.sleb128 -22
 4714 0ffd 26       		.uleb128 0x26
 4715 0ffe 01       		.uleb128 0x1
 4716 0fff 51       		.byte	0x51
 4717 1000 05       		.uleb128 0x5
 4718 1001 03       		.byte	0x3
 4719 1002 1C000000 		.4byte	.LC7
 4720 1006 00       		.byte	0
 4721 1007 00       		.byte	0
 4722 1008 08       		.uleb128 0x8
 4723 1009 04       		.byte	0x4
 4724 100a C5020000 		.4byte	0x2c5
 4725 100e 2E       		.uleb128 0x2e
 4726 100f 03080000 		.4byte	.LASF155
 4727 1013 01       		.byte	0x1
 4728 1014 B301     		.2byte	0x1b3
 4729 1016 32030000 		.4byte	0x332
 4730 101a 00000000 		.4byte	.LFB13
 4731 101e 8C000000 		.4byte	.LFE13-.LFB13
 4732 1022 01       		.uleb128 0x1
 4733 1023 9C       		.byte	0x9c
 4734 1024 0F110000 		.4byte	0x110f
 4735 1028 2F       		.uleb128 0x2f
 4736 1029 82080000 		.4byte	.LASF149
 4737 102d 01       		.byte	0x1
 4738 102e B301     		.2byte	0x1b3
 4739 1030 0F110000 		.4byte	0x110f
 4740 1034 5C0A0000 		.4byte	.LLST54
 4741 1038 2F       		.uleb128 0x2f
 4742 1039 15020000 		.4byte	.LASF122
 4743 103d 01       		.byte	0x1
 4744 103e B301     		.2byte	0x1b3
 4745 1040 E1000000 		.4byte	0xe1
 4746 1044 880A0000 		.4byte	.LLST55
 4747 1048 2B       		.uleb128 0x2b
 4748 1049 19080000 		.4byte	.LASF135
 4749 104d 01       		.byte	0x1
 4750 104e B601     		.2byte	0x1b6
 4751 1050 8C0C0000 		.4byte	0xc8c
 4752 1054 02       		.uleb128 0x2
 4753 1055 91       		.byte	0x91
 4754 1056 68       		.sleb128 -24
 4755 1057 2B       		.uleb128 0x2b
 4756 1058 72030000 		.4byte	.LASF152
 4757 105c 01       		.byte	0x1
 4758 105d B701     		.2byte	0x1b7
 4759 105f 7E000000 		.4byte	0x7e
ARM GAS  C:\Users\armst\AppData\Local\Temp\ccNPhHLt.s 			page 103


 4760 1063 02       		.uleb128 0x2
 4761 1064 91       		.byte	0x91
 4762 1065 64       		.sleb128 -28
 4763 1066 2B       		.uleb128 0x2b
 4764 1067 D5050000 		.4byte	.LASF153
 4765 106b 01       		.byte	0x1
 4766 106c B801     		.2byte	0x1b8
 4767 106e 7E000000 		.4byte	0x7e
 4768 1072 02       		.uleb128 0x2
 4769 1073 91       		.byte	0x91
 4770 1074 60       		.sleb128 -32
 4771 1075 2C       		.uleb128 0x2c
 4772 1076 56000000 		.4byte	.LVL210
 4773 107a 4A070000 		.4byte	0x74a
 4774 107e F5100000 		.4byte	0x10f5
 4775 1082 26       		.uleb128 0x26
 4776 1083 01       		.uleb128 0x1
 4777 1084 50       		.byte	0x50
 4778 1085 03       		.uleb128 0x3
 4779 1086 F3       		.byte	0xf3
 4780 1087 01       		.uleb128 0x1
 4781 1088 51       		.byte	0x51
 4782 1089 26       		.uleb128 0x26
 4783 108a 01       		.uleb128 0x1
 4784 108b 51       		.byte	0x51
 4785 108c 05       		.uleb128 0x5
 4786 108d 03       		.byte	0x3
 4787 108e 44000000 		.4byte	.LC12
 4788 1092 26       		.uleb128 0x26
 4789 1093 01       		.uleb128 0x1
 4790 1094 52       		.byte	0x52
 4791 1095 02       		.uleb128 0x2
 4792 1096 91       		.byte	0x91
 4793 1097 68       		.sleb128 -24
 4794 1098 26       		.uleb128 0x26
 4795 1099 01       		.uleb128 0x1
 4796 109a 53       		.byte	0x53
 4797 109b 02       		.uleb128 0x2
 4798 109c 74       		.byte	0x74
 4799 109d 00       		.sleb128 0
 4800 109e 26       		.uleb128 0x26
 4801 109f 02       		.uleb128 0x2
 4802 10a0 7D       		.byte	0x7d
 4803 10a1 00       		.sleb128 0
 4804 10a2 02       		.uleb128 0x2
 4805 10a3 74       		.byte	0x74
 4806 10a4 10       		.sleb128 16
 4807 10a5 26       		.uleb128 0x26
 4808 10a6 02       		.uleb128 0x2
 4809 10a7 7D       		.byte	0x7d
 4810 10a8 04       		.sleb128 4
 4811 10a9 02       		.uleb128 0x2
 4812 10aa 91       		.byte	0x91
 4813 10ab 64       		.sleb128 -28
 4814 10ac 26       		.uleb128 0x26
 4815 10ad 02       		.uleb128 0x2
 4816 10ae 7D       		.byte	0x7d
ARM GAS  C:\Users\armst\AppData\Local\Temp\ccNPhHLt.s 			page 104


 4817 10af 08       		.sleb128 8
 4818 10b0 02       		.uleb128 0x2
 4819 10b1 74       		.byte	0x74
 4820 10b2 18       		.sleb128 24
 4821 10b3 26       		.uleb128 0x26
 4822 10b4 02       		.uleb128 0x2
 4823 10b5 7D       		.byte	0x7d
 4824 10b6 0C       		.sleb128 12
 4825 10b7 02       		.uleb128 0x2
 4826 10b8 91       		.byte	0x91
 4827 10b9 60       		.sleb128 -32
 4828 10ba 26       		.uleb128 0x26
 4829 10bb 02       		.uleb128 0x2
 4830 10bc 7D       		.byte	0x7d
 4831 10bd 10       		.sleb128 16
 4832 10be 02       		.uleb128 0x2
 4833 10bf 74       		.byte	0x74
 4834 10c0 20       		.sleb128 32
 4835 10c1 26       		.uleb128 0x26
 4836 10c2 02       		.uleb128 0x2
 4837 10c3 7D       		.byte	0x7d
 4838 10c4 14       		.sleb128 20
 4839 10c5 02       		.uleb128 0x2
 4840 10c6 74       		.byte	0x74
 4841 10c7 24       		.sleb128 36
 4842 10c8 26       		.uleb128 0x26
 4843 10c9 02       		.uleb128 0x2
 4844 10ca 7D       		.byte	0x7d
 4845 10cb 18       		.sleb128 24
 4846 10cc 02       		.uleb128 0x2
 4847 10cd 74       		.byte	0x74
 4848 10ce 28       		.sleb128 40
 4849 10cf 26       		.uleb128 0x26
 4850 10d0 02       		.uleb128 0x2
 4851 10d1 7D       		.byte	0x7d
 4852 10d2 1C       		.sleb128 28
 4853 10d3 02       		.uleb128 0x2
 4854 10d4 74       		.byte	0x74
 4855 10d5 30       		.sleb128 48
 4856 10d6 26       		.uleb128 0x26
 4857 10d7 02       		.uleb128 0x2
 4858 10d8 7D       		.byte	0x7d
 4859 10d9 20       		.sleb128 32
 4860 10da 02       		.uleb128 0x2
 4861 10db 74       		.byte	0x74
 4862 10dc 38       		.sleb128 56
 4863 10dd 26       		.uleb128 0x26
 4864 10de 02       		.uleb128 0x2
 4865 10df 7D       		.byte	0x7d
 4866 10e0 24       		.sleb128 36
 4867 10e1 02       		.uleb128 0x2
 4868 10e2 74       		.byte	0x74
 4869 10e3 3C       		.sleb128 60
 4870 10e4 26       		.uleb128 0x26
 4871 10e5 02       		.uleb128 0x2
 4872 10e6 7D       		.byte	0x7d
 4873 10e7 28       		.sleb128 40
ARM GAS  C:\Users\armst\AppData\Local\Temp\ccNPhHLt.s 			page 105


 4874 10e8 03       		.uleb128 0x3
 4875 10e9 74       		.byte	0x74
 4876 10ea C400     		.sleb128 68
 4877 10ec 26       		.uleb128 0x26
 4878 10ed 02       		.uleb128 0x2
 4879 10ee 7D       		.byte	0x7d
 4880 10ef 2C       		.sleb128 44
 4881 10f0 03       		.uleb128 0x3
 4882 10f1 74       		.byte	0x74
 4883 10f2 C800     		.sleb128 72
 4884 10f4 00       		.byte	0
 4885 10f5 25       		.uleb128 0x25
 4886 10f6 64000000 		.4byte	.LVL211
 4887 10fa AB170000 		.4byte	0x17ab
 4888 10fe 26       		.uleb128 0x26
 4889 10ff 01       		.uleb128 0x1
 4890 1100 50       		.byte	0x50
 4891 1101 02       		.uleb128 0x2
 4892 1102 91       		.byte	0x91
 4893 1103 6A       		.sleb128 -22
 4894 1104 26       		.uleb128 0x26
 4895 1105 01       		.uleb128 0x1
 4896 1106 51       		.byte	0x51
 4897 1107 05       		.uleb128 0x5
 4898 1108 03       		.byte	0x3
 4899 1109 08000000 		.4byte	.LC2
 4900 110d 00       		.byte	0
 4901 110e 00       		.byte	0
 4902 110f 08       		.uleb128 0x8
 4903 1110 04       		.byte	0x4
 4904 1111 39030000 		.4byte	0x339
 4905 1115 2E       		.uleb128 0x2e
 4906 1116 13060000 		.4byte	.LASF156
 4907 111a 01       		.byte	0x1
 4908 111b CF01     		.2byte	0x1cf
 4909 111d 32030000 		.4byte	0x332
 4910 1121 00000000 		.4byte	.LFB14
 4911 1125 90000000 		.4byte	.LFE14-.LFB14
 4912 1129 01       		.uleb128 0x1
 4913 112a 9C       		.byte	0x9c
 4914 112b 43120000 		.4byte	0x1243
 4915 112f 2F       		.uleb128 0x2f
 4916 1130 82080000 		.4byte	.LASF149
 4917 1134 01       		.byte	0x1
 4918 1135 CF01     		.2byte	0x1cf
 4919 1137 43120000 		.4byte	0x1243
 4920 113b B40A0000 		.4byte	.LLST56
 4921 113f 2F       		.uleb128 0x2f
 4922 1140 15020000 		.4byte	.LASF122
 4923 1144 01       		.byte	0x1
 4924 1145 CF01     		.2byte	0x1cf
 4925 1147 E1000000 		.4byte	0xe1
 4926 114b E00A0000 		.4byte	.LLST57
 4927 114f 2B       		.uleb128 0x2b
 4928 1150 19080000 		.4byte	.LASF135
 4929 1154 01       		.byte	0x1
 4930 1155 D201     		.2byte	0x1d2
ARM GAS  C:\Users\armst\AppData\Local\Temp\ccNPhHLt.s 			page 106


 4931 1157 8C0C0000 		.4byte	0xc8c
 4932 115b 02       		.uleb128 0x2
 4933 115c 91       		.byte	0x91
 4934 115d 70       		.sleb128 -16
 4935 115e 2C       		.uleb128 0x2c
 4936 115f 6E000000 		.4byte	.LVL216
 4937 1163 4A070000 		.4byte	0x74a
 4938 1167 29120000 		.4byte	0x1229
 4939 116b 26       		.uleb128 0x26
 4940 116c 01       		.uleb128 0x1
 4941 116d 50       		.byte	0x50
 4942 116e 03       		.uleb128 0x3
 4943 116f F3       		.byte	0xf3
 4944 1170 01       		.uleb128 0x1
 4945 1171 51       		.byte	0x51
 4946 1172 26       		.uleb128 0x26
 4947 1173 01       		.uleb128 0x1
 4948 1174 51       		.byte	0x51
 4949 1175 05       		.uleb128 0x5
 4950 1176 03       		.byte	0x3
 4951 1177 54000000 		.4byte	.LC13
 4952 117b 26       		.uleb128 0x26
 4953 117c 01       		.uleb128 0x1
 4954 117d 52       		.byte	0x52
 4955 117e 02       		.uleb128 0x2
 4956 117f 91       		.byte	0x91
 4957 1180 70       		.sleb128 -16
 4958 1181 26       		.uleb128 0x26
 4959 1182 01       		.uleb128 0x1
 4960 1183 53       		.byte	0x53
 4961 1184 03       		.uleb128 0x3
 4962 1185 F3       		.byte	0xf3
 4963 1186 01       		.uleb128 0x1
 4964 1187 50       		.byte	0x50
 4965 1188 26       		.uleb128 0x26
 4966 1189 02       		.uleb128 0x2
 4967 118a 7D       		.byte	0x7d
 4968 118b 00       		.sleb128 0
 4969 118c 05       		.uleb128 0x5
 4970 118d F3       		.byte	0xf3
 4971 118e 01       		.uleb128 0x1
 4972 118f 50       		.byte	0x50
 4973 1190 23       		.byte	0x23
 4974 1191 04       		.uleb128 0x4
 4975 1192 26       		.uleb128 0x26
 4976 1193 02       		.uleb128 0x2
 4977 1194 7D       		.byte	0x7d
 4978 1195 04       		.sleb128 4
 4979 1196 05       		.uleb128 0x5
 4980 1197 F3       		.byte	0xf3
 4981 1198 01       		.uleb128 0x1
 4982 1199 50       		.byte	0x50
 4983 119a 23       		.byte	0x23
 4984 119b 08       		.uleb128 0x8
 4985 119c 26       		.uleb128 0x26
 4986 119d 02       		.uleb128 0x2
 4987 119e 7D       		.byte	0x7d
ARM GAS  C:\Users\armst\AppData\Local\Temp\ccNPhHLt.s 			page 107


 4988 119f 08       		.sleb128 8
 4989 11a0 05       		.uleb128 0x5
 4990 11a1 F3       		.byte	0xf3
 4991 11a2 01       		.uleb128 0x1
 4992 11a3 50       		.byte	0x50
 4993 11a4 23       		.byte	0x23
 4994 11a5 0C       		.uleb128 0xc
 4995 11a6 26       		.uleb128 0x26
 4996 11a7 02       		.uleb128 0x2
 4997 11a8 7D       		.byte	0x7d
 4998 11a9 0C       		.sleb128 12
 4999 11aa 05       		.uleb128 0x5
 5000 11ab F3       		.byte	0xf3
 5001 11ac 01       		.uleb128 0x1
 5002 11ad 50       		.byte	0x50
 5003 11ae 23       		.byte	0x23
 5004 11af 10       		.uleb128 0x10
 5005 11b0 26       		.uleb128 0x26
 5006 11b1 02       		.uleb128 0x2
 5007 11b2 7D       		.byte	0x7d
 5008 11b3 10       		.sleb128 16
 5009 11b4 05       		.uleb128 0x5
 5010 11b5 F3       		.byte	0xf3
 5011 11b6 01       		.uleb128 0x1
 5012 11b7 50       		.byte	0x50
 5013 11b8 23       		.byte	0x23
 5014 11b9 14       		.uleb128 0x14
 5015 11ba 26       		.uleb128 0x26
 5016 11bb 02       		.uleb128 0x2
 5017 11bc 7D       		.byte	0x7d
 5018 11bd 14       		.sleb128 20
 5019 11be 05       		.uleb128 0x5
 5020 11bf F3       		.byte	0xf3
 5021 11c0 01       		.uleb128 0x1
 5022 11c1 50       		.byte	0x50
 5023 11c2 23       		.byte	0x23
 5024 11c3 18       		.uleb128 0x18
 5025 11c4 26       		.uleb128 0x26
 5026 11c5 02       		.uleb128 0x2
 5027 11c6 7D       		.byte	0x7d
 5028 11c7 18       		.sleb128 24
 5029 11c8 05       		.uleb128 0x5
 5030 11c9 F3       		.byte	0xf3
 5031 11ca 01       		.uleb128 0x1
 5032 11cb 50       		.byte	0x50
 5033 11cc 23       		.byte	0x23
 5034 11cd 1C       		.uleb128 0x1c
 5035 11ce 26       		.uleb128 0x26
 5036 11cf 02       		.uleb128 0x2
 5037 11d0 7D       		.byte	0x7d
 5038 11d1 1C       		.sleb128 28
 5039 11d2 05       		.uleb128 0x5
 5040 11d3 F3       		.byte	0xf3
 5041 11d4 01       		.uleb128 0x1
 5042 11d5 50       		.byte	0x50
 5043 11d6 23       		.byte	0x23
 5044 11d7 20       		.uleb128 0x20
ARM GAS  C:\Users\armst\AppData\Local\Temp\ccNPhHLt.s 			page 108


 5045 11d8 26       		.uleb128 0x26
 5046 11d9 02       		.uleb128 0x2
 5047 11da 7D       		.byte	0x7d
 5048 11db 20       		.sleb128 32
 5049 11dc 05       		.uleb128 0x5
 5050 11dd F3       		.byte	0xf3
 5051 11de 01       		.uleb128 0x1
 5052 11df 50       		.byte	0x50
 5053 11e0 23       		.byte	0x23
 5054 11e1 24       		.uleb128 0x24
 5055 11e2 26       		.uleb128 0x26
 5056 11e3 02       		.uleb128 0x2
 5057 11e4 7D       		.byte	0x7d
 5058 11e5 24       		.sleb128 36
 5059 11e6 05       		.uleb128 0x5
 5060 11e7 F3       		.byte	0xf3
 5061 11e8 01       		.uleb128 0x1
 5062 11e9 50       		.byte	0x50
 5063 11ea 23       		.byte	0x23
 5064 11eb 28       		.uleb128 0x28
 5065 11ec 26       		.uleb128 0x26
 5066 11ed 02       		.uleb128 0x2
 5067 11ee 7D       		.byte	0x7d
 5068 11ef 28       		.sleb128 40
 5069 11f0 05       		.uleb128 0x5
 5070 11f1 F3       		.byte	0xf3
 5071 11f2 01       		.uleb128 0x1
 5072 11f3 50       		.byte	0x50
 5073 11f4 23       		.byte	0x23
 5074 11f5 2C       		.uleb128 0x2c
 5075 11f6 26       		.uleb128 0x26
 5076 11f7 02       		.uleb128 0x2
 5077 11f8 7D       		.byte	0x7d
 5078 11f9 2C       		.sleb128 44
 5079 11fa 05       		.uleb128 0x5
 5080 11fb F3       		.byte	0xf3
 5081 11fc 01       		.uleb128 0x1
 5082 11fd 50       		.byte	0x50
 5083 11fe 23       		.byte	0x23
 5084 11ff 30       		.uleb128 0x30
 5085 1200 26       		.uleb128 0x26
 5086 1201 02       		.uleb128 0x2
 5087 1202 7D       		.byte	0x7d
 5088 1203 30       		.sleb128 48
 5089 1204 05       		.uleb128 0x5
 5090 1205 F3       		.byte	0xf3
 5091 1206 01       		.uleb128 0x1
 5092 1207 50       		.byte	0x50
 5093 1208 23       		.byte	0x23
 5094 1209 34       		.uleb128 0x34
 5095 120a 26       		.uleb128 0x26
 5096 120b 02       		.uleb128 0x2
 5097 120c 7D       		.byte	0x7d
 5098 120d 34       		.sleb128 52
 5099 120e 05       		.uleb128 0x5
 5100 120f F3       		.byte	0xf3
 5101 1210 01       		.uleb128 0x1
ARM GAS  C:\Users\armst\AppData\Local\Temp\ccNPhHLt.s 			page 109


 5102 1211 50       		.byte	0x50
 5103 1212 23       		.byte	0x23
 5104 1213 38       		.uleb128 0x38
 5105 1214 26       		.uleb128 0x26
 5106 1215 02       		.uleb128 0x2
 5107 1216 7D       		.byte	0x7d
 5108 1217 38       		.sleb128 56
 5109 1218 05       		.uleb128 0x5
 5110 1219 F3       		.byte	0xf3
 5111 121a 01       		.uleb128 0x1
 5112 121b 50       		.byte	0x50
 5113 121c 23       		.byte	0x23
 5114 121d 40       		.uleb128 0x40
 5115 121e 26       		.uleb128 0x26
 5116 121f 02       		.uleb128 0x2
 5117 1220 7D       		.byte	0x7d
 5118 1221 3C       		.sleb128 60
 5119 1222 05       		.uleb128 0x5
 5120 1223 F3       		.byte	0xf3
 5121 1224 01       		.uleb128 0x1
 5122 1225 50       		.byte	0x50
 5123 1226 23       		.byte	0x23
 5124 1227 48       		.uleb128 0x48
 5125 1228 00       		.byte	0
 5126 1229 25       		.uleb128 0x25
 5127 122a 7C000000 		.4byte	.LVL217
 5128 122e AB170000 		.4byte	0x17ab
 5129 1232 26       		.uleb128 0x26
 5130 1233 01       		.uleb128 0x1
 5131 1234 50       		.byte	0x50
 5132 1235 02       		.uleb128 0x2
 5133 1236 91       		.byte	0x91
 5134 1237 72       		.sleb128 -14
 5135 1238 26       		.uleb128 0x26
 5136 1239 01       		.uleb128 0x1
 5137 123a 51       		.byte	0x51
 5138 123b 05       		.uleb128 0x5
 5139 123c 03       		.byte	0x3
 5140 123d 10000000 		.4byte	.LC4
 5141 1241 00       		.byte	0
 5142 1242 00       		.byte	0
 5143 1243 08       		.uleb128 0x8
 5144 1244 04       		.byte	0x4
 5145 1245 BB040000 		.4byte	0x4bb
 5146 1249 2E       		.uleb128 0x2e
 5147 124a FA000000 		.4byte	.LASF157
 5148 124e 01       		.byte	0x1
 5149 124f EE01     		.2byte	0x1ee
 5150 1251 32030000 		.4byte	0x332
 5151 1255 00000000 		.4byte	.LFB15
 5152 1259 68000000 		.4byte	.LFE15-.LFB15
 5153 125d 01       		.uleb128 0x1
 5154 125e 9C       		.byte	0x9c
 5155 125f 1E130000 		.4byte	0x131e
 5156 1263 2F       		.uleb128 0x2f
 5157 1264 82080000 		.4byte	.LASF149
 5158 1268 01       		.byte	0x1
ARM GAS  C:\Users\armst\AppData\Local\Temp\ccNPhHLt.s 			page 110


 5159 1269 EE01     		.2byte	0x1ee
 5160 126b 1E130000 		.4byte	0x131e
 5161 126f 0C0B0000 		.4byte	.LLST58
 5162 1273 2F       		.uleb128 0x2f
 5163 1274 15020000 		.4byte	.LASF122
 5164 1278 01       		.byte	0x1
 5165 1279 EE01     		.2byte	0x1ee
 5166 127b E1000000 		.4byte	0xe1
 5167 127f 380B0000 		.4byte	.LLST59
 5168 1283 2B       		.uleb128 0x2b
 5169 1284 19080000 		.4byte	.LASF135
 5170 1288 01       		.byte	0x1
 5171 1289 F101     		.2byte	0x1f1
 5172 128b 8C0C0000 		.4byte	0xc8c
 5173 128f 02       		.uleb128 0x2
 5174 1290 91       		.byte	0x91
 5175 1291 68       		.sleb128 -24
 5176 1292 2B       		.uleb128 0x2b
 5177 1293 72030000 		.4byte	.LASF152
 5178 1297 01       		.byte	0x1
 5179 1298 F201     		.2byte	0x1f2
 5180 129a 7E000000 		.4byte	0x7e
 5181 129e 02       		.uleb128 0x2
 5182 129f 91       		.byte	0x91
 5183 12a0 64       		.sleb128 -28
 5184 12a1 2B       		.uleb128 0x2b
 5185 12a2 D5050000 		.4byte	.LASF153
 5186 12a6 01       		.byte	0x1
 5187 12a7 F301     		.2byte	0x1f3
 5188 12a9 7E000000 		.4byte	0x7e
 5189 12ad 02       		.uleb128 0x2
 5190 12ae 91       		.byte	0x91
 5191 12af 60       		.sleb128 -32
 5192 12b0 2C       		.uleb128 0x2c
 5193 12b1 32000000 		.4byte	.LVL221
 5194 12b5 4A070000 		.4byte	0x74a
 5195 12b9 04130000 		.4byte	0x1304
 5196 12bd 26       		.uleb128 0x26
 5197 12be 01       		.uleb128 0x1
 5198 12bf 50       		.byte	0x50
 5199 12c0 03       		.uleb128 0x3
 5200 12c1 F3       		.byte	0xf3
 5201 12c2 01       		.uleb128 0x1
 5202 12c3 51       		.byte	0x51
 5203 12c4 26       		.uleb128 0x26
 5204 12c5 01       		.uleb128 0x1
 5205 12c6 51       		.byte	0x51
 5206 12c7 05       		.uleb128 0x5
 5207 12c8 03       		.byte	0x3
 5208 12c9 68000000 		.4byte	.LC14
 5209 12cd 26       		.uleb128 0x26
 5210 12ce 01       		.uleb128 0x1
 5211 12cf 52       		.byte	0x52
 5212 12d0 02       		.uleb128 0x2
 5213 12d1 91       		.byte	0x91
 5214 12d2 68       		.sleb128 -24
 5215 12d3 26       		.uleb128 0x26
ARM GAS  C:\Users\armst\AppData\Local\Temp\ccNPhHLt.s 			page 111


 5216 12d4 01       		.uleb128 0x1
 5217 12d5 53       		.byte	0x53
 5218 12d6 02       		.uleb128 0x2
 5219 12d7 74       		.byte	0x74
 5220 12d8 00       		.sleb128 0
 5221 12d9 26       		.uleb128 0x26
 5222 12da 02       		.uleb128 0x2
 5223 12db 7D       		.byte	0x7d
 5224 12dc 00       		.sleb128 0
 5225 12dd 02       		.uleb128 0x2
 5226 12de 91       		.byte	0x91
 5227 12df 64       		.sleb128 -28
 5228 12e0 26       		.uleb128 0x26
 5229 12e1 02       		.uleb128 0x2
 5230 12e2 7D       		.byte	0x7d
 5231 12e3 04       		.sleb128 4
 5232 12e4 02       		.uleb128 0x2
 5233 12e5 74       		.byte	0x74
 5234 12e6 08       		.sleb128 8
 5235 12e7 26       		.uleb128 0x26
 5236 12e8 02       		.uleb128 0x2
 5237 12e9 7D       		.byte	0x7d
 5238 12ea 08       		.sleb128 8
 5239 12eb 02       		.uleb128 0x2
 5240 12ec 91       		.byte	0x91
 5241 12ed 60       		.sleb128 -32
 5242 12ee 26       		.uleb128 0x26
 5243 12ef 02       		.uleb128 0x2
 5244 12f0 7D       		.byte	0x7d
 5245 12f1 0C       		.sleb128 12
 5246 12f2 02       		.uleb128 0x2
 5247 12f3 74       		.byte	0x74
 5248 12f4 10       		.sleb128 16
 5249 12f5 26       		.uleb128 0x26
 5250 12f6 02       		.uleb128 0x2
 5251 12f7 7D       		.byte	0x7d
 5252 12f8 10       		.sleb128 16
 5253 12f9 02       		.uleb128 0x2
 5254 12fa 74       		.byte	0x74
 5255 12fb 20       		.sleb128 32
 5256 12fc 26       		.uleb128 0x26
 5257 12fd 02       		.uleb128 0x2
 5258 12fe 7D       		.byte	0x7d
 5259 12ff 14       		.sleb128 20
 5260 1300 02       		.uleb128 0x2
 5261 1301 74       		.byte	0x74
 5262 1302 21       		.sleb128 33
 5263 1303 00       		.byte	0
 5264 1304 25       		.uleb128 0x25
 5265 1305 40000000 		.4byte	.LVL222
 5266 1309 AB170000 		.4byte	0x17ab
 5267 130d 26       		.uleb128 0x26
 5268 130e 01       		.uleb128 0x1
 5269 130f 50       		.byte	0x50
 5270 1310 02       		.uleb128 0x2
 5271 1311 91       		.byte	0x91
 5272 1312 6A       		.sleb128 -22
ARM GAS  C:\Users\armst\AppData\Local\Temp\ccNPhHLt.s 			page 112


 5273 1313 26       		.uleb128 0x26
 5274 1314 01       		.uleb128 0x1
 5275 1315 51       		.byte	0x51
 5276 1316 05       		.uleb128 0x5
 5277 1317 03       		.byte	0x3
 5278 1318 0C000000 		.4byte	.LC3
 5279 131c 00       		.byte	0
 5280 131d 00       		.byte	0
 5281 131e 08       		.uleb128 0x8
 5282 131f 04       		.byte	0x4
 5283 1320 05040000 		.4byte	0x405
 5284 1324 2E       		.uleb128 0x2e
 5285 1325 4A060000 		.4byte	.LASF158
 5286 1329 01       		.byte	0x1
 5287 132a 0602     		.2byte	0x206
 5288 132c 32030000 		.4byte	0x332
 5289 1330 00000000 		.4byte	.LFB16
 5290 1334 5C000000 		.4byte	.LFE16-.LFB16
 5291 1338 01       		.uleb128 0x1
 5292 1339 9C       		.byte	0x9c
 5293 133a F8130000 		.4byte	0x13f8
 5294 133e 2F       		.uleb128 0x2f
 5295 133f 82080000 		.4byte	.LASF149
 5296 1343 01       		.byte	0x1
 5297 1344 0602     		.2byte	0x206
 5298 1346 F8130000 		.4byte	0x13f8
 5299 134a 640B0000 		.4byte	.LLST60
 5300 134e 2F       		.uleb128 0x2f
 5301 134f 15020000 		.4byte	.LASF122
 5302 1353 01       		.byte	0x1
 5303 1354 0602     		.2byte	0x206
 5304 1356 E1000000 		.4byte	0xe1
 5305 135a 900B0000 		.4byte	.LLST61
 5306 135e 2B       		.uleb128 0x2b
 5307 135f 19080000 		.4byte	.LASF135
 5308 1363 01       		.byte	0x1
 5309 1364 0902     		.2byte	0x209
 5310 1366 8C0C0000 		.4byte	0xc8c
 5311 136a 02       		.uleb128 0x2
 5312 136b 91       		.byte	0x91
 5313 136c 70       		.sleb128 -16
 5314 136d 2C       		.uleb128 0x2c
 5315 136e 3A000000 		.4byte	.LVL227
 5316 1372 4A070000 		.4byte	0x74a
 5317 1376 DE130000 		.4byte	0x13de
 5318 137a 26       		.uleb128 0x26
 5319 137b 01       		.uleb128 0x1
 5320 137c 50       		.byte	0x50
 5321 137d 03       		.uleb128 0x3
 5322 137e F3       		.byte	0xf3
 5323 137f 01       		.uleb128 0x1
 5324 1380 51       		.byte	0x51
 5325 1381 26       		.uleb128 0x26
 5326 1382 01       		.uleb128 0x1
 5327 1383 51       		.byte	0x51
 5328 1384 05       		.uleb128 0x5
 5329 1385 03       		.byte	0x3
ARM GAS  C:\Users\armst\AppData\Local\Temp\ccNPhHLt.s 			page 113


 5330 1386 74000000 		.4byte	.LC15
 5331 138a 26       		.uleb128 0x26
 5332 138b 01       		.uleb128 0x1
 5333 138c 52       		.byte	0x52
 5334 138d 02       		.uleb128 0x2
 5335 138e 91       		.byte	0x91
 5336 138f 70       		.sleb128 -16
 5337 1390 26       		.uleb128 0x26
 5338 1391 01       		.uleb128 0x1
 5339 1392 53       		.byte	0x53
 5340 1393 03       		.uleb128 0x3
 5341 1394 F3       		.byte	0xf3
 5342 1395 01       		.uleb128 0x1
 5343 1396 50       		.byte	0x50
 5344 1397 26       		.uleb128 0x26
 5345 1398 02       		.uleb128 0x2
 5346 1399 7D       		.byte	0x7d
 5347 139a 00       		.sleb128 0
 5348 139b 05       		.uleb128 0x5
 5349 139c F3       		.byte	0xf3
 5350 139d 01       		.uleb128 0x1
 5351 139e 50       		.byte	0x50
 5352 139f 23       		.byte	0x23
 5353 13a0 10       		.uleb128 0x10
 5354 13a1 26       		.uleb128 0x26
 5355 13a2 02       		.uleb128 0x2
 5356 13a3 7D       		.byte	0x7d
 5357 13a4 04       		.sleb128 4
 5358 13a5 05       		.uleb128 0x5
 5359 13a6 F3       		.byte	0xf3
 5360 13a7 01       		.uleb128 0x1
 5361 13a8 50       		.byte	0x50
 5362 13a9 23       		.byte	0x23
 5363 13aa 18       		.uleb128 0x18
 5364 13ab 26       		.uleb128 0x26
 5365 13ac 02       		.uleb128 0x2
 5366 13ad 7D       		.byte	0x7d
 5367 13ae 08       		.sleb128 8
 5368 13af 05       		.uleb128 0x5
 5369 13b0 F3       		.byte	0xf3
 5370 13b1 01       		.uleb128 0x1
 5371 13b2 50       		.byte	0x50
 5372 13b3 23       		.byte	0x23
 5373 13b4 20       		.uleb128 0x20
 5374 13b5 26       		.uleb128 0x26
 5375 13b6 02       		.uleb128 0x2
 5376 13b7 7D       		.byte	0x7d
 5377 13b8 0C       		.sleb128 12
 5378 13b9 05       		.uleb128 0x5
 5379 13ba F3       		.byte	0xf3
 5380 13bb 01       		.uleb128 0x1
 5381 13bc 50       		.byte	0x50
 5382 13bd 23       		.byte	0x23
 5383 13be 28       		.uleb128 0x28
 5384 13bf 26       		.uleb128 0x26
 5385 13c0 02       		.uleb128 0x2
 5386 13c1 7D       		.byte	0x7d
ARM GAS  C:\Users\armst\AppData\Local\Temp\ccNPhHLt.s 			page 114


 5387 13c2 10       		.sleb128 16
 5388 13c3 05       		.uleb128 0x5
 5389 13c4 F3       		.byte	0xf3
 5390 13c5 01       		.uleb128 0x1
 5391 13c6 50       		.byte	0x50
 5392 13c7 23       		.byte	0x23
 5393 13c8 30       		.uleb128 0x30
 5394 13c9 26       		.uleb128 0x26
 5395 13ca 02       		.uleb128 0x2
 5396 13cb 7D       		.byte	0x7d
 5397 13cc 14       		.sleb128 20
 5398 13cd 05       		.uleb128 0x5
 5399 13ce F3       		.byte	0xf3
 5400 13cf 01       		.uleb128 0x1
 5401 13d0 50       		.byte	0x50
 5402 13d1 23       		.byte	0x23
 5403 13d2 38       		.uleb128 0x38
 5404 13d3 26       		.uleb128 0x26
 5405 13d4 02       		.uleb128 0x2
 5406 13d5 7D       		.byte	0x7d
 5407 13d6 18       		.sleb128 24
 5408 13d7 05       		.uleb128 0x5
 5409 13d8 F3       		.byte	0xf3
 5410 13d9 01       		.uleb128 0x1
 5411 13da 50       		.byte	0x50
 5412 13db 23       		.byte	0x23
 5413 13dc 40       		.uleb128 0x40
 5414 13dd 00       		.byte	0
 5415 13de 25       		.uleb128 0x25
 5416 13df 48000000 		.4byte	.LVL228
 5417 13e3 AB170000 		.4byte	0x17ab
 5418 13e7 26       		.uleb128 0x26
 5419 13e8 01       		.uleb128 0x1
 5420 13e9 50       		.byte	0x50
 5421 13ea 02       		.uleb128 0x2
 5422 13eb 91       		.byte	0x91
 5423 13ec 72       		.sleb128 -14
 5424 13ed 26       		.uleb128 0x26
 5425 13ee 01       		.uleb128 0x1
 5426 13ef 51       		.byte	0x51
 5427 13f0 05       		.uleb128 0x5
 5428 13f1 03       		.byte	0x3
 5429 13f2 14000000 		.4byte	.LC5
 5430 13f6 00       		.byte	0
 5431 13f7 00       		.byte	0
 5432 13f8 08       		.uleb128 0x8
 5433 13f9 04       		.byte	0x4
 5434 13fa 4E040000 		.4byte	0x44e
 5435 13fe 2E       		.uleb128 0x2e
 5436 13ff 5B060000 		.4byte	.LASF159
 5437 1403 01       		.byte	0x1
 5438 1404 1C02     		.2byte	0x21c
 5439 1406 32030000 		.4byte	0x332
 5440 140a 00000000 		.4byte	.LFB17
 5441 140e 9C000000 		.4byte	.LFE17-.LFB17
 5442 1412 01       		.uleb128 0x1
 5443 1413 9C       		.byte	0x9c
ARM GAS  C:\Users\armst\AppData\Local\Temp\ccNPhHLt.s 			page 115


 5444 1414 42150000 		.4byte	0x1542
 5445 1418 2F       		.uleb128 0x2f
 5446 1419 82080000 		.4byte	.LASF149
 5447 141d 01       		.byte	0x1
 5448 141e 1C02     		.2byte	0x21c
 5449 1420 42150000 		.4byte	0x1542
 5450 1424 BC0B0000 		.4byte	.LLST62
 5451 1428 2F       		.uleb128 0x2f
 5452 1429 15020000 		.4byte	.LASF122
 5453 142d 01       		.byte	0x1
 5454 142e 1C02     		.2byte	0x21c
 5455 1430 E1000000 		.4byte	0xe1
 5456 1434 E80B0000 		.4byte	.LLST63
 5457 1438 2B       		.uleb128 0x2b
 5458 1439 19080000 		.4byte	.LASF135
 5459 143d 01       		.byte	0x1
 5460 143e 2302     		.2byte	0x223
 5461 1440 8C0C0000 		.4byte	0xc8c
 5462 1444 02       		.uleb128 0x2
 5463 1445 91       		.byte	0x91
 5464 1446 70       		.sleb128 -16
 5465 1447 2C       		.uleb128 0x2c
 5466 1448 7A000000 		.4byte	.LVL232
 5467 144c 4A070000 		.4byte	0x74a
 5468 1450 28150000 		.4byte	0x1528
 5469 1454 26       		.uleb128 0x26
 5470 1455 01       		.uleb128 0x1
 5471 1456 50       		.byte	0x50
 5472 1457 03       		.uleb128 0x3
 5473 1458 F3       		.byte	0xf3
 5474 1459 01       		.uleb128 0x1
 5475 145a 51       		.byte	0x51
 5476 145b 26       		.uleb128 0x26
 5477 145c 01       		.uleb128 0x1
 5478 145d 51       		.byte	0x51
 5479 145e 05       		.uleb128 0x5
 5480 145f 03       		.byte	0x3
 5481 1460 80000000 		.4byte	.LC16
 5482 1464 26       		.uleb128 0x26
 5483 1465 01       		.uleb128 0x1
 5484 1466 52       		.byte	0x52
 5485 1467 02       		.uleb128 0x2
 5486 1468 91       		.byte	0x91
 5487 1469 70       		.sleb128 -16
 5488 146a 26       		.uleb128 0x26
 5489 146b 01       		.uleb128 0x1
 5490 146c 53       		.byte	0x53
 5491 146d 03       		.uleb128 0x3
 5492 146e F3       		.byte	0xf3
 5493 146f 01       		.uleb128 0x1
 5494 1470 50       		.byte	0x50
 5495 1471 26       		.uleb128 0x26
 5496 1472 02       		.uleb128 0x2
 5497 1473 7D       		.byte	0x7d
 5498 1474 00       		.sleb128 0
 5499 1475 05       		.uleb128 0x5
 5500 1476 F3       		.byte	0xf3
ARM GAS  C:\Users\armst\AppData\Local\Temp\ccNPhHLt.s 			page 116


 5501 1477 01       		.uleb128 0x1
 5502 1478 50       		.byte	0x50
 5503 1479 23       		.byte	0x23
 5504 147a 04       		.uleb128 0x4
 5505 147b 26       		.uleb128 0x26
 5506 147c 02       		.uleb128 0x2
 5507 147d 7D       		.byte	0x7d
 5508 147e 04       		.sleb128 4
 5509 147f 05       		.uleb128 0x5
 5510 1480 F3       		.byte	0xf3
 5511 1481 01       		.uleb128 0x1
 5512 1482 50       		.byte	0x50
 5513 1483 23       		.byte	0x23
 5514 1484 08       		.uleb128 0x8
 5515 1485 26       		.uleb128 0x26
 5516 1486 02       		.uleb128 0x2
 5517 1487 7D       		.byte	0x7d
 5518 1488 08       		.sleb128 8
 5519 1489 05       		.uleb128 0x5
 5520 148a F3       		.byte	0xf3
 5521 148b 01       		.uleb128 0x1
 5522 148c 50       		.byte	0x50
 5523 148d 23       		.byte	0x23
 5524 148e 0C       		.uleb128 0xc
 5525 148f 26       		.uleb128 0x26
 5526 1490 02       		.uleb128 0x2
 5527 1491 7D       		.byte	0x7d
 5528 1492 0C       		.sleb128 12
 5529 1493 05       		.uleb128 0x5
 5530 1494 F3       		.byte	0xf3
 5531 1495 01       		.uleb128 0x1
 5532 1496 50       		.byte	0x50
 5533 1497 23       		.byte	0x23
 5534 1498 10       		.uleb128 0x10
 5535 1499 26       		.uleb128 0x26
 5536 149a 02       		.uleb128 0x2
 5537 149b 7D       		.byte	0x7d
 5538 149c 10       		.sleb128 16
 5539 149d 05       		.uleb128 0x5
 5540 149e F3       		.byte	0xf3
 5541 149f 01       		.uleb128 0x1
 5542 14a0 50       		.byte	0x50
 5543 14a1 23       		.byte	0x23
 5544 14a2 14       		.uleb128 0x14
 5545 14a3 26       		.uleb128 0x26
 5546 14a4 02       		.uleb128 0x2
 5547 14a5 7D       		.byte	0x7d
 5548 14a6 14       		.sleb128 20
 5549 14a7 05       		.uleb128 0x5
 5550 14a8 F3       		.byte	0xf3
 5551 14a9 01       		.uleb128 0x1
 5552 14aa 50       		.byte	0x50
 5553 14ab 23       		.byte	0x23
 5554 14ac 18       		.uleb128 0x18
 5555 14ad 26       		.uleb128 0x26
 5556 14ae 02       		.uleb128 0x2
 5557 14af 7D       		.byte	0x7d
ARM GAS  C:\Users\armst\AppData\Local\Temp\ccNPhHLt.s 			page 117


 5558 14b0 18       		.sleb128 24
 5559 14b1 05       		.uleb128 0x5
 5560 14b2 F3       		.byte	0xf3
 5561 14b3 01       		.uleb128 0x1
 5562 14b4 50       		.byte	0x50
 5563 14b5 23       		.byte	0x23
 5564 14b6 1C       		.uleb128 0x1c
 5565 14b7 26       		.uleb128 0x26
 5566 14b8 02       		.uleb128 0x2
 5567 14b9 7D       		.byte	0x7d
 5568 14ba 1C       		.sleb128 28
 5569 14bb 05       		.uleb128 0x5
 5570 14bc F3       		.byte	0xf3
 5571 14bd 01       		.uleb128 0x1
 5572 14be 50       		.byte	0x50
 5573 14bf 23       		.byte	0x23
 5574 14c0 20       		.uleb128 0x20
 5575 14c1 26       		.uleb128 0x26
 5576 14c2 02       		.uleb128 0x2
 5577 14c3 7D       		.byte	0x7d
 5578 14c4 20       		.sleb128 32
 5579 14c5 05       		.uleb128 0x5
 5580 14c6 F3       		.byte	0xf3
 5581 14c7 01       		.uleb128 0x1
 5582 14c8 50       		.byte	0x50
 5583 14c9 23       		.byte	0x23
 5584 14ca 24       		.uleb128 0x24
 5585 14cb 26       		.uleb128 0x26
 5586 14cc 02       		.uleb128 0x2
 5587 14cd 7D       		.byte	0x7d
 5588 14ce 24       		.sleb128 36
 5589 14cf 05       		.uleb128 0x5
 5590 14d0 F3       		.byte	0xf3
 5591 14d1 01       		.uleb128 0x1
 5592 14d2 50       		.byte	0x50
 5593 14d3 23       		.byte	0x23
 5594 14d4 28       		.uleb128 0x28
 5595 14d5 26       		.uleb128 0x26
 5596 14d6 02       		.uleb128 0x2
 5597 14d7 7D       		.byte	0x7d
 5598 14d8 28       		.sleb128 40
 5599 14d9 05       		.uleb128 0x5
 5600 14da F3       		.byte	0xf3
 5601 14db 01       		.uleb128 0x1
 5602 14dc 50       		.byte	0x50
 5603 14dd 23       		.byte	0x23
 5604 14de 2C       		.uleb128 0x2c
 5605 14df 26       		.uleb128 0x26
 5606 14e0 02       		.uleb128 0x2
 5607 14e1 7D       		.byte	0x7d
 5608 14e2 2C       		.sleb128 44
 5609 14e3 05       		.uleb128 0x5
 5610 14e4 F3       		.byte	0xf3
 5611 14e5 01       		.uleb128 0x1
 5612 14e6 50       		.byte	0x50
 5613 14e7 23       		.byte	0x23
 5614 14e8 30       		.uleb128 0x30
ARM GAS  C:\Users\armst\AppData\Local\Temp\ccNPhHLt.s 			page 118


 5615 14e9 26       		.uleb128 0x26
 5616 14ea 02       		.uleb128 0x2
 5617 14eb 7D       		.byte	0x7d
 5618 14ec 30       		.sleb128 48
 5619 14ed 05       		.uleb128 0x5
 5620 14ee F3       		.byte	0xf3
 5621 14ef 01       		.uleb128 0x1
 5622 14f0 50       		.byte	0x50
 5623 14f1 23       		.byte	0x23
 5624 14f2 34       		.uleb128 0x34
 5625 14f3 26       		.uleb128 0x26
 5626 14f4 02       		.uleb128 0x2
 5627 14f5 7D       		.byte	0x7d
 5628 14f6 34       		.sleb128 52
 5629 14f7 05       		.uleb128 0x5
 5630 14f8 F3       		.byte	0xf3
 5631 14f9 01       		.uleb128 0x1
 5632 14fa 50       		.byte	0x50
 5633 14fb 23       		.byte	0x23
 5634 14fc 38       		.uleb128 0x38
 5635 14fd 26       		.uleb128 0x26
 5636 14fe 02       		.uleb128 0x2
 5637 14ff 7D       		.byte	0x7d
 5638 1500 38       		.sleb128 56
 5639 1501 05       		.uleb128 0x5
 5640 1502 F3       		.byte	0xf3
 5641 1503 01       		.uleb128 0x1
 5642 1504 50       		.byte	0x50
 5643 1505 23       		.byte	0x23
 5644 1506 3C       		.uleb128 0x3c
 5645 1507 26       		.uleb128 0x26
 5646 1508 02       		.uleb128 0x2
 5647 1509 7D       		.byte	0x7d
 5648 150a 3C       		.sleb128 60
 5649 150b 05       		.uleb128 0x5
 5650 150c F3       		.byte	0xf3
 5651 150d 01       		.uleb128 0x1
 5652 150e 50       		.byte	0x50
 5653 150f 23       		.byte	0x23
 5654 1510 40       		.uleb128 0x40
 5655 1511 26       		.uleb128 0x26
 5656 1512 03       		.uleb128 0x3
 5657 1513 7D       		.byte	0x7d
 5658 1514 C000     		.sleb128 64
 5659 1516 05       		.uleb128 0x5
 5660 1517 F3       		.byte	0xf3
 5661 1518 01       		.uleb128 0x1
 5662 1519 50       		.byte	0x50
 5663 151a 23       		.byte	0x23
 5664 151b 44       		.uleb128 0x44
 5665 151c 26       		.uleb128 0x26
 5666 151d 03       		.uleb128 0x3
 5667 151e 7D       		.byte	0x7d
 5668 151f C400     		.sleb128 68
 5669 1521 05       		.uleb128 0x5
 5670 1522 F3       		.byte	0xf3
 5671 1523 01       		.uleb128 0x1
ARM GAS  C:\Users\armst\AppData\Local\Temp\ccNPhHLt.s 			page 119


 5672 1524 50       		.byte	0x50
 5673 1525 23       		.byte	0x23
 5674 1526 48       		.uleb128 0x48
 5675 1527 00       		.byte	0
 5676 1528 25       		.uleb128 0x25
 5677 1529 88000000 		.4byte	.LVL233
 5678 152d AB170000 		.4byte	0x17ab
 5679 1531 26       		.uleb128 0x26
 5680 1532 01       		.uleb128 0x1
 5681 1533 50       		.byte	0x50
 5682 1534 02       		.uleb128 0x2
 5683 1535 91       		.byte	0x91
 5684 1536 72       		.sleb128 -14
 5685 1537 26       		.uleb128 0x26
 5686 1538 01       		.uleb128 0x1
 5687 1539 51       		.byte	0x51
 5688 153a 05       		.uleb128 0x5
 5689 153b 03       		.byte	0x3
 5690 153c 18000000 		.4byte	.LC6
 5691 1540 00       		.byte	0
 5692 1541 00       		.byte	0
 5693 1542 08       		.uleb128 0x8
 5694 1543 04       		.byte	0x4
 5695 1544 5C050000 		.4byte	0x55c
 5696 1548 2E       		.uleb128 0x2e
 5697 1549 6C060000 		.4byte	.LASF160
 5698 154d 01       		.byte	0x1
 5699 154e 4302     		.2byte	0x243
 5700 1550 32030000 		.4byte	0x332
 5701 1554 00000000 		.4byte	.LFB18
 5702 1558 9C000000 		.4byte	.LFE18-.LFB18
 5703 155c 01       		.uleb128 0x1
 5704 155d 9C       		.byte	0x9c
 5705 155e 58160000 		.4byte	0x1658
 5706 1562 2F       		.uleb128 0x2f
 5707 1563 82080000 		.4byte	.LASF149
 5708 1567 01       		.byte	0x1
 5709 1568 4302     		.2byte	0x243
 5710 156a 58160000 		.4byte	0x1658
 5711 156e 140C0000 		.4byte	.LLST64
 5712 1572 2F       		.uleb128 0x2f
 5713 1573 15020000 		.4byte	.LASF122
 5714 1577 01       		.byte	0x1
 5715 1578 4302     		.2byte	0x243
 5716 157a E1000000 		.4byte	0xe1
 5717 157e 400C0000 		.4byte	.LLST65
 5718 1582 2B       		.uleb128 0x2b
 5719 1583 19080000 		.4byte	.LASF135
 5720 1587 01       		.byte	0x1
 5721 1588 4902     		.2byte	0x249
 5722 158a 8C0C0000 		.4byte	0xc8c
 5723 158e 02       		.uleb128 0x2
 5724 158f 91       		.byte	0x91
 5725 1590 68       		.sleb128 -24
 5726 1591 2B       		.uleb128 0x2b
 5727 1592 AB020000 		.4byte	.LASF161
 5728 1596 01       		.byte	0x1
ARM GAS  C:\Users\armst\AppData\Local\Temp\ccNPhHLt.s 			page 120


 5729 1597 4A02     		.2byte	0x24a
 5730 1599 DA000000 		.4byte	0xda
 5731 159d 02       		.uleb128 0x2
 5732 159e 91       		.byte	0x91
 5733 159f 67       		.sleb128 -25
 5734 15a0 2B       		.uleb128 0x2b
 5735 15a1 F0080000 		.4byte	.LASF162
 5736 15a5 01       		.byte	0x1
 5737 15a6 4A02     		.2byte	0x24a
 5738 15a8 DA000000 		.4byte	0xda
 5739 15ac 02       		.uleb128 0x2
 5740 15ad 91       		.byte	0x91
 5741 15ae 66       		.sleb128 -26
 5742 15af 2B       		.uleb128 0x2b
 5743 15b0 A8000000 		.4byte	.LASF163
 5744 15b4 01       		.byte	0x1
 5745 15b5 4A02     		.2byte	0x24a
 5746 15b7 DA000000 		.4byte	0xda
 5747 15bb 02       		.uleb128 0x2
 5748 15bc 91       		.byte	0x91
 5749 15bd 65       		.sleb128 -27
 5750 15be 2B       		.uleb128 0x2b
 5751 15bf F4000000 		.4byte	.LASF164
 5752 15c3 01       		.byte	0x1
 5753 15c4 4A02     		.2byte	0x24a
 5754 15c6 DA000000 		.4byte	0xda
 5755 15ca 02       		.uleb128 0x2
 5756 15cb 91       		.byte	0x91
 5757 15cc 64       		.sleb128 -28
 5758 15cd 2B       		.uleb128 0x2b
 5759 15ce 91030000 		.4byte	.LASF165
 5760 15d2 01       		.byte	0x1
 5761 15d3 4A02     		.2byte	0x24a
 5762 15d5 DA000000 		.4byte	0xda
 5763 15d9 02       		.uleb128 0x2
 5764 15da 91       		.byte	0x91
 5765 15db 63       		.sleb128 -29
 5766 15dc 2C       		.uleb128 0x2c
 5767 15dd 40000000 		.4byte	.LVL237
 5768 15e1 4A070000 		.4byte	0x74a
 5769 15e5 3E160000 		.4byte	0x163e
 5770 15e9 26       		.uleb128 0x26
 5771 15ea 01       		.uleb128 0x1
 5772 15eb 50       		.byte	0x50
 5773 15ec 03       		.uleb128 0x3
 5774 15ed F3       		.byte	0xf3
 5775 15ee 01       		.uleb128 0x1
 5776 15ef 51       		.byte	0x51
 5777 15f0 26       		.uleb128 0x26
 5778 15f1 01       		.uleb128 0x1
 5779 15f2 51       		.byte	0x51
 5780 15f3 05       		.uleb128 0x5
 5781 15f4 03       		.byte	0x3
 5782 15f5 98000000 		.4byte	.LC17
 5783 15f9 26       		.uleb128 0x26
 5784 15fa 01       		.uleb128 0x1
 5785 15fb 52       		.byte	0x52
ARM GAS  C:\Users\armst\AppData\Local\Temp\ccNPhHLt.s 			page 121


 5786 15fc 02       		.uleb128 0x2
 5787 15fd 91       		.byte	0x91
 5788 15fe 68       		.sleb128 -24
 5789 15ff 26       		.uleb128 0x26
 5790 1600 01       		.uleb128 0x1
 5791 1601 53       		.byte	0x53
 5792 1602 02       		.uleb128 0x2
 5793 1603 74       		.byte	0x74
 5794 1604 00       		.sleb128 0
 5795 1605 26       		.uleb128 0x26
 5796 1606 02       		.uleb128 0x2
 5797 1607 7D       		.byte	0x7d
 5798 1608 00       		.sleb128 0
 5799 1609 02       		.uleb128 0x2
 5800 160a 91       		.byte	0x91
 5801 160b 67       		.sleb128 -25
 5802 160c 26       		.uleb128 0x26
 5803 160d 02       		.uleb128 0x2
 5804 160e 7D       		.byte	0x7d
 5805 160f 04       		.sleb128 4
 5806 1610 02       		.uleb128 0x2
 5807 1611 74       		.byte	0x74
 5808 1612 08       		.sleb128 8
 5809 1613 26       		.uleb128 0x26
 5810 1614 02       		.uleb128 0x2
 5811 1615 7D       		.byte	0x7d
 5812 1616 08       		.sleb128 8
 5813 1617 02       		.uleb128 0x2
 5814 1618 91       		.byte	0x91
 5815 1619 66       		.sleb128 -26
 5816 161a 26       		.uleb128 0x26
 5817 161b 02       		.uleb128 0x2
 5818 161c 7D       		.byte	0x7d
 5819 161d 0C       		.sleb128 12
 5820 161e 02       		.uleb128 0x2
 5821 161f 74       		.byte	0x74
 5822 1620 10       		.sleb128 16
 5823 1621 26       		.uleb128 0x26
 5824 1622 02       		.uleb128 0x2
 5825 1623 7D       		.byte	0x7d
 5826 1624 10       		.sleb128 16
 5827 1625 02       		.uleb128 0x2
 5828 1626 91       		.byte	0x91
 5829 1627 65       		.sleb128 -27
 5830 1628 26       		.uleb128 0x26
 5831 1629 02       		.uleb128 0x2
 5832 162a 7D       		.byte	0x7d
 5833 162b 14       		.sleb128 20
 5834 162c 02       		.uleb128 0x2
 5835 162d 74       		.byte	0x74
 5836 162e 18       		.sleb128 24
 5837 162f 26       		.uleb128 0x26
 5838 1630 02       		.uleb128 0x2
 5839 1631 7D       		.byte	0x7d
 5840 1632 18       		.sleb128 24
 5841 1633 02       		.uleb128 0x2
 5842 1634 91       		.byte	0x91
ARM GAS  C:\Users\armst\AppData\Local\Temp\ccNPhHLt.s 			page 122


 5843 1635 64       		.sleb128 -28
 5844 1636 26       		.uleb128 0x26
 5845 1637 02       		.uleb128 0x2
 5846 1638 7D       		.byte	0x7d
 5847 1639 1C       		.sleb128 28
 5848 163a 02       		.uleb128 0x2
 5849 163b 91       		.byte	0x91
 5850 163c 63       		.sleb128 -29
 5851 163d 00       		.byte	0
 5852 163e 25       		.uleb128 0x25
 5853 163f 4E000000 		.4byte	.LVL238
 5854 1643 AB170000 		.4byte	0x17ab
 5855 1647 26       		.uleb128 0x26
 5856 1648 01       		.uleb128 0x1
 5857 1649 50       		.byte	0x50
 5858 164a 02       		.uleb128 0x2
 5859 164b 91       		.byte	0x91
 5860 164c 6A       		.sleb128 -22
 5861 164d 26       		.uleb128 0x26
 5862 164e 01       		.uleb128 0x1
 5863 164f 51       		.byte	0x51
 5864 1650 05       		.uleb128 0x5
 5865 1651 03       		.byte	0x3
 5866 1652 20000000 		.4byte	.LC8
 5867 1656 00       		.byte	0
 5868 1657 00       		.byte	0
 5869 1658 08       		.uleb128 0x8
 5870 1659 04       		.byte	0x4
 5871 165a A9050000 		.4byte	0x5a9
 5872 165e 2E       		.uleb128 0x2e
 5873 165f 0B010000 		.4byte	.LASF166
 5874 1663 01       		.byte	0x1
 5875 1664 6802     		.2byte	0x268
 5876 1666 32030000 		.4byte	0x332
 5877 166a 00000000 		.4byte	.LFB19
 5878 166e 74000000 		.4byte	.LFE19-.LFB19
 5879 1672 01       		.uleb128 0x1
 5880 1673 9C       		.byte	0x9c
 5881 1674 0E170000 		.4byte	0x170e
 5882 1678 2F       		.uleb128 0x2f
 5883 1679 82080000 		.4byte	.LASF149
 5884 167d 01       		.byte	0x1
 5885 167e 6802     		.2byte	0x268
 5886 1680 0E170000 		.4byte	0x170e
 5887 1684 6C0C0000 		.4byte	.LLST66
 5888 1688 2F       		.uleb128 0x2f
 5889 1689 15020000 		.4byte	.LASF122
 5890 168d 01       		.byte	0x1
 5891 168e 6802     		.2byte	0x268
 5892 1690 E1000000 		.4byte	0xe1
 5893 1694 980C0000 		.4byte	.LLST67
 5894 1698 2B       		.uleb128 0x2b
 5895 1699 19080000 		.4byte	.LASF135
 5896 169d 01       		.byte	0x1
 5897 169e 6B02     		.2byte	0x26b
 5898 16a0 8C0C0000 		.4byte	0xc8c
 5899 16a4 02       		.uleb128 0x2
ARM GAS  C:\Users\armst\AppData\Local\Temp\ccNPhHLt.s 			page 123


 5900 16a5 91       		.byte	0x91
 5901 16a6 68       		.sleb128 -24
 5902 16a7 2C       		.uleb128 0x2c
 5903 16a8 30000000 		.4byte	.LVL243
 5904 16ac 4A070000 		.4byte	0x74a
 5905 16b0 F4160000 		.4byte	0x16f4
 5906 16b4 26       		.uleb128 0x26
 5907 16b5 01       		.uleb128 0x1
 5908 16b6 50       		.byte	0x50
 5909 16b7 03       		.uleb128 0x3
 5910 16b8 F3       		.byte	0xf3
 5911 16b9 01       		.uleb128 0x1
 5912 16ba 51       		.byte	0x51
 5913 16bb 26       		.uleb128 0x26
 5914 16bc 01       		.uleb128 0x1
 5915 16bd 51       		.byte	0x51
 5916 16be 05       		.uleb128 0x5
 5917 16bf 03       		.byte	0x3
 5918 16c0 A4000000 		.4byte	.LC18
 5919 16c4 26       		.uleb128 0x26
 5920 16c5 01       		.uleb128 0x1
 5921 16c6 52       		.byte	0x52
 5922 16c7 02       		.uleb128 0x2
 5923 16c8 91       		.byte	0x91
 5924 16c9 68       		.sleb128 -24
 5925 16ca 26       		.uleb128 0x26
 5926 16cb 01       		.uleb128 0x1
 5927 16cc 53       		.byte	0x53
 5928 16cd 02       		.uleb128 0x2
 5929 16ce 74       		.byte	0x74
 5930 16cf 00       		.sleb128 0
 5931 16d0 26       		.uleb128 0x26
 5932 16d1 02       		.uleb128 0x2
 5933 16d2 7D       		.byte	0x7d
 5934 16d3 00       		.sleb128 0
 5935 16d4 02       		.uleb128 0x2
 5936 16d5 74       		.byte	0x74
 5937 16d6 10       		.sleb128 16
 5938 16d7 26       		.uleb128 0x26
 5939 16d8 02       		.uleb128 0x2
 5940 16d9 7D       		.byte	0x7d
 5941 16da 04       		.sleb128 4
 5942 16db 02       		.uleb128 0x2
 5943 16dc 74       		.byte	0x74
 5944 16dd 14       		.sleb128 20
 5945 16de 26       		.uleb128 0x26
 5946 16df 02       		.uleb128 0x2
 5947 16e0 7D       		.byte	0x7d
 5948 16e1 08       		.sleb128 8
 5949 16e2 02       		.uleb128 0x2
 5950 16e3 74       		.byte	0x74
 5951 16e4 18       		.sleb128 24
 5952 16e5 26       		.uleb128 0x26
 5953 16e6 02       		.uleb128 0x2
 5954 16e7 7D       		.byte	0x7d
 5955 16e8 0C       		.sleb128 12
 5956 16e9 02       		.uleb128 0x2
ARM GAS  C:\Users\armst\AppData\Local\Temp\ccNPhHLt.s 			page 124


 5957 16ea 74       		.byte	0x74
 5958 16eb 1C       		.sleb128 28
 5959 16ec 26       		.uleb128 0x26
 5960 16ed 02       		.uleb128 0x2
 5961 16ee 7D       		.byte	0x7d
 5962 16ef 10       		.sleb128 16
 5963 16f0 02       		.uleb128 0x2
 5964 16f1 74       		.byte	0x74
 5965 16f2 20       		.sleb128 32
 5966 16f3 00       		.byte	0
 5967 16f4 25       		.uleb128 0x25
 5968 16f5 3E000000 		.4byte	.LVL244
 5969 16f9 AB170000 		.4byte	0x17ab
 5970 16fd 26       		.uleb128 0x26
 5971 16fe 01       		.uleb128 0x1
 5972 16ff 50       		.byte	0x50
 5973 1700 02       		.uleb128 0x2
 5974 1701 91       		.byte	0x91
 5975 1702 6A       		.sleb128 -22
 5976 1703 26       		.uleb128 0x26
 5977 1704 01       		.uleb128 0x1
 5978 1705 51       		.byte	0x51
 5979 1706 05       		.uleb128 0x5
 5980 1707 03       		.byte	0x3
 5981 1708 24000000 		.4byte	.LC9
 5982 170c 00       		.byte	0
 5983 170d 00       		.byte	0
 5984 170e 08       		.uleb128 0x8
 5985 170f 04       		.byte	0x4
 5986 1710 F2050000 		.4byte	0x5f2
 5987 1714 2E       		.uleb128 0x2e
 5988 1715 5D050000 		.4byte	.LASF167
 5989 1719 01       		.byte	0x1
 5990 171a 8202     		.2byte	0x282
 5991 171c 7E000000 		.4byte	0x7e
 5992 1720 00000000 		.4byte	.LFB20
 5993 1724 5E000000 		.4byte	.LFE20-.LFB20
 5994 1728 01       		.uleb128 0x1
 5995 1729 9C       		.byte	0x9c
 5996 172a 79170000 		.4byte	0x1779
 5997 172e 30       		.uleb128 0x30
 5998 172f 746D00   		.ascii	"tm\000"
 5999 1732 01       		.byte	0x1
 6000 1733 8202     		.2byte	0x282
 6001 1735 79170000 		.4byte	0x1779
 6002 1739 C40C0000 		.4byte	.LLST68
 6003 173d 2F       		.uleb128 0x2f
 6004 173e 98040000 		.4byte	.LASF67
 6005 1742 01       		.byte	0x1
 6006 1743 8202     		.2byte	0x282
 6007 1745 7F170000 		.4byte	0x177f
 6008 1749 FB0C0000 		.4byte	.LLST69
 6009 174d 2F       		.uleb128 0x2f
 6010 174e 8B040000 		.4byte	.LASF142
 6011 1752 01       		.byte	0x1
 6012 1753 8202     		.2byte	0x282
 6013 1755 8A170000 		.4byte	0x178a
ARM GAS  C:\Users\armst\AppData\Local\Temp\ccNPhHLt.s 			page 125


 6014 1759 240D0000 		.4byte	.LLST70
 6015 175d 25       		.uleb128 0x25
 6016 175e 20000000 		.4byte	.LVL249
 6017 1762 B6170000 		.4byte	0x17b6
 6018 1766 26       		.uleb128 0x26
 6019 1767 01       		.uleb128 0x1
 6020 1768 50       		.byte	0x50
 6021 1769 02       		.uleb128 0x2
 6022 176a 74       		.byte	0x74
 6023 176b 00       		.sleb128 0
 6024 176c 26       		.uleb128 0x26
 6025 176d 01       		.uleb128 0x1
 6026 176e 51       		.byte	0x51
 6027 176f 01       		.uleb128 0x1
 6028 1770 30       		.byte	0x30
 6029 1771 26       		.uleb128 0x26
 6030 1772 01       		.uleb128 0x1
 6031 1773 52       		.byte	0x52
 6032 1774 02       		.uleb128 0x2
 6033 1775 08       		.byte	0x8
 6034 1776 24       		.byte	0x24
 6035 1777 00       		.byte	0
 6036 1778 00       		.byte	0
 6037 1779 08       		.uleb128 0x8
 6038 177a 04       		.byte	0x4
 6039 177b EC000000 		.4byte	0xec
 6040 177f 08       		.uleb128 0x8
 6041 1780 04       		.byte	0x4
 6042 1781 85170000 		.4byte	0x1785
 6043 1785 09       		.uleb128 0x9
 6044 1786 EA010000 		.4byte	0x1ea
 6045 178a 08       		.uleb128 0x8
 6046 178b 04       		.byte	0x4
 6047 178c 90170000 		.4byte	0x1790
 6048 1790 09       		.uleb128 0x9
 6049 1791 1B020000 		.4byte	0x21b
 6050 1795 31       		.uleb128 0x31
 6051 1796 24060000 		.4byte	.LASF177
 6052 179a 0B       		.byte	0xb
 6053 179b 2E       		.byte	0x2e
 6054 179c E1000000 		.4byte	0xe1
 6055 17a0 32       		.uleb128 0x32
 6056 17a1 51080000 		.4byte	.LASF168
 6057 17a5 51080000 		.4byte	.LASF168
 6058 17a9 09       		.byte	0x9
 6059 17aa A2       		.byte	0xa2
 6060 17ab 32       		.uleb128 0x32
 6061 17ac 60090000 		.4byte	.LASF169
 6062 17b0 60090000 		.4byte	.LASF169
 6063 17b4 0A       		.byte	0xa
 6064 17b5 1C       		.byte	0x1c
 6065 17b6 33       		.uleb128 0x33
 6066 17b7 C5050000 		.4byte	.LASF178
 6067 17bb C5050000 		.4byte	.LASF178
 6068 17bf 00       		.byte	0
 6069              		.section	.debug_abbrev,"",%progbits
 6070              	.Ldebug_abbrev0:
ARM GAS  C:\Users\armst\AppData\Local\Temp\ccNPhHLt.s 			page 126


 6071 0000 01       		.uleb128 0x1
 6072 0001 11       		.uleb128 0x11
 6073 0002 01       		.byte	0x1
 6074 0003 25       		.uleb128 0x25
 6075 0004 0E       		.uleb128 0xe
 6076 0005 13       		.uleb128 0x13
 6077 0006 0B       		.uleb128 0xb
 6078 0007 03       		.uleb128 0x3
 6079 0008 0E       		.uleb128 0xe
 6080 0009 1B       		.uleb128 0x1b
 6081 000a 0E       		.uleb128 0xe
 6082 000b 55       		.uleb128 0x55
 6083 000c 17       		.uleb128 0x17
 6084 000d 11       		.uleb128 0x11
 6085 000e 01       		.uleb128 0x1
 6086 000f 10       		.uleb128 0x10
 6087 0010 17       		.uleb128 0x17
 6088 0011 00       		.byte	0
 6089 0012 00       		.byte	0
 6090 0013 02       		.uleb128 0x2
 6091 0014 24       		.uleb128 0x24
 6092 0015 00       		.byte	0
 6093 0016 0B       		.uleb128 0xb
 6094 0017 0B       		.uleb128 0xb
 6095 0018 3E       		.uleb128 0x3e
 6096 0019 0B       		.uleb128 0xb
 6097 001a 03       		.uleb128 0x3
 6098 001b 0E       		.uleb128 0xe
 6099 001c 00       		.byte	0
 6100 001d 00       		.byte	0
 6101 001e 03       		.uleb128 0x3
 6102 001f 16       		.uleb128 0x16
 6103 0020 00       		.byte	0
 6104 0021 03       		.uleb128 0x3
 6105 0022 0E       		.uleb128 0xe
 6106 0023 3A       		.uleb128 0x3a
 6107 0024 0B       		.uleb128 0xb
 6108 0025 3B       		.uleb128 0x3b
 6109 0026 0B       		.uleb128 0xb
 6110 0027 49       		.uleb128 0x49
 6111 0028 13       		.uleb128 0x13
 6112 0029 00       		.byte	0
 6113 002a 00       		.byte	0
 6114 002b 04       		.uleb128 0x4
 6115 002c 24       		.uleb128 0x24
 6116 002d 00       		.byte	0
 6117 002e 0B       		.uleb128 0xb
 6118 002f 0B       		.uleb128 0xb
 6119 0030 3E       		.uleb128 0x3e
 6120 0031 0B       		.uleb128 0xb
 6121 0032 03       		.uleb128 0x3
 6122 0033 08       		.uleb128 0x8
 6123 0034 00       		.byte	0
 6124 0035 00       		.byte	0
 6125 0036 05       		.uleb128 0x5
 6126 0037 0F       		.uleb128 0xf
 6127 0038 00       		.byte	0
ARM GAS  C:\Users\armst\AppData\Local\Temp\ccNPhHLt.s 			page 127


 6128 0039 0B       		.uleb128 0xb
 6129 003a 0B       		.uleb128 0xb
 6130 003b 00       		.byte	0
 6131 003c 00       		.byte	0
 6132 003d 06       		.uleb128 0x6
 6133 003e 13       		.uleb128 0x13
 6134 003f 01       		.byte	0x1
 6135 0040 03       		.uleb128 0x3
 6136 0041 0E       		.uleb128 0xe
 6137 0042 0B       		.uleb128 0xb
 6138 0043 0B       		.uleb128 0xb
 6139 0044 3A       		.uleb128 0x3a
 6140 0045 0B       		.uleb128 0xb
 6141 0046 3B       		.uleb128 0x3b
 6142 0047 0B       		.uleb128 0xb
 6143 0048 01       		.uleb128 0x1
 6144 0049 13       		.uleb128 0x13
 6145 004a 00       		.byte	0
 6146 004b 00       		.byte	0
 6147 004c 07       		.uleb128 0x7
 6148 004d 0D       		.uleb128 0xd
 6149 004e 00       		.byte	0
 6150 004f 03       		.uleb128 0x3
 6151 0050 0E       		.uleb128 0xe
 6152 0051 49       		.uleb128 0x49
 6153 0052 13       		.uleb128 0x13
 6154 0053 38       		.uleb128 0x38
 6155 0054 0B       		.uleb128 0xb
 6156 0055 34       		.uleb128 0x34
 6157 0056 19       		.uleb128 0x19
 6158 0057 00       		.byte	0
 6159 0058 00       		.byte	0
 6160 0059 08       		.uleb128 0x8
 6161 005a 0F       		.uleb128 0xf
 6162 005b 00       		.byte	0
 6163 005c 0B       		.uleb128 0xb
 6164 005d 0B       		.uleb128 0xb
 6165 005e 49       		.uleb128 0x49
 6166 005f 13       		.uleb128 0x13
 6167 0060 00       		.byte	0
 6168 0061 00       		.byte	0
 6169 0062 09       		.uleb128 0x9
 6170 0063 26       		.uleb128 0x26
 6171 0064 00       		.byte	0
 6172 0065 49       		.uleb128 0x49
 6173 0066 13       		.uleb128 0x13
 6174 0067 00       		.byte	0
 6175 0068 00       		.byte	0
 6176 0069 0A       		.uleb128 0xa
 6177 006a 13       		.uleb128 0x13
 6178 006b 01       		.byte	0x1
 6179 006c 03       		.uleb128 0x3
 6180 006d 08       		.uleb128 0x8
 6181 006e 0B       		.uleb128 0xb
 6182 006f 0B       		.uleb128 0xb
 6183 0070 3A       		.uleb128 0x3a
 6184 0071 0B       		.uleb128 0xb
ARM GAS  C:\Users\armst\AppData\Local\Temp\ccNPhHLt.s 			page 128


 6185 0072 3B       		.uleb128 0x3b
 6186 0073 0B       		.uleb128 0xb
 6187 0074 01       		.uleb128 0x1
 6188 0075 13       		.uleb128 0x13
 6189 0076 00       		.byte	0
 6190 0077 00       		.byte	0
 6191 0078 0B       		.uleb128 0xb
 6192 0079 0D       		.uleb128 0xd
 6193 007a 00       		.byte	0
 6194 007b 03       		.uleb128 0x3
 6195 007c 0E       		.uleb128 0xe
 6196 007d 3A       		.uleb128 0x3a
 6197 007e 0B       		.uleb128 0xb
 6198 007f 3B       		.uleb128 0x3b
 6199 0080 0B       		.uleb128 0xb
 6200 0081 49       		.uleb128 0x49
 6201 0082 13       		.uleb128 0x13
 6202 0083 38       		.uleb128 0x38
 6203 0084 0B       		.uleb128 0xb
 6204 0085 00       		.byte	0
 6205 0086 00       		.byte	0
 6206 0087 0C       		.uleb128 0xc
 6207 0088 04       		.uleb128 0x4
 6208 0089 01       		.byte	0x1
 6209 008a 03       		.uleb128 0x3
 6210 008b 0E       		.uleb128 0xe
 6211 008c 0B       		.uleb128 0xb
 6212 008d 0B       		.uleb128 0xb
 6213 008e 49       		.uleb128 0x49
 6214 008f 13       		.uleb128 0x13
 6215 0090 3A       		.uleb128 0x3a
 6216 0091 0B       		.uleb128 0xb
 6217 0092 3B       		.uleb128 0x3b
 6218 0093 0B       		.uleb128 0xb
 6219 0094 01       		.uleb128 0x1
 6220 0095 13       		.uleb128 0x13
 6221 0096 00       		.byte	0
 6222 0097 00       		.byte	0
 6223 0098 0D       		.uleb128 0xd
 6224 0099 28       		.uleb128 0x28
 6225 009a 00       		.byte	0
 6226 009b 03       		.uleb128 0x3
 6227 009c 0E       		.uleb128 0xe
 6228 009d 1C       		.uleb128 0x1c
 6229 009e 0D       		.uleb128 0xd
 6230 009f 00       		.byte	0
 6231 00a0 00       		.byte	0
 6232 00a1 0E       		.uleb128 0xe
 6233 00a2 28       		.uleb128 0x28
 6234 00a3 00       		.byte	0
 6235 00a4 03       		.uleb128 0x3
 6236 00a5 0E       		.uleb128 0xe
 6237 00a6 1C       		.uleb128 0x1c
 6238 00a7 0B       		.uleb128 0xb
 6239 00a8 00       		.byte	0
 6240 00a9 00       		.byte	0
 6241 00aa 0F       		.uleb128 0xf
ARM GAS  C:\Users\armst\AppData\Local\Temp\ccNPhHLt.s 			page 129


 6242 00ab 0D       		.uleb128 0xd
 6243 00ac 00       		.byte	0
 6244 00ad 03       		.uleb128 0x3
 6245 00ae 08       		.uleb128 0x8
 6246 00af 3A       		.uleb128 0x3a
 6247 00b0 0B       		.uleb128 0xb
 6248 00b1 3B       		.uleb128 0x3b
 6249 00b2 0B       		.uleb128 0xb
 6250 00b3 49       		.uleb128 0x49
 6251 00b4 13       		.uleb128 0x13
 6252 00b5 38       		.uleb128 0x38
 6253 00b6 0B       		.uleb128 0xb
 6254 00b7 00       		.byte	0
 6255 00b8 00       		.byte	0
 6256 00b9 10       		.uleb128 0x10
 6257 00ba 01       		.uleb128 0x1
 6258 00bb 01       		.byte	0x1
 6259 00bc 49       		.uleb128 0x49
 6260 00bd 13       		.uleb128 0x13
 6261 00be 01       		.uleb128 0x1
 6262 00bf 13       		.uleb128 0x13
 6263 00c0 00       		.byte	0
 6264 00c1 00       		.byte	0
 6265 00c2 11       		.uleb128 0x11
 6266 00c3 21       		.uleb128 0x21
 6267 00c4 00       		.byte	0
 6268 00c5 49       		.uleb128 0x49
 6269 00c6 13       		.uleb128 0x13
 6270 00c7 2F       		.uleb128 0x2f
 6271 00c8 0B       		.uleb128 0xb
 6272 00c9 00       		.byte	0
 6273 00ca 00       		.byte	0
 6274 00cb 12       		.uleb128 0x12
 6275 00cc 2E       		.uleb128 0x2e
 6276 00cd 01       		.byte	0x1
 6277 00ce 03       		.uleb128 0x3
 6278 00cf 0E       		.uleb128 0xe
 6279 00d0 3A       		.uleb128 0x3a
 6280 00d1 0B       		.uleb128 0xb
 6281 00d2 3B       		.uleb128 0x3b
 6282 00d3 05       		.uleb128 0x5
 6283 00d4 27       		.uleb128 0x27
 6284 00d5 19       		.uleb128 0x19
 6285 00d6 49       		.uleb128 0x49
 6286 00d7 13       		.uleb128 0x13
 6287 00d8 20       		.uleb128 0x20
 6288 00d9 0B       		.uleb128 0xb
 6289 00da 01       		.uleb128 0x1
 6290 00db 13       		.uleb128 0x13
 6291 00dc 00       		.byte	0
 6292 00dd 00       		.byte	0
 6293 00de 13       		.uleb128 0x13
 6294 00df 05       		.uleb128 0x5
 6295 00e0 00       		.byte	0
 6296 00e1 03       		.uleb128 0x3
 6297 00e2 08       		.uleb128 0x8
 6298 00e3 3A       		.uleb128 0x3a
ARM GAS  C:\Users\armst\AppData\Local\Temp\ccNPhHLt.s 			page 130


 6299 00e4 0B       		.uleb128 0xb
 6300 00e5 3B       		.uleb128 0x3b
 6301 00e6 05       		.uleb128 0x5
 6302 00e7 49       		.uleb128 0x49
 6303 00e8 13       		.uleb128 0x13
 6304 00e9 00       		.byte	0
 6305 00ea 00       		.byte	0
 6306 00eb 14       		.uleb128 0x14
 6307 00ec 2E       		.uleb128 0x2e
 6308 00ed 01       		.byte	0x1
 6309 00ee 03       		.uleb128 0x3
 6310 00ef 0E       		.uleb128 0xe
 6311 00f0 3A       		.uleb128 0x3a
 6312 00f1 0B       		.uleb128 0xb
 6313 00f2 3B       		.uleb128 0x3b
 6314 00f3 0B       		.uleb128 0xb
 6315 00f4 27       		.uleb128 0x27
 6316 00f5 19       		.uleb128 0x19
 6317 00f6 49       		.uleb128 0x49
 6318 00f7 13       		.uleb128 0x13
 6319 00f8 11       		.uleb128 0x11
 6320 00f9 01       		.uleb128 0x1
 6321 00fa 12       		.uleb128 0x12
 6322 00fb 06       		.uleb128 0x6
 6323 00fc 40       		.uleb128 0x40
 6324 00fd 18       		.uleb128 0x18
 6325 00fe 9742     		.uleb128 0x2117
 6326 0100 19       		.uleb128 0x19
 6327 0101 01       		.uleb128 0x1
 6328 0102 13       		.uleb128 0x13
 6329 0103 00       		.byte	0
 6330 0104 00       		.byte	0
 6331 0105 15       		.uleb128 0x15
 6332 0106 05       		.uleb128 0x5
 6333 0107 00       		.byte	0
 6334 0108 03       		.uleb128 0x3
 6335 0109 08       		.uleb128 0x8
 6336 010a 3A       		.uleb128 0x3a
 6337 010b 0B       		.uleb128 0xb
 6338 010c 3B       		.uleb128 0x3b
 6339 010d 0B       		.uleb128 0xb
 6340 010e 49       		.uleb128 0x49
 6341 010f 13       		.uleb128 0x13
 6342 0110 02       		.uleb128 0x2
 6343 0111 17       		.uleb128 0x17
 6344 0112 00       		.byte	0
 6345 0113 00       		.byte	0
 6346 0114 16       		.uleb128 0x16
 6347 0115 2E       		.uleb128 0x2e
 6348 0116 01       		.byte	0x1
 6349 0117 3F       		.uleb128 0x3f
 6350 0118 19       		.uleb128 0x19
 6351 0119 03       		.uleb128 0x3
 6352 011a 0E       		.uleb128 0xe
 6353 011b 3A       		.uleb128 0x3a
 6354 011c 0B       		.uleb128 0xb
 6355 011d 3B       		.uleb128 0x3b
ARM GAS  C:\Users\armst\AppData\Local\Temp\ccNPhHLt.s 			page 131


 6356 011e 0B       		.uleb128 0xb
 6357 011f 27       		.uleb128 0x27
 6358 0120 19       		.uleb128 0x19
 6359 0121 49       		.uleb128 0x49
 6360 0122 13       		.uleb128 0x13
 6361 0123 11       		.uleb128 0x11
 6362 0124 01       		.uleb128 0x1
 6363 0125 12       		.uleb128 0x12
 6364 0126 06       		.uleb128 0x6
 6365 0127 40       		.uleb128 0x40
 6366 0128 18       		.uleb128 0x18
 6367 0129 9742     		.uleb128 0x2117
 6368 012b 19       		.uleb128 0x19
 6369 012c 01       		.uleb128 0x1
 6370 012d 13       		.uleb128 0x13
 6371 012e 00       		.byte	0
 6372 012f 00       		.byte	0
 6373 0130 17       		.uleb128 0x17
 6374 0131 05       		.uleb128 0x5
 6375 0132 00       		.byte	0
 6376 0133 03       		.uleb128 0x3
 6377 0134 0E       		.uleb128 0xe
 6378 0135 3A       		.uleb128 0x3a
 6379 0136 0B       		.uleb128 0xb
 6380 0137 3B       		.uleb128 0x3b
 6381 0138 0B       		.uleb128 0xb
 6382 0139 49       		.uleb128 0x49
 6383 013a 13       		.uleb128 0x13
 6384 013b 02       		.uleb128 0x2
 6385 013c 17       		.uleb128 0x17
 6386 013d 00       		.byte	0
 6387 013e 00       		.byte	0
 6388 013f 18       		.uleb128 0x18
 6389 0140 34       		.uleb128 0x34
 6390 0141 00       		.byte	0
 6391 0142 03       		.uleb128 0x3
 6392 0143 0E       		.uleb128 0xe
 6393 0144 3A       		.uleb128 0x3a
 6394 0145 0B       		.uleb128 0xb
 6395 0146 3B       		.uleb128 0x3b
 6396 0147 0B       		.uleb128 0xb
 6397 0148 49       		.uleb128 0x49
 6398 0149 13       		.uleb128 0x13
 6399 014a 02       		.uleb128 0x2
 6400 014b 18       		.uleb128 0x18
 6401 014c 00       		.byte	0
 6402 014d 00       		.byte	0
 6403 014e 19       		.uleb128 0x19
 6404 014f 34       		.uleb128 0x34
 6405 0150 00       		.byte	0
 6406 0151 03       		.uleb128 0x3
 6407 0152 0E       		.uleb128 0xe
 6408 0153 3A       		.uleb128 0x3a
 6409 0154 0B       		.uleb128 0xb
 6410 0155 3B       		.uleb128 0x3b
 6411 0156 0B       		.uleb128 0xb
 6412 0157 49       		.uleb128 0x49
ARM GAS  C:\Users\armst\AppData\Local\Temp\ccNPhHLt.s 			page 132


 6413 0158 13       		.uleb128 0x13
 6414 0159 02       		.uleb128 0x2
 6415 015a 17       		.uleb128 0x17
 6416 015b 00       		.byte	0
 6417 015c 00       		.byte	0
 6418 015d 1A       		.uleb128 0x1a
 6419 015e 0B       		.uleb128 0xb
 6420 015f 01       		.byte	0x1
 6421 0160 55       		.uleb128 0x55
 6422 0161 17       		.uleb128 0x17
 6423 0162 00       		.byte	0
 6424 0163 00       		.byte	0
 6425 0164 1B       		.uleb128 0x1b
 6426 0165 898201   		.uleb128 0x4109
 6427 0168 00       		.byte	0
 6428 0169 11       		.uleb128 0x11
 6429 016a 01       		.uleb128 0x1
 6430 016b 31       		.uleb128 0x31
 6431 016c 13       		.uleb128 0x13
 6432 016d 00       		.byte	0
 6433 016e 00       		.byte	0
 6434 016f 1C       		.uleb128 0x1c
 6435 0170 18       		.uleb128 0x18
 6436 0171 00       		.byte	0
 6437 0172 00       		.byte	0
 6438 0173 00       		.byte	0
 6439 0174 1D       		.uleb128 0x1d
 6440 0175 34       		.uleb128 0x34
 6441 0176 00       		.byte	0
 6442 0177 03       		.uleb128 0x3
 6443 0178 08       		.uleb128 0x8
 6444 0179 3A       		.uleb128 0x3a
 6445 017a 0B       		.uleb128 0xb
 6446 017b 3B       		.uleb128 0x3b
 6447 017c 0B       		.uleb128 0xb
 6448 017d 49       		.uleb128 0x49
 6449 017e 13       		.uleb128 0x13
 6450 017f 02       		.uleb128 0x2
 6451 0180 18       		.uleb128 0x18
 6452 0181 00       		.byte	0
 6453 0182 00       		.byte	0
 6454 0183 1E       		.uleb128 0x1e
 6455 0184 0A       		.uleb128 0xa
 6456 0185 00       		.byte	0
 6457 0186 03       		.uleb128 0x3
 6458 0187 0E       		.uleb128 0xe
 6459 0188 3A       		.uleb128 0x3a
 6460 0189 0B       		.uleb128 0xb
 6461 018a 3B       		.uleb128 0x3b
 6462 018b 05       		.uleb128 0x5
 6463 018c 11       		.uleb128 0x11
 6464 018d 01       		.uleb128 0x1
 6465 018e 00       		.byte	0
 6466 018f 00       		.byte	0
 6467 0190 1F       		.uleb128 0x1f
 6468 0191 0B       		.uleb128 0xb
 6469 0192 01       		.byte	0x1
ARM GAS  C:\Users\armst\AppData\Local\Temp\ccNPhHLt.s 			page 133


 6470 0193 11       		.uleb128 0x11
 6471 0194 01       		.uleb128 0x1
 6472 0195 12       		.uleb128 0x12
 6473 0196 06       		.uleb128 0x6
 6474 0197 01       		.uleb128 0x1
 6475 0198 13       		.uleb128 0x13
 6476 0199 00       		.byte	0
 6477 019a 00       		.byte	0
 6478 019b 20       		.uleb128 0x20
 6479 019c 1D       		.uleb128 0x1d
 6480 019d 01       		.byte	0x1
 6481 019e 31       		.uleb128 0x31
 6482 019f 13       		.uleb128 0x13
 6483 01a0 11       		.uleb128 0x11
 6484 01a1 01       		.uleb128 0x1
 6485 01a2 12       		.uleb128 0x12
 6486 01a3 06       		.uleb128 0x6
 6487 01a4 58       		.uleb128 0x58
 6488 01a5 0B       		.uleb128 0xb
 6489 01a6 59       		.uleb128 0x59
 6490 01a7 0B       		.uleb128 0xb
 6491 01a8 00       		.byte	0
 6492 01a9 00       		.byte	0
 6493 01aa 21       		.uleb128 0x21
 6494 01ab 05       		.uleb128 0x5
 6495 01ac 00       		.byte	0
 6496 01ad 31       		.uleb128 0x31
 6497 01ae 13       		.uleb128 0x13
 6498 01af 02       		.uleb128 0x2
 6499 01b0 17       		.uleb128 0x17
 6500 01b1 00       		.byte	0
 6501 01b2 00       		.byte	0
 6502 01b3 22       		.uleb128 0x22
 6503 01b4 0B       		.uleb128 0xb
 6504 01b5 01       		.byte	0x1
 6505 01b6 55       		.uleb128 0x55
 6506 01b7 17       		.uleb128 0x17
 6507 01b8 01       		.uleb128 0x1
 6508 01b9 13       		.uleb128 0x13
 6509 01ba 00       		.byte	0
 6510 01bb 00       		.byte	0
 6511 01bc 23       		.uleb128 0x23
 6512 01bd 0B       		.uleb128 0xb
 6513 01be 01       		.byte	0x1
 6514 01bf 11       		.uleb128 0x11
 6515 01c0 01       		.uleb128 0x1
 6516 01c1 12       		.uleb128 0x12
 6517 01c2 06       		.uleb128 0x6
 6518 01c3 00       		.byte	0
 6519 01c4 00       		.byte	0
 6520 01c5 24       		.uleb128 0x24
 6521 01c6 1D       		.uleb128 0x1d
 6522 01c7 01       		.byte	0x1
 6523 01c8 31       		.uleb128 0x31
 6524 01c9 13       		.uleb128 0x13
 6525 01ca 11       		.uleb128 0x11
 6526 01cb 01       		.uleb128 0x1
ARM GAS  C:\Users\armst\AppData\Local\Temp\ccNPhHLt.s 			page 134


 6527 01cc 12       		.uleb128 0x12
 6528 01cd 06       		.uleb128 0x6
 6529 01ce 58       		.uleb128 0x58
 6530 01cf 0B       		.uleb128 0xb
 6531 01d0 59       		.uleb128 0x59
 6532 01d1 0B       		.uleb128 0xb
 6533 01d2 01       		.uleb128 0x1
 6534 01d3 13       		.uleb128 0x13
 6535 01d4 00       		.byte	0
 6536 01d5 00       		.byte	0
 6537 01d6 25       		.uleb128 0x25
 6538 01d7 898201   		.uleb128 0x4109
 6539 01da 01       		.byte	0x1
 6540 01db 11       		.uleb128 0x11
 6541 01dc 01       		.uleb128 0x1
 6542 01dd 31       		.uleb128 0x31
 6543 01de 13       		.uleb128 0x13
 6544 01df 00       		.byte	0
 6545 01e0 00       		.byte	0
 6546 01e1 26       		.uleb128 0x26
 6547 01e2 8A8201   		.uleb128 0x410a
 6548 01e5 00       		.byte	0
 6549 01e6 02       		.uleb128 0x2
 6550 01e7 18       		.uleb128 0x18
 6551 01e8 9142     		.uleb128 0x2111
 6552 01ea 18       		.uleb128 0x18
 6553 01eb 00       		.byte	0
 6554 01ec 00       		.byte	0
 6555 01ed 27       		.uleb128 0x27
 6556 01ee 34       		.uleb128 0x34
 6557 01ef 00       		.byte	0
 6558 01f0 03       		.uleb128 0x3
 6559 01f1 08       		.uleb128 0x8
 6560 01f2 3A       		.uleb128 0x3a
 6561 01f3 0B       		.uleb128 0xb
 6562 01f4 3B       		.uleb128 0x3b
 6563 01f5 0B       		.uleb128 0xb
 6564 01f6 49       		.uleb128 0x49
 6565 01f7 13       		.uleb128 0x13
 6566 01f8 02       		.uleb128 0x2
 6567 01f9 17       		.uleb128 0x17
 6568 01fa 00       		.byte	0
 6569 01fb 00       		.byte	0
 6570 01fc 28       		.uleb128 0x28
 6571 01fd 34       		.uleb128 0x34
 6572 01fe 00       		.byte	0
 6573 01ff 03       		.uleb128 0x3
 6574 0200 0E       		.uleb128 0xe
 6575 0201 3A       		.uleb128 0x3a
 6576 0202 0B       		.uleb128 0xb
 6577 0203 3B       		.uleb128 0x3b
 6578 0204 05       		.uleb128 0x5
 6579 0205 49       		.uleb128 0x49
 6580 0206 13       		.uleb128 0x13
 6581 0207 02       		.uleb128 0x2
 6582 0208 17       		.uleb128 0x17
 6583 0209 00       		.byte	0
ARM GAS  C:\Users\armst\AppData\Local\Temp\ccNPhHLt.s 			page 135


 6584 020a 00       		.byte	0
 6585 020b 29       		.uleb128 0x29
 6586 020c 34       		.uleb128 0x34
 6587 020d 00       		.byte	0
 6588 020e 03       		.uleb128 0x3
 6589 020f 08       		.uleb128 0x8
 6590 0210 3A       		.uleb128 0x3a
 6591 0211 0B       		.uleb128 0xb
 6592 0212 3B       		.uleb128 0x3b
 6593 0213 05       		.uleb128 0x5
 6594 0214 49       		.uleb128 0x49
 6595 0215 13       		.uleb128 0x13
 6596 0216 02       		.uleb128 0x2
 6597 0217 17       		.uleb128 0x17
 6598 0218 00       		.byte	0
 6599 0219 00       		.byte	0
 6600 021a 2A       		.uleb128 0x2a
 6601 021b 1D       		.uleb128 0x1d
 6602 021c 01       		.byte	0x1
 6603 021d 31       		.uleb128 0x31
 6604 021e 13       		.uleb128 0x13
 6605 021f 11       		.uleb128 0x11
 6606 0220 01       		.uleb128 0x1
 6607 0221 12       		.uleb128 0x12
 6608 0222 06       		.uleb128 0x6
 6609 0223 58       		.uleb128 0x58
 6610 0224 0B       		.uleb128 0xb
 6611 0225 59       		.uleb128 0x59
 6612 0226 05       		.uleb128 0x5
 6613 0227 01       		.uleb128 0x1
 6614 0228 13       		.uleb128 0x13
 6615 0229 00       		.byte	0
 6616 022a 00       		.byte	0
 6617 022b 2B       		.uleb128 0x2b
 6618 022c 34       		.uleb128 0x34
 6619 022d 00       		.byte	0
 6620 022e 03       		.uleb128 0x3
 6621 022f 0E       		.uleb128 0xe
 6622 0230 3A       		.uleb128 0x3a
 6623 0231 0B       		.uleb128 0xb
 6624 0232 3B       		.uleb128 0x3b
 6625 0233 05       		.uleb128 0x5
 6626 0234 49       		.uleb128 0x49
 6627 0235 13       		.uleb128 0x13
 6628 0236 02       		.uleb128 0x2
 6629 0237 18       		.uleb128 0x18
 6630 0238 00       		.byte	0
 6631 0239 00       		.byte	0
 6632 023a 2C       		.uleb128 0x2c
 6633 023b 898201   		.uleb128 0x4109
 6634 023e 01       		.byte	0x1
 6635 023f 11       		.uleb128 0x11
 6636 0240 01       		.uleb128 0x1
 6637 0241 31       		.uleb128 0x31
 6638 0242 13       		.uleb128 0x13
 6639 0243 01       		.uleb128 0x1
 6640 0244 13       		.uleb128 0x13
ARM GAS  C:\Users\armst\AppData\Local\Temp\ccNPhHLt.s 			page 136


 6641 0245 00       		.byte	0
 6642 0246 00       		.byte	0
 6643 0247 2D       		.uleb128 0x2d
 6644 0248 1D       		.uleb128 0x1d
 6645 0249 01       		.byte	0x1
 6646 024a 31       		.uleb128 0x31
 6647 024b 13       		.uleb128 0x13
 6648 024c 11       		.uleb128 0x11
 6649 024d 01       		.uleb128 0x1
 6650 024e 12       		.uleb128 0x12
 6651 024f 06       		.uleb128 0x6
 6652 0250 58       		.uleb128 0x58
 6653 0251 0B       		.uleb128 0xb
 6654 0252 59       		.uleb128 0x59
 6655 0253 05       		.uleb128 0x5
 6656 0254 00       		.byte	0
 6657 0255 00       		.byte	0
 6658 0256 2E       		.uleb128 0x2e
 6659 0257 2E       		.uleb128 0x2e
 6660 0258 01       		.byte	0x1
 6661 0259 3F       		.uleb128 0x3f
 6662 025a 19       		.uleb128 0x19
 6663 025b 03       		.uleb128 0x3
 6664 025c 0E       		.uleb128 0xe
 6665 025d 3A       		.uleb128 0x3a
 6666 025e 0B       		.uleb128 0xb
 6667 025f 3B       		.uleb128 0x3b
 6668 0260 05       		.uleb128 0x5
 6669 0261 27       		.uleb128 0x27
 6670 0262 19       		.uleb128 0x19
 6671 0263 49       		.uleb128 0x49
 6672 0264 13       		.uleb128 0x13
 6673 0265 11       		.uleb128 0x11
 6674 0266 01       		.uleb128 0x1
 6675 0267 12       		.uleb128 0x12
 6676 0268 06       		.uleb128 0x6
 6677 0269 40       		.uleb128 0x40
 6678 026a 18       		.uleb128 0x18
 6679 026b 9742     		.uleb128 0x2117
 6680 026d 19       		.uleb128 0x19
 6681 026e 01       		.uleb128 0x1
 6682 026f 13       		.uleb128 0x13
 6683 0270 00       		.byte	0
 6684 0271 00       		.byte	0
 6685 0272 2F       		.uleb128 0x2f
 6686 0273 05       		.uleb128 0x5
 6687 0274 00       		.byte	0
 6688 0275 03       		.uleb128 0x3
 6689 0276 0E       		.uleb128 0xe
 6690 0277 3A       		.uleb128 0x3a
 6691 0278 0B       		.uleb128 0xb
 6692 0279 3B       		.uleb128 0x3b
 6693 027a 05       		.uleb128 0x5
 6694 027b 49       		.uleb128 0x49
 6695 027c 13       		.uleb128 0x13
 6696 027d 02       		.uleb128 0x2
 6697 027e 17       		.uleb128 0x17
ARM GAS  C:\Users\armst\AppData\Local\Temp\ccNPhHLt.s 			page 137


 6698 027f 00       		.byte	0
 6699 0280 00       		.byte	0
 6700 0281 30       		.uleb128 0x30
 6701 0282 05       		.uleb128 0x5
 6702 0283 00       		.byte	0
 6703 0284 03       		.uleb128 0x3
 6704 0285 08       		.uleb128 0x8
 6705 0286 3A       		.uleb128 0x3a
 6706 0287 0B       		.uleb128 0xb
 6707 0288 3B       		.uleb128 0x3b
 6708 0289 05       		.uleb128 0x5
 6709 028a 49       		.uleb128 0x49
 6710 028b 13       		.uleb128 0x13
 6711 028c 02       		.uleb128 0x2
 6712 028d 17       		.uleb128 0x17
 6713 028e 00       		.byte	0
 6714 028f 00       		.byte	0
 6715 0290 31       		.uleb128 0x31
 6716 0291 34       		.uleb128 0x34
 6717 0292 00       		.byte	0
 6718 0293 03       		.uleb128 0x3
 6719 0294 0E       		.uleb128 0xe
 6720 0295 3A       		.uleb128 0x3a
 6721 0296 0B       		.uleb128 0xb
 6722 0297 3B       		.uleb128 0x3b
 6723 0298 0B       		.uleb128 0xb
 6724 0299 49       		.uleb128 0x49
 6725 029a 13       		.uleb128 0x13
 6726 029b 3F       		.uleb128 0x3f
 6727 029c 19       		.uleb128 0x19
 6728 029d 3C       		.uleb128 0x3c
 6729 029e 19       		.uleb128 0x19
 6730 029f 00       		.byte	0
 6731 02a0 00       		.byte	0
 6732 02a1 32       		.uleb128 0x32
 6733 02a2 2E       		.uleb128 0x2e
 6734 02a3 00       		.byte	0
 6735 02a4 3F       		.uleb128 0x3f
 6736 02a5 19       		.uleb128 0x19
 6737 02a6 3C       		.uleb128 0x3c
 6738 02a7 19       		.uleb128 0x19
 6739 02a8 6E       		.uleb128 0x6e
 6740 02a9 0E       		.uleb128 0xe
 6741 02aa 03       		.uleb128 0x3
 6742 02ab 0E       		.uleb128 0xe
 6743 02ac 3A       		.uleb128 0x3a
 6744 02ad 0B       		.uleb128 0xb
 6745 02ae 3B       		.uleb128 0x3b
 6746 02af 0B       		.uleb128 0xb
 6747 02b0 00       		.byte	0
 6748 02b1 00       		.byte	0
 6749 02b2 33       		.uleb128 0x33
 6750 02b3 2E       		.uleb128 0x2e
 6751 02b4 00       		.byte	0
 6752 02b5 3F       		.uleb128 0x3f
 6753 02b6 19       		.uleb128 0x19
 6754 02b7 3C       		.uleb128 0x3c
ARM GAS  C:\Users\armst\AppData\Local\Temp\ccNPhHLt.s 			page 138


 6755 02b8 19       		.uleb128 0x19
 6756 02b9 6E       		.uleb128 0x6e
 6757 02ba 0E       		.uleb128 0xe
 6758 02bb 03       		.uleb128 0x3
 6759 02bc 0E       		.uleb128 0xe
 6760 02bd 00       		.byte	0
 6761 02be 00       		.byte	0
 6762 02bf 00       		.byte	0
 6763              		.section	.debug_loc,"",%progbits
 6764              	.Ldebug_loc0:
 6765              	.LLST0:
 6766 0000 00000000 		.4byte	.LVL0
 6767 0004 0C000000 		.4byte	.LVL1
 6768 0008 0100     		.2byte	0x1
 6769 000a 50       		.byte	0x50
 6770 000b 0C000000 		.4byte	.LVL1
 6771 000f 0E000000 		.4byte	.LVL2
 6772 0013 0400     		.2byte	0x4
 6773 0015 F3       		.byte	0xf3
 6774 0016 01       		.uleb128 0x1
 6775 0017 50       		.byte	0x50
 6776 0018 9F       		.byte	0x9f
 6777 0019 0E000000 		.4byte	.LVL2
 6778 001d 1A000000 		.4byte	.LVL3
 6779 0021 0100     		.2byte	0x1
 6780 0023 50       		.byte	0x50
 6781 0024 1A000000 		.4byte	.LVL3
 6782 0028 1C000000 		.4byte	.LVL4
 6783 002c 0400     		.2byte	0x4
 6784 002e F3       		.byte	0xf3
 6785 002f 01       		.uleb128 0x1
 6786 0030 50       		.byte	0x50
 6787 0031 9F       		.byte	0x9f
 6788 0032 1C000000 		.4byte	.LVL4
 6789 0036 28000000 		.4byte	.LVL5
 6790 003a 0100     		.2byte	0x1
 6791 003c 50       		.byte	0x50
 6792 003d 28000000 		.4byte	.LVL5
 6793 0041 2A000000 		.4byte	.LVL6
 6794 0045 0400     		.2byte	0x4
 6795 0047 F3       		.byte	0xf3
 6796 0048 01       		.uleb128 0x1
 6797 0049 50       		.byte	0x50
 6798 004a 9F       		.byte	0x9f
 6799 004b 2A000000 		.4byte	.LVL6
 6800 004f 2E000000 		.4byte	.LVL7
 6801 0053 0100     		.2byte	0x1
 6802 0055 50       		.byte	0x50
 6803 0056 2E000000 		.4byte	.LVL7
 6804 005a 30000000 		.4byte	.LFE5
 6805 005e 0400     		.2byte	0x4
 6806 0060 F3       		.byte	0xf3
 6807 0061 01       		.uleb128 0x1
 6808 0062 50       		.byte	0x50
 6809 0063 9F       		.byte	0x9f
 6810 0064 00000000 		.4byte	0
 6811 0068 00000000 		.4byte	0
ARM GAS  C:\Users\armst\AppData\Local\Temp\ccNPhHLt.s 			page 139


 6812              	.LLST1:
 6813 006c 00000000 		.4byte	.LVL8
 6814 0070 0A000000 		.4byte	.LVL9
 6815 0074 0100     		.2byte	0x1
 6816 0076 50       		.byte	0x50
 6817 0077 0A000000 		.4byte	.LVL9
 6818 007b 1C000000 		.4byte	.LFE6
 6819 007f 0100     		.2byte	0x1
 6820 0081 52       		.byte	0x52
 6821 0082 00000000 		.4byte	0
 6822 0086 00000000 		.4byte	0
 6823              	.LLST2:
 6824 008a 00000000 		.4byte	.LVL13
 6825 008e 02000000 		.4byte	.LVL14
 6826 0092 0100     		.2byte	0x1
 6827 0094 50       		.byte	0x50
 6828 0095 02000000 		.4byte	.LVL14
 6829 0099 0A000000 		.4byte	.LVL15
 6830 009d 0300     		.2byte	0x3
 6831 009f 70       		.byte	0x70
 6832 00a0 01       		.sleb128 1
 6833 00a1 9F       		.byte	0x9f
 6834 00a2 0A000000 		.4byte	.LVL15
 6835 00a6 2C000000 		.4byte	.LVL19
 6836 00aa 0100     		.2byte	0x1
 6837 00ac 54       		.byte	0x54
 6838 00ad 2C000000 		.4byte	.LVL19
 6839 00b1 3C000000 		.4byte	.LVL22
 6840 00b5 0300     		.2byte	0x3
 6841 00b7 74       		.byte	0x74
 6842 00b8 02       		.sleb128 2
 6843 00b9 9F       		.byte	0x9f
 6844 00ba 3C000000 		.4byte	.LVL22
 6845 00be 54000000 		.4byte	.LVL26
 6846 00c2 0100     		.2byte	0x1
 6847 00c4 57       		.byte	0x57
 6848 00c5 54000000 		.4byte	.LVL26
 6849 00c9 6A000000 		.4byte	.LVL29
 6850 00cd 0100     		.2byte	0x1
 6851 00cf 54       		.byte	0x54
 6852 00d0 6A000000 		.4byte	.LVL29
 6853 00d4 6C000000 		.4byte	.LVL30
 6854 00d8 0300     		.2byte	0x3
 6855 00da 70       		.byte	0x70
 6856 00db 01       		.sleb128 1
 6857 00dc 9F       		.byte	0x9f
 6858 00dd 6C000000 		.4byte	.LVL30
 6859 00e1 6E000000 		.4byte	.LVL31
 6860 00e5 0600     		.2byte	0x6
 6861 00e7 F3       		.byte	0xf3
 6862 00e8 01       		.uleb128 0x1
 6863 00e9 50       		.byte	0x50
 6864 00ea 23       		.byte	0x23
 6865 00eb 01       		.uleb128 0x1
 6866 00ec 9F       		.byte	0x9f
 6867 00ed 6E000000 		.4byte	.LVL31
 6868 00f1 72000000 		.4byte	.LVL33
ARM GAS  C:\Users\armst\AppData\Local\Temp\ccNPhHLt.s 			page 140


 6869 00f5 0300     		.2byte	0x3
 6870 00f7 74       		.byte	0x74
 6871 00f8 02       		.sleb128 2
 6872 00f9 9F       		.byte	0x9f
 6873 00fa 72000000 		.4byte	.LVL33
 6874 00fe 7A000000 		.4byte	.LVL37
 6875 0102 0100     		.2byte	0x1
 6876 0104 57       		.byte	0x57
 6877 0105 7A000000 		.4byte	.LVL37
 6878 0109 82000000 		.4byte	.LVL39
 6879 010d 0100     		.2byte	0x1
 6880 010f 54       		.byte	0x54
 6881 0110 00000000 		.4byte	0
 6882 0114 00000000 		.4byte	0
 6883              	.LLST3:
 6884 0118 00000000 		.4byte	.LVL13
 6885 011c 31000000 		.4byte	.LVL20-1
 6886 0120 0100     		.2byte	0x1
 6887 0122 51       		.byte	0x51
 6888 0123 31000000 		.4byte	.LVL20-1
 6889 0127 54000000 		.4byte	.LVL26
 6890 012b 0400     		.2byte	0x4
 6891 012d F3       		.byte	0xf3
 6892 012e 01       		.uleb128 0x1
 6893 012f 51       		.byte	0x51
 6894 0130 9F       		.byte	0x9f
 6895 0131 54000000 		.4byte	.LVL26
 6896 0135 58000000 		.4byte	.LVL27
 6897 0139 0100     		.2byte	0x1
 6898 013b 51       		.byte	0x51
 6899 013c 58000000 		.4byte	.LVL27
 6900 0140 6A000000 		.4byte	.LVL29
 6901 0144 0400     		.2byte	0x4
 6902 0146 F3       		.byte	0xf3
 6903 0147 01       		.uleb128 0x1
 6904 0148 51       		.byte	0x51
 6905 0149 9F       		.byte	0x9f
 6906 014a 6A000000 		.4byte	.LVL29
 6907 014e 6E000000 		.4byte	.LVL31
 6908 0152 0100     		.2byte	0x1
 6909 0154 51       		.byte	0x51
 6910 0155 6E000000 		.4byte	.LVL31
 6911 0159 7A000000 		.4byte	.LVL37
 6912 015d 0400     		.2byte	0x4
 6913 015f F3       		.byte	0xf3
 6914 0160 01       		.uleb128 0x1
 6915 0161 51       		.byte	0x51
 6916 0162 9F       		.byte	0x9f
 6917 0163 7A000000 		.4byte	.LVL37
 6918 0167 7E000000 		.4byte	.LVL38
 6919 016b 0100     		.2byte	0x1
 6920 016d 51       		.byte	0x51
 6921 016e 7E000000 		.4byte	.LVL38
 6922 0172 88000000 		.4byte	.LFE7
 6923 0176 0400     		.2byte	0x4
 6924 0178 F3       		.byte	0xf3
 6925 0179 01       		.uleb128 0x1
ARM GAS  C:\Users\armst\AppData\Local\Temp\ccNPhHLt.s 			page 141


 6926 017a 51       		.byte	0x51
 6927 017b 9F       		.byte	0x9f
 6928 017c 00000000 		.4byte	0
 6929 0180 00000000 		.4byte	0
 6930              	.LLST4:
 6931 0184 02000000 		.4byte	.LVL14
 6932 0188 0E000000 		.4byte	.LVL16
 6933 018c 0200     		.2byte	0x2
 6934 018e 30       		.byte	0x30
 6935 018f 9F       		.byte	0x9f
 6936 0190 0E000000 		.4byte	.LVL16
 6937 0194 6A000000 		.4byte	.LVL29
 6938 0198 0100     		.2byte	0x1
 6939 019a 55       		.byte	0x55
 6940 019b 6A000000 		.4byte	.LVL29
 6941 019f 6E000000 		.4byte	.LVL31
 6942 01a3 0200     		.2byte	0x2
 6943 01a5 30       		.byte	0x30
 6944 01a6 9F       		.byte	0x9f
 6945 01a7 6E000000 		.4byte	.LVL31
 6946 01ab 82000000 		.4byte	.LVL39
 6947 01af 0100     		.2byte	0x1
 6948 01b1 55       		.byte	0x55
 6949 01b2 00000000 		.4byte	0
 6950 01b6 00000000 		.4byte	0
 6951              	.LLST5:
 6952 01ba 34000000 		.4byte	.LVL21
 6953 01be 3E000000 		.4byte	.LVL23
 6954 01c2 0100     		.2byte	0x1
 6955 01c4 50       		.byte	0x50
 6956 01c5 3E000000 		.4byte	.LVL23
 6957 01c9 54000000 		.4byte	.LVL26
 6958 01cd 0100     		.2byte	0x1
 6959 01cf 56       		.byte	0x56
 6960 01d0 6E000000 		.4byte	.LVL31
 6961 01d4 70000000 		.4byte	.LVL32
 6962 01d8 0100     		.2byte	0x1
 6963 01da 50       		.byte	0x50
 6964 01db 70000000 		.4byte	.LVL32
 6965 01df 7A000000 		.4byte	.LVL37
 6966 01e3 0100     		.2byte	0x1
 6967 01e5 56       		.byte	0x56
 6968 01e6 00000000 		.4byte	0
 6969 01ea 00000000 		.4byte	0
 6970              	.LLST6:
 6971 01ee 42000000 		.4byte	.LVL24
 6972 01f2 4C000000 		.4byte	.LVL25
 6973 01f6 0100     		.2byte	0x1
 6974 01f8 50       		.byte	0x50
 6975 01f9 72000000 		.4byte	.LVL33
 6976 01fd 74000000 		.4byte	.LVL34
 6977 0201 0100     		.2byte	0x1
 6978 0203 50       		.byte	0x50
 6979 0204 00000000 		.4byte	0
 6980 0208 00000000 		.4byte	0
 6981              	.LLST7:
 6982 020c 4C000000 		.4byte	.LVL25
ARM GAS  C:\Users\armst\AppData\Local\Temp\ccNPhHLt.s 			page 142


 6983 0210 54000000 		.4byte	.LVL26
 6984 0214 0100     		.2byte	0x1
 6985 0216 50       		.byte	0x50
 6986 0217 76000000 		.4byte	.LVL35
 6987 021b 78000000 		.4byte	.LVL36
 6988 021f 0100     		.2byte	0x1
 6989 0221 50       		.byte	0x50
 6990 0222 00000000 		.4byte	0
 6991 0226 00000000 		.4byte	0
 6992              	.LLST8:
 6993 022a 00000000 		.4byte	.LVL40
 6994 022e 1C000000 		.4byte	.LVL43
 6995 0232 0100     		.2byte	0x1
 6996 0234 50       		.byte	0x50
 6997 0235 1C000000 		.4byte	.LVL43
 6998 0239 A8050000 		.4byte	.LVL176
 6999 023d 0100     		.2byte	0x1
 7000 023f 54       		.byte	0x54
 7001 0240 A8050000 		.4byte	.LVL176
 7002 0244 AA050000 		.4byte	.LVL177
 7003 0248 0100     		.2byte	0x1
 7004 024a 50       		.byte	0x50
 7005 024b 00000000 		.4byte	0
 7006 024f 00000000 		.4byte	0
 7007              	.LLST9:
 7008 0253 00000000 		.4byte	.LVL40
 7009 0257 1C000000 		.4byte	.LVL43
 7010 025b 0200     		.2byte	0x2
 7011 025d 91       		.byte	0x91
 7012 025e 74       		.sleb128 -12
 7013 025f 1C000000 		.4byte	.LVL43
 7014 0263 A8050000 		.4byte	.LVL176
 7015 0267 0100     		.2byte	0x1
 7016 0269 55       		.byte	0x55
 7017 026a A8050000 		.4byte	.LVL176
 7018 026e AA050000 		.4byte	.LVL177
 7019 0272 0200     		.2byte	0x2
 7020 0274 91       		.byte	0x91
 7021 0275 74       		.sleb128 -12
 7022 0276 00000000 		.4byte	0
 7023 027a 00000000 		.4byte	0
 7024              	.LLST10:
 7025 027e 0A000000 		.4byte	.LVL41
 7026 0282 A6050000 		.4byte	.LVL175
 7027 0286 0200     		.2byte	0x2
 7028 0288 30       		.byte	0x30
 7029 0289 9F       		.byte	0x9f
 7030 028a A6050000 		.4byte	.LVL175
 7031 028e A8050000 		.4byte	.LVL176
 7032 0292 0100     		.2byte	0x1
 7033 0294 50       		.byte	0x50
 7034 0295 A8050000 		.4byte	.LVL176
 7035 0299 AA050000 		.4byte	.LVL177
 7036 029d 0200     		.2byte	0x2
 7037 029f 30       		.byte	0x30
 7038 02a0 9F       		.byte	0x9f
 7039 02a1 00000000 		.4byte	0
ARM GAS  C:\Users\armst\AppData\Local\Temp\ccNPhHLt.s 			page 143


 7040 02a5 00000000 		.4byte	0
 7041              	.LLST11:
 7042 02a9 0A000000 		.4byte	.LVL41
 7043 02ad 1C000000 		.4byte	.LVL43
 7044 02b1 0200     		.2byte	0x2
 7045 02b3 30       		.byte	0x30
 7046 02b4 9F       		.byte	0x9f
 7047 02b5 1C000000 		.4byte	.LVL43
 7048 02b9 6C050000 		.4byte	.LVL157
 7049 02bd 0100     		.2byte	0x1
 7050 02bf 56       		.byte	0x56
 7051 02c0 6E050000 		.4byte	.LVL158
 7052 02c4 A8050000 		.4byte	.LVL176
 7053 02c8 0100     		.2byte	0x1
 7054 02ca 56       		.byte	0x56
 7055 02cb A8050000 		.4byte	.LVL176
 7056 02cf AA050000 		.4byte	.LVL177
 7057 02d3 0200     		.2byte	0x2
 7058 02d5 30       		.byte	0x30
 7059 02d6 9F       		.byte	0x9f
 7060 02d7 00000000 		.4byte	0
 7061 02db 00000000 		.4byte	0
 7062              	.LLST12:
 7063 02df 16000000 		.4byte	.LVL42
 7064 02e3 1C000000 		.4byte	.LVL43
 7065 02e7 0100     		.2byte	0x1
 7066 02e9 50       		.byte	0x50
 7067 02ea 1C000000 		.4byte	.LVL43
 7068 02ee 48030000 		.4byte	.LVL101
 7069 02f2 0100     		.2byte	0x1
 7070 02f4 57       		.byte	0x57
 7071 02f5 48030000 		.4byte	.LVL101
 7072 02f9 54030000 		.4byte	.LVL102
 7073 02fd 0300     		.2byte	0x3
 7074 02ff 77       		.byte	0x77
 7075 0300 7F       		.sleb128 -1
 7076 0301 9F       		.byte	0x9f
 7077 0302 54030000 		.4byte	.LVL102
 7078 0306 90030000 		.4byte	.LVL106
 7079 030a 0100     		.2byte	0x1
 7080 030c 57       		.byte	0x57
 7081 030d 94030000 		.4byte	.LVL107
 7082 0311 F4030000 		.4byte	.LVL116
 7083 0315 0100     		.2byte	0x1
 7084 0317 57       		.byte	0x57
 7085 0318 00040000 		.4byte	.LVL119
 7086 031c 0A040000 		.4byte	.LVL121
 7087 0320 0100     		.2byte	0x1
 7088 0322 57       		.byte	0x57
 7089 0323 1A040000 		.4byte	.LVL123
 7090 0327 C6040000 		.4byte	.LVL138
 7091 032b 0100     		.2byte	0x1
 7092 032d 57       		.byte	0x57
 7093 032e C6040000 		.4byte	.LVL138
 7094 0332 CA040000 		.4byte	.LVL139
 7095 0336 0300     		.2byte	0x3
 7096 0338 77       		.byte	0x77
ARM GAS  C:\Users\armst\AppData\Local\Temp\ccNPhHLt.s 			page 144


 7097 0339 06       		.sleb128 6
 7098 033a 9F       		.byte	0x9f
 7099 033b CA040000 		.4byte	.LVL139
 7100 033f 14050000 		.4byte	.LVL148
 7101 0343 0100     		.2byte	0x1
 7102 0345 5C       		.byte	0x5c
 7103 0346 14050000 		.4byte	.LVL148
 7104 034a 22050000 		.4byte	.LVL150
 7105 034e 0100     		.2byte	0x1
 7106 0350 57       		.byte	0x57
 7107 0351 66050000 		.4byte	.LVL155
 7108 0355 6A050000 		.4byte	.LVL156
 7109 0359 0100     		.2byte	0x1
 7110 035b 54       		.byte	0x54
 7111 035c 6A050000 		.4byte	.LVL156
 7112 0360 6E050000 		.4byte	.LVL158
 7113 0364 0100     		.2byte	0x1
 7114 0366 57       		.byte	0x57
 7115 0367 70050000 		.4byte	.LVL159
 7116 036b A8050000 		.4byte	.LVL176
 7117 036f 0100     		.2byte	0x1
 7118 0371 57       		.byte	0x57
 7119 0372 00000000 		.4byte	0
 7120 0376 00000000 		.4byte	0
 7121              	.LLST13:
 7122 037a 1E000000 		.4byte	.LVL44
 7123 037e 2E000000 		.4byte	.LVL45
 7124 0382 0100     		.2byte	0x1
 7125 0384 53       		.byte	0x53
 7126 0385 6A050000 		.4byte	.LVL156
 7127 0389 6E050000 		.4byte	.LVL158
 7128 038d 0100     		.2byte	0x1
 7129 038f 53       		.byte	0x53
 7130 0390 7C050000 		.4byte	.LVL160
 7131 0394 80050000 		.4byte	.LVL161
 7132 0398 0100     		.2byte	0x1
 7133 039a 53       		.byte	0x53
 7134 039b 00000000 		.4byte	0
 7135 039f 00000000 		.4byte	0
 7136              	.LLST14:
 7137 03a3 9A000000 		.4byte	.LVL46
 7138 03a7 CA000000 		.4byte	.LVL49
 7139 03ab 0200     		.2byte	0x2
 7140 03ad 30       		.byte	0x30
 7141 03ae 9F       		.byte	0x9f
 7142 03af CA000000 		.4byte	.LVL49
 7143 03b3 D6000000 		.4byte	.LVL50
 7144 03b7 0100     		.2byte	0x1
 7145 03b9 53       		.byte	0x53
 7146 03ba 00000000 		.4byte	0
 7147 03be 00000000 		.4byte	0
 7148              	.LLST15:
 7149 03c2 9E000000 		.4byte	.LVL47
 7150 03c6 C2000000 		.4byte	.LVL48
 7151 03ca 0100     		.2byte	0x1
 7152 03cc 53       		.byte	0x53
 7153 03cd 00000000 		.4byte	0
ARM GAS  C:\Users\armst\AppData\Local\Temp\ccNPhHLt.s 			page 145


 7154 03d1 00000000 		.4byte	0
 7155              	.LLST16:
 7156 03d5 D6000000 		.4byte	.LVL50
 7157 03d9 42010000 		.4byte	.LVL53
 7158 03dd 0200     		.2byte	0x2
 7159 03df 30       		.byte	0x30
 7160 03e0 9F       		.byte	0x9f
 7161 03e1 42010000 		.4byte	.LVL53
 7162 03e5 4E010000 		.4byte	.LVL54
 7163 03e9 0100     		.2byte	0x1
 7164 03eb 51       		.byte	0x51
 7165 03ec 84050000 		.4byte	.LVL162
 7166 03f0 88050000 		.4byte	.LVL163
 7167 03f4 0200     		.2byte	0x2
 7168 03f6 30       		.byte	0x30
 7169 03f7 9F       		.byte	0x9f
 7170 03f8 00000000 		.4byte	0
 7171 03fc 00000000 		.4byte	0
 7172              	.LLST17:
 7173 0400 DA000000 		.4byte	.LVL51
 7174 0404 FE000000 		.4byte	.LVL52
 7175 0408 0100     		.2byte	0x1
 7176 040a 53       		.byte	0x53
 7177 040b 00000000 		.4byte	0
 7178 040f 00000000 		.4byte	0
 7179              	.LLST18:
 7180 0413 4E010000 		.4byte	.LVL54
 7181 0417 5C010000 		.4byte	.LVL55
 7182 041b 0200     		.2byte	0x2
 7183 041d 30       		.byte	0x30
 7184 041e 9F       		.byte	0x9f
 7185 041f 5C010000 		.4byte	.LVL55
 7186 0423 E0010000 		.4byte	.LVL63
 7187 0427 0100     		.2byte	0x1
 7188 0429 5E       		.byte	0x5e
 7189 042a E2010000 		.4byte	.LVL64
 7190 042e E6010000 		.4byte	.LVL65
 7191 0432 0100     		.2byte	0x1
 7192 0434 5E       		.byte	0x5e
 7193 0435 E8010000 		.4byte	.LVL66
 7194 0439 EE010000 		.4byte	.LVL69
 7195 043d 0100     		.2byte	0x1
 7196 043f 5E       		.byte	0x5e
 7197 0440 EE010000 		.4byte	.LVL69
 7198 0444 F6010000 		.4byte	.LVL70
 7199 0448 0200     		.2byte	0x2
 7200 044a 30       		.byte	0x30
 7201 044b 9F       		.byte	0x9f
 7202 044c F6010000 		.4byte	.LVL70
 7203 0450 64020000 		.4byte	.LVL79
 7204 0454 0100     		.2byte	0x1
 7205 0456 5E       		.byte	0x5e
 7206 0457 88050000 		.4byte	.LVL163
 7207 045b 9C050000 		.4byte	.LVL173
 7208 045f 0100     		.2byte	0x1
 7209 0461 5E       		.byte	0x5e
 7210 0462 00000000 		.4byte	0
ARM GAS  C:\Users\armst\AppData\Local\Temp\ccNPhHLt.s 			page 146


 7211 0466 00000000 		.4byte	0
 7212              	.LLST19:
 7213 046a 4E010000 		.4byte	.LVL54
 7214 046e 5C010000 		.4byte	.LVL55
 7215 0472 0300     		.2byte	0x3
 7216 0474 09       		.byte	0x9
 7217 0475 FF       		.byte	0xff
 7218 0476 9F       		.byte	0x9f
 7219 0477 5C010000 		.4byte	.LVL55
 7220 047b AE010000 		.4byte	.LVL58
 7221 047f 0100     		.2byte	0x1
 7222 0481 52       		.byte	0x52
 7223 0482 B2010000 		.4byte	.LVL59
 7224 0486 EE010000 		.4byte	.LVL69
 7225 048a 0100     		.2byte	0x1
 7226 048c 52       		.byte	0x52
 7227 048d EE010000 		.4byte	.LVL69
 7228 0491 F6010000 		.4byte	.LVL70
 7229 0495 0300     		.2byte	0x3
 7230 0497 09       		.byte	0x9
 7231 0498 FF       		.byte	0xff
 7232 0499 9F       		.byte	0x9f
 7233 049a F6010000 		.4byte	.LVL70
 7234 049e 48020000 		.4byte	.LVL75
 7235 04a2 0100     		.2byte	0x1
 7236 04a4 52       		.byte	0x52
 7237 04a5 4A020000 		.4byte	.LVL76
 7238 04a9 64020000 		.4byte	.LVL79
 7239 04ad 0100     		.2byte	0x1
 7240 04af 52       		.byte	0x52
 7241 04b0 88050000 		.4byte	.LVL163
 7242 04b4 9C050000 		.4byte	.LVL173
 7243 04b8 0100     		.2byte	0x1
 7244 04ba 52       		.byte	0x52
 7245 04bb 00000000 		.4byte	0
 7246 04bf 00000000 		.4byte	0
 7247              	.LLST20:
 7248 04c3 4E010000 		.4byte	.LVL54
 7249 04c7 5C010000 		.4byte	.LVL55
 7250 04cb 0200     		.2byte	0x2
 7251 04cd 30       		.byte	0x30
 7252 04ce 9F       		.byte	0x9f
 7253 04cf 5C010000 		.4byte	.LVL55
 7254 04d3 EE010000 		.4byte	.LVL69
 7255 04d7 0100     		.2byte	0x1
 7256 04d9 50       		.byte	0x50
 7257 04da EE010000 		.4byte	.LVL69
 7258 04de F6010000 		.4byte	.LVL70
 7259 04e2 0200     		.2byte	0x2
 7260 04e4 30       		.byte	0x30
 7261 04e5 9F       		.byte	0x9f
 7262 04e6 F6010000 		.4byte	.LVL70
 7263 04ea 46020000 		.4byte	.LVL74
 7264 04ee 0100     		.2byte	0x1
 7265 04f0 50       		.byte	0x50
 7266 04f1 4A020000 		.4byte	.LVL76
 7267 04f5 64020000 		.4byte	.LVL79
ARM GAS  C:\Users\armst\AppData\Local\Temp\ccNPhHLt.s 			page 147


 7268 04f9 0100     		.2byte	0x1
 7269 04fb 50       		.byte	0x50
 7270 04fc 88050000 		.4byte	.LVL163
 7271 0500 8A050000 		.4byte	.LVL164
 7272 0504 0100     		.2byte	0x1
 7273 0506 50       		.byte	0x50
 7274 0507 8C050000 		.4byte	.LVL165
 7275 050b 8E050000 		.4byte	.LVL166
 7276 050f 0100     		.2byte	0x1
 7277 0511 50       		.byte	0x50
 7278 0512 90050000 		.4byte	.LVL167
 7279 0516 92050000 		.4byte	.LVL168
 7280 051a 0100     		.2byte	0x1
 7281 051c 50       		.byte	0x50
 7282 051d 94050000 		.4byte	.LVL169
 7283 0521 96050000 		.4byte	.LVL170
 7284 0525 0100     		.2byte	0x1
 7285 0527 50       		.byte	0x50
 7286 0528 98050000 		.4byte	.LVL171
 7287 052c 9A050000 		.4byte	.LVL172
 7288 0530 0100     		.2byte	0x1
 7289 0532 50       		.byte	0x50
 7290 0533 00000000 		.4byte	0
 7291 0537 00000000 		.4byte	0
 7292              	.LLST21:
 7293 053b 84010000 		.4byte	.LVL56
 7294 053f B8010000 		.4byte	.LVL60
 7295 0543 0100     		.2byte	0x1
 7296 0545 53       		.byte	0x53
 7297 0546 B8010000 		.4byte	.LVL60
 7298 054a BC010000 		.4byte	.LVL62
 7299 054e 0B00     		.2byte	0xb
 7300 0550 77       		.byte	0x77
 7301 0551 00       		.sleb128 0
 7302 0552 94       		.byte	0x94
 7303 0553 01       		.byte	0x1
 7304 0554 08       		.byte	0x8
 7305 0555 FF       		.byte	0xff
 7306 0556 1A       		.byte	0x1a
 7307 0557 08       		.byte	0x8
 7308 0558 30       		.byte	0x30
 7309 0559 1C       		.byte	0x1c
 7310 055a 9F       		.byte	0x9f
 7311 055b 00000000 		.4byte	0
 7312 055f 00000000 		.4byte	0
 7313              	.LLST22:
 7314 0563 F8010000 		.4byte	.LVL71
 7315 0567 24020000 		.4byte	.LVL72
 7316 056b 0100     		.2byte	0x1
 7317 056d 53       		.byte	0x53
 7318 056e 00000000 		.4byte	0
 7319 0572 00000000 		.4byte	0
 7320              	.LLST23:
 7321 0576 64020000 		.4byte	.LVL79
 7322 057a 70020000 		.4byte	.LVL80
 7323 057e 0200     		.2byte	0x2
 7324 0580 30       		.byte	0x30
ARM GAS  C:\Users\armst\AppData\Local\Temp\ccNPhHLt.s 			page 148


 7325 0581 9F       		.byte	0x9f
 7326 0582 70020000 		.4byte	.LVL80
 7327 0586 9C020000 		.4byte	.LVL83
 7328 058a 0100     		.2byte	0x1
 7329 058c 50       		.byte	0x50
 7330 058d 9E020000 		.4byte	.LVL84
 7331 0591 A0020000 		.4byte	.LVL85
 7332 0595 0200     		.2byte	0x2
 7333 0597 30       		.byte	0x30
 7334 0598 9F       		.byte	0x9f
 7335 0599 A0020000 		.4byte	.LVL85
 7336 059d AC020000 		.4byte	.LVL86
 7337 05a1 0100     		.2byte	0x1
 7338 05a3 50       		.byte	0x50
 7339 05a4 00000000 		.4byte	0
 7340 05a8 00000000 		.4byte	0
 7341              	.LLST24:
 7342 05ac 74020000 		.4byte	.LVL81
 7343 05b0 98020000 		.4byte	.LVL82
 7344 05b4 0100     		.2byte	0x1
 7345 05b6 52       		.byte	0x52
 7346 05b7 00000000 		.4byte	0
 7347 05bb 00000000 		.4byte	0
 7348              	.LLST25:
 7349 05bf B4020000 		.4byte	.LVL87
 7350 05c3 B8020000 		.4byte	.LVL88
 7351 05c7 0100     		.2byte	0x1
 7352 05c9 51       		.byte	0x51
 7353 05ca B8020000 		.4byte	.LVL88
 7354 05ce BE020000 		.4byte	.LVL90
 7355 05d2 0300     		.2byte	0x3
 7356 05d4 71       		.byte	0x71
 7357 05d5 01       		.sleb128 1
 7358 05d6 9F       		.byte	0x9f
 7359 05d7 BE020000 		.4byte	.LVL90
 7360 05db EE020000 		.4byte	.LVL93
 7361 05df 0100     		.2byte	0x1
 7362 05e1 51       		.byte	0x51
 7363 05e2 00000000 		.4byte	0
 7364 05e6 00000000 		.4byte	0
 7365              	.LLST26:
 7366 05ea C0020000 		.4byte	.LVL91
 7367 05ee E4020000 		.4byte	.LVL92
 7368 05f2 0100     		.2byte	0x1
 7369 05f4 52       		.byte	0x52
 7370 05f5 00000000 		.4byte	0
 7371 05f9 00000000 		.4byte	0
 7372              	.LLST27:
 7373 05fd 44030000 		.4byte	.LVL100
 7374 0601 54030000 		.4byte	.LVL102
 7375 0605 0100     		.2byte	0x1
 7376 0607 53       		.byte	0x53
 7377 0608 00000000 		.4byte	0
 7378 060c 00000000 		.4byte	0
 7379              	.LLST28:
 7380 0610 00030000 		.4byte	.LVL94
 7381 0614 02030000 		.4byte	.LVL95
ARM GAS  C:\Users\armst\AppData\Local\Temp\ccNPhHLt.s 			page 149


 7382 0618 0100     		.2byte	0x1
 7383 061a 53       		.byte	0x53
 7384 061b 02030000 		.4byte	.LVL95
 7385 061f 38030000 		.4byte	.LVL98
 7386 0623 0300     		.2byte	0x3
 7387 0625 73       		.byte	0x73
 7388 0626 7F       		.sleb128 -1
 7389 0627 9F       		.byte	0x9f
 7390 0628 38030000 		.4byte	.LVL98
 7391 062c 3E030000 		.4byte	.LVL99
 7392 0630 0100     		.2byte	0x1
 7393 0632 53       		.byte	0x53
 7394 0633 A4050000 		.4byte	.LVL174
 7395 0637 A8050000 		.4byte	.LVL176
 7396 063b 0300     		.2byte	0x3
 7397 063d 73       		.byte	0x73
 7398 063e 7F       		.sleb128 -1
 7399 063f 9F       		.byte	0x9f
 7400 0640 00000000 		.4byte	0
 7401 0644 00000000 		.4byte	0
 7402              	.LLST29:
 7403 0648 04030000 		.4byte	.LVL96
 7404 064c 32030000 		.4byte	.LVL97
 7405 0650 0100     		.2byte	0x1
 7406 0652 51       		.byte	0x51
 7407 0653 00000000 		.4byte	0
 7408 0657 00000000 		.4byte	0
 7409              	.LLST30:
 7410 065b 5E030000 		.4byte	.LVL103
 7411 065f 1A040000 		.4byte	.LVL123
 7412 0663 0100     		.2byte	0x1
 7413 0665 58       		.byte	0x58
 7414 0666 00000000 		.4byte	0
 7415 066a 00000000 		.4byte	0
 7416              	.LLST31:
 7417 066e 5E030000 		.4byte	.LVL103
 7418 0672 E8030000 		.4byte	.LVL113
 7419 0676 0300     		.2byte	0x3
 7420 0678 09       		.byte	0x9
 7421 0679 FF       		.byte	0xff
 7422 067a 9F       		.byte	0x9f
 7423 067b E8030000 		.4byte	.LVL113
 7424 067f EE030000 		.4byte	.LVL114
 7425 0683 0100     		.2byte	0x1
 7426 0685 50       		.byte	0x50
 7427 0686 EE030000 		.4byte	.LVL114
 7428 068a 00040000 		.4byte	.LVL119
 7429 068e 0100     		.2byte	0x1
 7430 0690 5A       		.byte	0x5a
 7431 0691 00040000 		.4byte	.LVL119
 7432 0695 0C040000 		.4byte	.LVL122
 7433 0699 0300     		.2byte	0x3
 7434 069b 09       		.byte	0x9
 7435 069c FF       		.byte	0xff
 7436 069d 9F       		.byte	0x9f
 7437 069e 0C040000 		.4byte	.LVL122
 7438 06a2 1A040000 		.4byte	.LVL123
ARM GAS  C:\Users\armst\AppData\Local\Temp\ccNPhHLt.s 			page 150


 7439 06a6 0100     		.2byte	0x1
 7440 06a8 5A       		.byte	0x5a
 7441 06a9 00000000 		.4byte	0
 7442 06ad 00000000 		.4byte	0
 7443              	.LLST32:
 7444 06b1 5E030000 		.4byte	.LVL103
 7445 06b5 F4030000 		.4byte	.LVL116
 7446 06b9 0300     		.2byte	0x3
 7447 06bb 09       		.byte	0x9
 7448 06bc FF       		.byte	0xff
 7449 06bd 9F       		.byte	0x9f
 7450 06be F4030000 		.4byte	.LVL116
 7451 06c2 FA030000 		.4byte	.LVL117
 7452 06c6 0100     		.2byte	0x1
 7453 06c8 50       		.byte	0x50
 7454 06c9 FA030000 		.4byte	.LVL117
 7455 06cd 00040000 		.4byte	.LVL119
 7456 06d1 0100     		.2byte	0x1
 7457 06d3 57       		.byte	0x57
 7458 06d4 00040000 		.4byte	.LVL119
 7459 06d8 0C040000 		.4byte	.LVL122
 7460 06dc 0300     		.2byte	0x3
 7461 06de 09       		.byte	0x9
 7462 06df FF       		.byte	0xff
 7463 06e0 9F       		.byte	0x9f
 7464 06e1 0C040000 		.4byte	.LVL122
 7465 06e5 1A040000 		.4byte	.LVL123
 7466 06e9 0100     		.2byte	0x1
 7467 06eb 57       		.byte	0x57
 7468 06ec 00000000 		.4byte	0
 7469 06f0 00000000 		.4byte	0
 7470              	.LLST33:
 7471 06f4 5E030000 		.4byte	.LVL103
 7472 06f8 FE030000 		.4byte	.LVL118
 7473 06fc 0300     		.2byte	0x3
 7474 06fe 09       		.byte	0x9
 7475 06ff FF       		.byte	0xff
 7476 0700 9F       		.byte	0x9f
 7477 0701 FE030000 		.4byte	.LVL118
 7478 0705 00040000 		.4byte	.LVL119
 7479 0709 0100     		.2byte	0x1
 7480 070b 50       		.byte	0x50
 7481 070c 00040000 		.4byte	.LVL119
 7482 0710 0C040000 		.4byte	.LVL122
 7483 0714 0300     		.2byte	0x3
 7484 0716 09       		.byte	0x9
 7485 0717 FF       		.byte	0xff
 7486 0718 9F       		.byte	0x9f
 7487 0719 0C040000 		.4byte	.LVL122
 7488 071d 1A040000 		.4byte	.LVL123
 7489 0721 0100     		.2byte	0x1
 7490 0723 50       		.byte	0x50
 7491 0724 00000000 		.4byte	0
 7492 0728 00000000 		.4byte	0
 7493              	.LLST34:
 7494 072c 64030000 		.4byte	.LVL104
 7495 0730 88030000 		.4byte	.LVL105
ARM GAS  C:\Users\armst\AppData\Local\Temp\ccNPhHLt.s 			page 151


 7496 0734 0100     		.2byte	0x1
 7497 0736 50       		.byte	0x50
 7498 0737 00000000 		.4byte	0
 7499 073b 00000000 		.4byte	0
 7500              	.LLST35:
 7501 073f 94030000 		.4byte	.LVL107
 7502 0743 A4030000 		.4byte	.LVL109
 7503 0747 0100     		.2byte	0x1
 7504 0749 53       		.byte	0x53
 7505 074a A6030000 		.4byte	.LVL110
 7506 074e B0030000 		.4byte	.LVL111
 7507 0752 0100     		.2byte	0x1
 7508 0754 53       		.byte	0x53
 7509 0755 00040000 		.4byte	.LVL119
 7510 0759 04040000 		.4byte	.LVL120
 7511 075d 0100     		.2byte	0x1
 7512 075f 53       		.byte	0x53
 7513 0760 00000000 		.4byte	0
 7514 0764 00000000 		.4byte	0
 7515              	.LLST36:
 7516 0768 24040000 		.4byte	.LVL124
 7517 076c 34050000 		.4byte	.LVL151
 7518 0770 0100     		.2byte	0x1
 7519 0772 58       		.byte	0x58
 7520 0773 00000000 		.4byte	0
 7521 0777 00000000 		.4byte	0
 7522              	.LLST37:
 7523 077b 24040000 		.4byte	.LVL124
 7524 077f B0040000 		.4byte	.LVL133
 7525 0783 0300     		.2byte	0x3
 7526 0785 09       		.byte	0x9
 7527 0786 FF       		.byte	0xff
 7528 0787 9F       		.byte	0x9f
 7529 0788 B0040000 		.4byte	.LVL133
 7530 078c B6040000 		.4byte	.LVL134
 7531 0790 0100     		.2byte	0x1
 7532 0792 50       		.byte	0x50
 7533 0793 B6040000 		.4byte	.LVL134
 7534 0797 14050000 		.4byte	.LVL148
 7535 079b 0100     		.2byte	0x1
 7536 079d 5A       		.byte	0x5a
 7537 079e 14050000 		.4byte	.LVL148
 7538 07a2 22050000 		.4byte	.LVL150
 7539 07a6 0300     		.2byte	0x3
 7540 07a8 09       		.byte	0x9
 7541 07a9 FF       		.byte	0xff
 7542 07aa 9F       		.byte	0x9f
 7543 07ab 22050000 		.4byte	.LVL150
 7544 07af 34050000 		.4byte	.LVL151
 7545 07b3 0100     		.2byte	0x1
 7546 07b5 5A       		.byte	0x5a
 7547 07b6 00000000 		.4byte	0
 7548 07ba 00000000 		.4byte	0
 7549              	.LLST38:
 7550 07be 24040000 		.4byte	.LVL124
 7551 07c2 BC040000 		.4byte	.LVL136
 7552 07c6 0300     		.2byte	0x3
ARM GAS  C:\Users\armst\AppData\Local\Temp\ccNPhHLt.s 			page 152


 7553 07c8 09       		.byte	0x9
 7554 07c9 FF       		.byte	0xff
 7555 07ca 9F       		.byte	0x9f
 7556 07cb BC040000 		.4byte	.LVL136
 7557 07cf C2040000 		.4byte	.LVL137
 7558 07d3 0100     		.2byte	0x1
 7559 07d5 50       		.byte	0x50
 7560 07d6 C2040000 		.4byte	.LVL137
 7561 07da 14050000 		.4byte	.LVL148
 7562 07de 0100     		.2byte	0x1
 7563 07e0 59       		.byte	0x59
 7564 07e1 14050000 		.4byte	.LVL148
 7565 07e5 22050000 		.4byte	.LVL150
 7566 07e9 0300     		.2byte	0x3
 7567 07eb 09       		.byte	0x9
 7568 07ec FF       		.byte	0xff
 7569 07ed 9F       		.byte	0x9f
 7570 07ee 22050000 		.4byte	.LVL150
 7571 07f2 34050000 		.4byte	.LVL151
 7572 07f6 0100     		.2byte	0x1
 7573 07f8 59       		.byte	0x59
 7574 07f9 00000000 		.4byte	0
 7575 07fd 00000000 		.4byte	0
 7576              	.LLST39:
 7577 0801 24040000 		.4byte	.LVL124
 7578 0805 C6040000 		.4byte	.LVL138
 7579 0809 0300     		.2byte	0x3
 7580 080b 09       		.byte	0x9
 7581 080c FF       		.byte	0xff
 7582 080d 9F       		.byte	0x9f
 7583 080e C6040000 		.4byte	.LVL138
 7584 0812 14050000 		.4byte	.LVL148
 7585 0816 0100     		.2byte	0x1
 7586 0818 50       		.byte	0x50
 7587 0819 14050000 		.4byte	.LVL148
 7588 081d 22050000 		.4byte	.LVL150
 7589 0821 0300     		.2byte	0x3
 7590 0823 09       		.byte	0x9
 7591 0824 FF       		.byte	0xff
 7592 0825 9F       		.byte	0x9f
 7593 0826 22050000 		.4byte	.LVL150
 7594 082a 34050000 		.4byte	.LVL151
 7595 082e 0100     		.2byte	0x1
 7596 0830 50       		.byte	0x50
 7597 0831 00000000 		.4byte	0
 7598 0835 00000000 		.4byte	0
 7599              	.LLST40:
 7600 0839 24040000 		.4byte	.LVL124
 7601 083d 12050000 		.4byte	.LVL147
 7602 0841 0300     		.2byte	0x3
 7603 0843 09       		.byte	0x9
 7604 0844 FF       		.byte	0xff
 7605 0845 9F       		.byte	0x9f
 7606 0846 12050000 		.4byte	.LVL147
 7607 084a 14050000 		.4byte	.LVL148
 7608 084e 0100     		.2byte	0x1
 7609 0850 53       		.byte	0x53
ARM GAS  C:\Users\armst\AppData\Local\Temp\ccNPhHLt.s 			page 153


 7610 0851 14050000 		.4byte	.LVL148
 7611 0855 22050000 		.4byte	.LVL150
 7612 0859 0300     		.2byte	0x3
 7613 085b 09       		.byte	0x9
 7614 085c FF       		.byte	0xff
 7615 085d 9F       		.byte	0x9f
 7616 085e 22050000 		.4byte	.LVL150
 7617 0862 34050000 		.4byte	.LVL151
 7618 0866 0100     		.2byte	0x1
 7619 0868 53       		.byte	0x53
 7620 0869 00000000 		.4byte	0
 7621 086d 00000000 		.4byte	0
 7622              	.LLST41:
 7623 0871 2A040000 		.4byte	.LVL125
 7624 0875 4E040000 		.4byte	.LVL126
 7625 0879 0100     		.2byte	0x1
 7626 087b 50       		.byte	0x50
 7627 087c 00000000 		.4byte	0
 7628 0880 00000000 		.4byte	0
 7629              	.LLST42:
 7630 0884 5C040000 		.4byte	.LVL127
 7631 0888 6C040000 		.4byte	.LVL129
 7632 088c 0100     		.2byte	0x1
 7633 088e 53       		.byte	0x53
 7634 088f 6E040000 		.4byte	.LVL130
 7635 0893 78040000 		.4byte	.LVL131
 7636 0897 0100     		.2byte	0x1
 7637 0899 53       		.byte	0x53
 7638 089a 14050000 		.4byte	.LVL148
 7639 089e 18050000 		.4byte	.LVL149
 7640 08a2 0100     		.2byte	0x1
 7641 08a4 53       		.byte	0x53
 7642 08a5 00000000 		.4byte	0
 7643 08a9 00000000 		.4byte	0
 7644              	.LLST43:
 7645 08ad D4040000 		.4byte	.LVL140
 7646 08b1 F0040000 		.4byte	.LVL145
 7647 08b5 0100     		.2byte	0x1
 7648 08b7 51       		.byte	0x51
 7649 08b8 F4040000 		.4byte	.LVL146
 7650 08bc 14050000 		.4byte	.LVL148
 7651 08c0 0100     		.2byte	0x1
 7652 08c2 51       		.byte	0x51
 7653 08c3 00000000 		.4byte	0
 7654 08c7 00000000 		.4byte	0
 7655              	.LLST44:
 7656 08cb D4040000 		.4byte	.LVL140
 7657 08cf EC040000 		.4byte	.LVL143
 7658 08d3 0100     		.2byte	0x1
 7659 08d5 52       		.byte	0x52
 7660 08d6 EE040000 		.4byte	.LVL144
 7661 08da F0040000 		.4byte	.LVL145
 7662 08de 0100     		.2byte	0x1
 7663 08e0 52       		.byte	0x52
 7664 08e1 F4040000 		.4byte	.LVL146
 7665 08e5 14050000 		.4byte	.LVL148
 7666 08e9 0100     		.2byte	0x1
ARM GAS  C:\Users\armst\AppData\Local\Temp\ccNPhHLt.s 			page 154


 7667 08eb 52       		.byte	0x52
 7668 08ec 00000000 		.4byte	0
 7669 08f0 00000000 		.4byte	0
 7670              	.LLST45:
 7671 08f4 38050000 		.4byte	.LVL153
 7672 08f8 5C050000 		.4byte	.LVL154
 7673 08fc 0100     		.2byte	0x1
 7674 08fe 52       		.byte	0x52
 7675 08ff 00000000 		.4byte	0
 7676 0903 00000000 		.4byte	0
 7677              	.LLST46:
 7678 0907 00000000 		.4byte	.LVL178
 7679 090b 08000000 		.4byte	.LVL179
 7680 090f 0100     		.2byte	0x1
 7681 0911 50       		.byte	0x50
 7682 0912 08000000 		.4byte	.LVL179
 7683 0916 2A000000 		.4byte	.LVL182
 7684 091a 0100     		.2byte	0x1
 7685 091c 54       		.byte	0x54
 7686 091d 2A000000 		.4byte	.LVL182
 7687 0921 30000000 		.4byte	.LFE9
 7688 0925 0400     		.2byte	0x4
 7689 0927 F3       		.byte	0xf3
 7690 0928 01       		.uleb128 0x1
 7691 0929 50       		.byte	0x50
 7692 092a 9F       		.byte	0x9f
 7693 092b 00000000 		.4byte	0
 7694 092f 00000000 		.4byte	0
 7695              	.LLST47:
 7696 0933 00000000 		.4byte	.LVL178
 7697 0937 0C000000 		.4byte	.LVL180
 7698 093b 0100     		.2byte	0x1
 7699 093d 51       		.byte	0x51
 7700 093e 0C000000 		.4byte	.LVL180
 7701 0942 0F000000 		.4byte	.LVL181-1
 7702 0946 0100     		.2byte	0x1
 7703 0948 50       		.byte	0x50
 7704 0949 0F000000 		.4byte	.LVL181-1
 7705 094d 30000000 		.4byte	.LFE9
 7706 0951 0400     		.2byte	0x4
 7707 0953 F3       		.byte	0xf3
 7708 0954 01       		.uleb128 0x1
 7709 0955 51       		.byte	0x51
 7710 0956 9F       		.byte	0x9f
 7711 0957 00000000 		.4byte	0
 7712 095b 00000000 		.4byte	0
 7713              	.LLST48:
 7714 095f 00000000 		.4byte	.LVL183
 7715 0963 09000000 		.4byte	.LVL184-1
 7716 0967 0100     		.2byte	0x1
 7717 0969 50       		.byte	0x50
 7718 096a 09000000 		.4byte	.LVL184-1
 7719 096e BE000000 		.4byte	.LVL195
 7720 0972 0100     		.2byte	0x1
 7721 0974 54       		.byte	0x54
 7722 0975 BE000000 		.4byte	.LVL195
 7723 0979 E8000000 		.4byte	.LFE10
ARM GAS  C:\Users\armst\AppData\Local\Temp\ccNPhHLt.s 			page 155


 7724 097d 0400     		.2byte	0x4
 7725 097f F3       		.byte	0xf3
 7726 0980 01       		.uleb128 0x1
 7727 0981 50       		.byte	0x50
 7728 0982 9F       		.byte	0x9f
 7729 0983 00000000 		.4byte	0
 7730 0987 00000000 		.4byte	0
 7731              	.LLST49:
 7732 098b 00000000 		.4byte	.LVL183
 7733 098f 09000000 		.4byte	.LVL184-1
 7734 0993 0100     		.2byte	0x1
 7735 0995 51       		.byte	0x51
 7736 0996 09000000 		.4byte	.LVL184-1
 7737 099a E8000000 		.4byte	.LFE10
 7738 099e 0400     		.2byte	0x4
 7739 09a0 F3       		.byte	0xf3
 7740 09a1 01       		.uleb128 0x1
 7741 09a2 51       		.byte	0x51
 7742 09a3 9F       		.byte	0x9f
 7743 09a4 00000000 		.4byte	0
 7744 09a8 00000000 		.4byte	0
 7745              	.LLST50:
 7746 09ac 00000000 		.4byte	.LVL196
 7747 09b0 08000000 		.4byte	.LVL197
 7748 09b4 0100     		.2byte	0x1
 7749 09b6 50       		.byte	0x50
 7750 09b7 08000000 		.4byte	.LVL197
 7751 09bb 39000000 		.4byte	.LVL199-1
 7752 09bf 0100     		.2byte	0x1
 7753 09c1 53       		.byte	0x53
 7754 09c2 39000000 		.4byte	.LVL199-1
 7755 09c6 5C000000 		.4byte	.LFE11
 7756 09ca 0400     		.2byte	0x4
 7757 09cc F3       		.byte	0xf3
 7758 09cd 01       		.uleb128 0x1
 7759 09ce 50       		.byte	0x50
 7760 09cf 9F       		.byte	0x9f
 7761 09d0 00000000 		.4byte	0
 7762 09d4 00000000 		.4byte	0
 7763              	.LLST51:
 7764 09d8 00000000 		.4byte	.LVL196
 7765 09dc 36000000 		.4byte	.LVL198
 7766 09e0 0100     		.2byte	0x1
 7767 09e2 51       		.byte	0x51
 7768 09e3 36000000 		.4byte	.LVL198
 7769 09e7 39000000 		.4byte	.LVL199-1
 7770 09eb 0100     		.2byte	0x1
 7771 09ed 50       		.byte	0x50
 7772 09ee 39000000 		.4byte	.LVL199-1
 7773 09f2 5C000000 		.4byte	.LFE11
 7774 09f6 0400     		.2byte	0x4
 7775 09f8 F3       		.byte	0xf3
 7776 09f9 01       		.uleb128 0x1
 7777 09fa 51       		.byte	0x51
 7778 09fb 9F       		.byte	0x9f
 7779 09fc 00000000 		.4byte	0
 7780 0a00 00000000 		.4byte	0
ARM GAS  C:\Users\armst\AppData\Local\Temp\ccNPhHLt.s 			page 156


 7781              	.LLST52:
 7782 0a04 00000000 		.4byte	.LVL201
 7783 0a08 08000000 		.4byte	.LVL202
 7784 0a0c 0100     		.2byte	0x1
 7785 0a0e 50       		.byte	0x50
 7786 0a0f 08000000 		.4byte	.LVL202
 7787 0a13 8E000000 		.4byte	.LVL206
 7788 0a17 0100     		.2byte	0x1
 7789 0a19 54       		.byte	0x54
 7790 0a1a 8E000000 		.4byte	.LVL206
 7791 0a1e 98000000 		.4byte	.LFE12
 7792 0a22 0400     		.2byte	0x4
 7793 0a24 F3       		.byte	0xf3
 7794 0a25 01       		.uleb128 0x1
 7795 0a26 50       		.byte	0x50
 7796 0a27 9F       		.byte	0x9f
 7797 0a28 00000000 		.4byte	0
 7798 0a2c 00000000 		.4byte	0
 7799              	.LLST53:
 7800 0a30 00000000 		.4byte	.LVL201
 7801 0a34 44000000 		.4byte	.LVL203
 7802 0a38 0100     		.2byte	0x1
 7803 0a3a 51       		.byte	0x51
 7804 0a3b 44000000 		.4byte	.LVL203
 7805 0a3f 47000000 		.4byte	.LVL204-1
 7806 0a43 0100     		.2byte	0x1
 7807 0a45 50       		.byte	0x50
 7808 0a46 47000000 		.4byte	.LVL204-1
 7809 0a4a 98000000 		.4byte	.LFE12
 7810 0a4e 0400     		.2byte	0x4
 7811 0a50 F3       		.byte	0xf3
 7812 0a51 01       		.uleb128 0x1
 7813 0a52 51       		.byte	0x51
 7814 0a53 9F       		.byte	0x9f
 7815 0a54 00000000 		.4byte	0
 7816 0a58 00000000 		.4byte	0
 7817              	.LLST54:
 7818 0a5c 00000000 		.4byte	.LVL207
 7819 0a60 08000000 		.4byte	.LVL208
 7820 0a64 0100     		.2byte	0x1
 7821 0a66 50       		.byte	0x50
 7822 0a67 08000000 		.4byte	.LVL208
 7823 0a6b 84000000 		.4byte	.LVL212
 7824 0a6f 0100     		.2byte	0x1
 7825 0a71 54       		.byte	0x54
 7826 0a72 84000000 		.4byte	.LVL212
 7827 0a76 8C000000 		.4byte	.LFE13
 7828 0a7a 0400     		.2byte	0x4
 7829 0a7c F3       		.byte	0xf3
 7830 0a7d 01       		.uleb128 0x1
 7831 0a7e 50       		.byte	0x50
 7832 0a7f 9F       		.byte	0x9f
 7833 0a80 00000000 		.4byte	0
 7834 0a84 00000000 		.4byte	0
 7835              	.LLST55:
 7836 0a88 00000000 		.4byte	.LVL207
 7837 0a8c 52000000 		.4byte	.LVL209
ARM GAS  C:\Users\armst\AppData\Local\Temp\ccNPhHLt.s 			page 157


 7838 0a90 0100     		.2byte	0x1
 7839 0a92 51       		.byte	0x51
 7840 0a93 52000000 		.4byte	.LVL209
 7841 0a97 55000000 		.4byte	.LVL210-1
 7842 0a9b 0100     		.2byte	0x1
 7843 0a9d 50       		.byte	0x50
 7844 0a9e 55000000 		.4byte	.LVL210-1
 7845 0aa2 8C000000 		.4byte	.LFE13
 7846 0aa6 0400     		.2byte	0x4
 7847 0aa8 F3       		.byte	0xf3
 7848 0aa9 01       		.uleb128 0x1
 7849 0aaa 51       		.byte	0x51
 7850 0aab 9F       		.byte	0x9f
 7851 0aac 00000000 		.4byte	0
 7852 0ab0 00000000 		.4byte	0
 7853              	.LLST56:
 7854 0ab4 00000000 		.4byte	.LVL213
 7855 0ab8 08000000 		.4byte	.LVL214
 7856 0abc 0100     		.2byte	0x1
 7857 0abe 50       		.byte	0x50
 7858 0abf 08000000 		.4byte	.LVL214
 7859 0ac3 6D000000 		.4byte	.LVL216-1
 7860 0ac7 0100     		.2byte	0x1
 7861 0ac9 53       		.byte	0x53
 7862 0aca 6D000000 		.4byte	.LVL216-1
 7863 0ace 90000000 		.4byte	.LFE14
 7864 0ad2 0400     		.2byte	0x4
 7865 0ad4 F3       		.byte	0xf3
 7866 0ad5 01       		.uleb128 0x1
 7867 0ad6 50       		.byte	0x50
 7868 0ad7 9F       		.byte	0x9f
 7869 0ad8 00000000 		.4byte	0
 7870 0adc 00000000 		.4byte	0
 7871              	.LLST57:
 7872 0ae0 00000000 		.4byte	.LVL213
 7873 0ae4 6A000000 		.4byte	.LVL215
 7874 0ae8 0100     		.2byte	0x1
 7875 0aea 51       		.byte	0x51
 7876 0aeb 6A000000 		.4byte	.LVL215
 7877 0aef 6D000000 		.4byte	.LVL216-1
 7878 0af3 0100     		.2byte	0x1
 7879 0af5 50       		.byte	0x50
 7880 0af6 6D000000 		.4byte	.LVL216-1
 7881 0afa 90000000 		.4byte	.LFE14
 7882 0afe 0400     		.2byte	0x4
 7883 0b00 F3       		.byte	0xf3
 7884 0b01 01       		.uleb128 0x1
 7885 0b02 51       		.byte	0x51
 7886 0b03 9F       		.byte	0x9f
 7887 0b04 00000000 		.4byte	0
 7888 0b08 00000000 		.4byte	0
 7889              	.LLST58:
 7890 0b0c 00000000 		.4byte	.LVL218
 7891 0b10 08000000 		.4byte	.LVL219
 7892 0b14 0100     		.2byte	0x1
 7893 0b16 50       		.byte	0x50
 7894 0b17 08000000 		.4byte	.LVL219
ARM GAS  C:\Users\armst\AppData\Local\Temp\ccNPhHLt.s 			page 158


 7895 0b1b 60000000 		.4byte	.LVL223
 7896 0b1f 0100     		.2byte	0x1
 7897 0b21 54       		.byte	0x54
 7898 0b22 60000000 		.4byte	.LVL223
 7899 0b26 68000000 		.4byte	.LFE15
 7900 0b2a 0400     		.2byte	0x4
 7901 0b2c F3       		.byte	0xf3
 7902 0b2d 01       		.uleb128 0x1
 7903 0b2e 50       		.byte	0x50
 7904 0b2f 9F       		.byte	0x9f
 7905 0b30 00000000 		.4byte	0
 7906 0b34 00000000 		.4byte	0
 7907              	.LLST59:
 7908 0b38 00000000 		.4byte	.LVL218
 7909 0b3c 2E000000 		.4byte	.LVL220
 7910 0b40 0100     		.2byte	0x1
 7911 0b42 51       		.byte	0x51
 7912 0b43 2E000000 		.4byte	.LVL220
 7913 0b47 31000000 		.4byte	.LVL221-1
 7914 0b4b 0100     		.2byte	0x1
 7915 0b4d 50       		.byte	0x50
 7916 0b4e 31000000 		.4byte	.LVL221-1
 7917 0b52 68000000 		.4byte	.LFE15
 7918 0b56 0400     		.2byte	0x4
 7919 0b58 F3       		.byte	0xf3
 7920 0b59 01       		.uleb128 0x1
 7921 0b5a 51       		.byte	0x51
 7922 0b5b 9F       		.byte	0x9f
 7923 0b5c 00000000 		.4byte	0
 7924 0b60 00000000 		.4byte	0
 7925              	.LLST60:
 7926 0b64 00000000 		.4byte	.LVL224
 7927 0b68 08000000 		.4byte	.LVL225
 7928 0b6c 0100     		.2byte	0x1
 7929 0b6e 50       		.byte	0x50
 7930 0b6f 08000000 		.4byte	.LVL225
 7931 0b73 39000000 		.4byte	.LVL227-1
 7932 0b77 0100     		.2byte	0x1
 7933 0b79 53       		.byte	0x53
 7934 0b7a 39000000 		.4byte	.LVL227-1
 7935 0b7e 5C000000 		.4byte	.LFE16
 7936 0b82 0400     		.2byte	0x4
 7937 0b84 F3       		.byte	0xf3
 7938 0b85 01       		.uleb128 0x1
 7939 0b86 50       		.byte	0x50
 7940 0b87 9F       		.byte	0x9f
 7941 0b88 00000000 		.4byte	0
 7942 0b8c 00000000 		.4byte	0
 7943              	.LLST61:
 7944 0b90 00000000 		.4byte	.LVL224
 7945 0b94 36000000 		.4byte	.LVL226
 7946 0b98 0100     		.2byte	0x1
 7947 0b9a 51       		.byte	0x51
 7948 0b9b 36000000 		.4byte	.LVL226
 7949 0b9f 39000000 		.4byte	.LVL227-1
 7950 0ba3 0100     		.2byte	0x1
 7951 0ba5 50       		.byte	0x50
ARM GAS  C:\Users\armst\AppData\Local\Temp\ccNPhHLt.s 			page 159


 7952 0ba6 39000000 		.4byte	.LVL227-1
 7953 0baa 5C000000 		.4byte	.LFE16
 7954 0bae 0400     		.2byte	0x4
 7955 0bb0 F3       		.byte	0xf3
 7956 0bb1 01       		.uleb128 0x1
 7957 0bb2 51       		.byte	0x51
 7958 0bb3 9F       		.byte	0x9f
 7959 0bb4 00000000 		.4byte	0
 7960 0bb8 00000000 		.4byte	0
 7961              	.LLST62:
 7962 0bbc 00000000 		.4byte	.LVL229
 7963 0bc0 08000000 		.4byte	.LVL230
 7964 0bc4 0100     		.2byte	0x1
 7965 0bc6 50       		.byte	0x50
 7966 0bc7 08000000 		.4byte	.LVL230
 7967 0bcb 79000000 		.4byte	.LVL232-1
 7968 0bcf 0100     		.2byte	0x1
 7969 0bd1 53       		.byte	0x53
 7970 0bd2 79000000 		.4byte	.LVL232-1
 7971 0bd6 9C000000 		.4byte	.LFE17
 7972 0bda 0400     		.2byte	0x4
 7973 0bdc F3       		.byte	0xf3
 7974 0bdd 01       		.uleb128 0x1
 7975 0bde 50       		.byte	0x50
 7976 0bdf 9F       		.byte	0x9f
 7977 0be0 00000000 		.4byte	0
 7978 0be4 00000000 		.4byte	0
 7979              	.LLST63:
 7980 0be8 00000000 		.4byte	.LVL229
 7981 0bec 76000000 		.4byte	.LVL231
 7982 0bf0 0100     		.2byte	0x1
 7983 0bf2 51       		.byte	0x51
 7984 0bf3 76000000 		.4byte	.LVL231
 7985 0bf7 79000000 		.4byte	.LVL232-1
 7986 0bfb 0100     		.2byte	0x1
 7987 0bfd 50       		.byte	0x50
 7988 0bfe 79000000 		.4byte	.LVL232-1
 7989 0c02 9C000000 		.4byte	.LFE17
 7990 0c06 0400     		.2byte	0x4
 7991 0c08 F3       		.byte	0xf3
 7992 0c09 01       		.uleb128 0x1
 7993 0c0a 51       		.byte	0x51
 7994 0c0b 9F       		.byte	0x9f
 7995 0c0c 00000000 		.4byte	0
 7996 0c10 00000000 		.4byte	0
 7997              	.LLST64:
 7998 0c14 00000000 		.4byte	.LVL234
 7999 0c18 08000000 		.4byte	.LVL235
 8000 0c1c 0100     		.2byte	0x1
 8001 0c1e 50       		.byte	0x50
 8002 0c1f 08000000 		.4byte	.LVL235
 8003 0c23 92000000 		.4byte	.LVL239
 8004 0c27 0100     		.2byte	0x1
 8005 0c29 54       		.byte	0x54
 8006 0c2a 92000000 		.4byte	.LVL239
 8007 0c2e 9C000000 		.4byte	.LFE18
 8008 0c32 0400     		.2byte	0x4
ARM GAS  C:\Users\armst\AppData\Local\Temp\ccNPhHLt.s 			page 160


 8009 0c34 F3       		.byte	0xf3
 8010 0c35 01       		.uleb128 0x1
 8011 0c36 50       		.byte	0x50
 8012 0c37 9F       		.byte	0x9f
 8013 0c38 00000000 		.4byte	0
 8014 0c3c 00000000 		.4byte	0
 8015              	.LLST65:
 8016 0c40 00000000 		.4byte	.LVL234
 8017 0c44 3C000000 		.4byte	.LVL236
 8018 0c48 0100     		.2byte	0x1
 8019 0c4a 51       		.byte	0x51
 8020 0c4b 3C000000 		.4byte	.LVL236
 8021 0c4f 3F000000 		.4byte	.LVL237-1
 8022 0c53 0100     		.2byte	0x1
 8023 0c55 50       		.byte	0x50
 8024 0c56 3F000000 		.4byte	.LVL237-1
 8025 0c5a 9C000000 		.4byte	.LFE18
 8026 0c5e 0400     		.2byte	0x4
 8027 0c60 F3       		.byte	0xf3
 8028 0c61 01       		.uleb128 0x1
 8029 0c62 51       		.byte	0x51
 8030 0c63 9F       		.byte	0x9f
 8031 0c64 00000000 		.4byte	0
 8032 0c68 00000000 		.4byte	0
 8033              	.LLST66:
 8034 0c6c 00000000 		.4byte	.LVL240
 8035 0c70 08000000 		.4byte	.LVL241
 8036 0c74 0100     		.2byte	0x1
 8037 0c76 50       		.byte	0x50
 8038 0c77 08000000 		.4byte	.LVL241
 8039 0c7b 6A000000 		.4byte	.LVL245
 8040 0c7f 0100     		.2byte	0x1
 8041 0c81 54       		.byte	0x54
 8042 0c82 6A000000 		.4byte	.LVL245
 8043 0c86 74000000 		.4byte	.LFE19
 8044 0c8a 0400     		.2byte	0x4
 8045 0c8c F3       		.byte	0xf3
 8046 0c8d 01       		.uleb128 0x1
 8047 0c8e 50       		.byte	0x50
 8048 0c8f 9F       		.byte	0x9f
 8049 0c90 00000000 		.4byte	0
 8050 0c94 00000000 		.4byte	0
 8051              	.LLST67:
 8052 0c98 00000000 		.4byte	.LVL240
 8053 0c9c 2C000000 		.4byte	.LVL242
 8054 0ca0 0100     		.2byte	0x1
 8055 0ca2 51       		.byte	0x51
 8056 0ca3 2C000000 		.4byte	.LVL242
 8057 0ca7 2F000000 		.4byte	.LVL243-1
 8058 0cab 0100     		.2byte	0x1
 8059 0cad 50       		.byte	0x50
 8060 0cae 2F000000 		.4byte	.LVL243-1
 8061 0cb2 74000000 		.4byte	.LFE19
 8062 0cb6 0400     		.2byte	0x4
 8063 0cb8 F3       		.byte	0xf3
 8064 0cb9 01       		.uleb128 0x1
 8065 0cba 51       		.byte	0x51
ARM GAS  C:\Users\armst\AppData\Local\Temp\ccNPhHLt.s 			page 161


 8066 0cbb 9F       		.byte	0x9f
 8067 0cbc 00000000 		.4byte	0
 8068 0cc0 00000000 		.4byte	0
 8069              	.LLST68:
 8070 0cc4 00000000 		.4byte	.LVL246
 8071 0cc8 1F000000 		.4byte	.LVL249-1
 8072 0ccc 0100     		.2byte	0x1
 8073 0cce 50       		.byte	0x50
 8074 0ccf 1F000000 		.4byte	.LVL249-1
 8075 0cd3 5A000000 		.4byte	.LVL250
 8076 0cd7 0100     		.2byte	0x1
 8077 0cd9 54       		.byte	0x54
 8078 0cda 5A000000 		.4byte	.LVL250
 8079 0cde 5C000000 		.4byte	.LVL251
 8080 0ce2 0100     		.2byte	0x1
 8081 0ce4 50       		.byte	0x50
 8082 0ce5 5C000000 		.4byte	.LVL251
 8083 0ce9 5E000000 		.4byte	.LFE20
 8084 0ced 0400     		.2byte	0x4
 8085 0cef F3       		.byte	0xf3
 8086 0cf0 01       		.uleb128 0x1
 8087 0cf1 50       		.byte	0x50
 8088 0cf2 9F       		.byte	0x9f
 8089 0cf3 00000000 		.4byte	0
 8090 0cf7 00000000 		.4byte	0
 8091              	.LLST69:
 8092 0cfb 00000000 		.4byte	.LVL246
 8093 0cff 1C000000 		.4byte	.LVL248
 8094 0d03 0100     		.2byte	0x1
 8095 0d05 51       		.byte	0x51
 8096 0d06 1C000000 		.4byte	.LVL248
 8097 0d0a 5A000000 		.4byte	.LVL250
 8098 0d0e 0100     		.2byte	0x1
 8099 0d10 55       		.byte	0x55
 8100 0d11 5A000000 		.4byte	.LVL250
 8101 0d15 5E000000 		.4byte	.LFE20
 8102 0d19 0100     		.2byte	0x1
 8103 0d1b 51       		.byte	0x51
 8104 0d1c 00000000 		.4byte	0
 8105 0d20 00000000 		.4byte	0
 8106              	.LLST70:
 8107 0d24 00000000 		.4byte	.LVL246
 8108 0d28 1A000000 		.4byte	.LVL247
 8109 0d2c 0100     		.2byte	0x1
 8110 0d2e 52       		.byte	0x52
 8111 0d2f 1A000000 		.4byte	.LVL247
 8112 0d33 5A000000 		.4byte	.LVL250
 8113 0d37 0100     		.2byte	0x1
 8114 0d39 56       		.byte	0x56
 8115 0d3a 5A000000 		.4byte	.LVL250
 8116 0d3e 5E000000 		.4byte	.LFE20
 8117 0d42 0100     		.2byte	0x1
 8118 0d44 52       		.byte	0x52
 8119 0d45 00000000 		.4byte	0
 8120 0d49 00000000 		.4byte	0
 8121              		.section	.debug_aranges,"",%progbits
 8122 0000 94000000 		.4byte	0x94
ARM GAS  C:\Users\armst\AppData\Local\Temp\ccNPhHLt.s 			page 162


 8123 0004 0200     		.2byte	0x2
 8124 0006 00000000 		.4byte	.Ldebug_info0
 8125 000a 04       		.byte	0x4
 8126 000b 00       		.byte	0
 8127 000c 0000     		.2byte	0
 8128 000e 0000     		.2byte	0
 8129 0010 00000000 		.4byte	.LFB5
 8130 0014 30000000 		.4byte	.LFE5-.LFB5
 8131 0018 00000000 		.4byte	.LFB6
 8132 001c 1C000000 		.4byte	.LFE6-.LFB6
 8133 0020 00000000 		.4byte	.LFB7
 8134 0024 88000000 		.4byte	.LFE7-.LFB7
 8135 0028 00000000 		.4byte	.LFB8
 8136 002c C0050000 		.4byte	.LFE8-.LFB8
 8137 0030 00000000 		.4byte	.LFB9
 8138 0034 30000000 		.4byte	.LFE9-.LFB9
 8139 0038 00000000 		.4byte	.LFB10
 8140 003c E8000000 		.4byte	.LFE10-.LFB10
 8141 0040 00000000 		.4byte	.LFB11
 8142 0044 5C000000 		.4byte	.LFE11-.LFB11
 8143 0048 00000000 		.4byte	.LFB12
 8144 004c 98000000 		.4byte	.LFE12-.LFB12
 8145 0050 00000000 		.4byte	.LFB13
 8146 0054 8C000000 		.4byte	.LFE13-.LFB13
 8147 0058 00000000 		.4byte	.LFB14
 8148 005c 90000000 		.4byte	.LFE14-.LFB14
 8149 0060 00000000 		.4byte	.LFB15
 8150 0064 68000000 		.4byte	.LFE15-.LFB15
 8151 0068 00000000 		.4byte	.LFB16
 8152 006c 5C000000 		.4byte	.LFE16-.LFB16
 8153 0070 00000000 		.4byte	.LFB17
 8154 0074 9C000000 		.4byte	.LFE17-.LFB17
 8155 0078 00000000 		.4byte	.LFB18
 8156 007c 9C000000 		.4byte	.LFE18-.LFB18
 8157 0080 00000000 		.4byte	.LFB19
 8158 0084 74000000 		.4byte	.LFE19-.LFB19
 8159 0088 00000000 		.4byte	.LFB20
 8160 008c 5E000000 		.4byte	.LFE20-.LFB20
 8161 0090 00000000 		.4byte	0
 8162 0094 00000000 		.4byte	0
 8163              		.section	.debug_ranges,"",%progbits
 8164              	.Ldebug_ranges0:
 8165 0000 2C000000 		.4byte	.LBB37
 8166 0004 54000000 		.4byte	.LBE37
 8167 0008 6E000000 		.4byte	.LBB38
 8168 000c 7A000000 		.4byte	.LBE38
 8169 0010 00000000 		.4byte	0
 8170 0014 00000000 		.4byte	0
 8171 0018 1C000000 		.4byte	.LBB39
 8172 001c DA010000 		.4byte	.LBE39
 8173 0020 DC010000 		.4byte	.LBB83
 8174 0024 9A020000 		.4byte	.LBE83
 8175 0028 9E020000 		.4byte	.LBB84
 8176 002c 00040000 		.4byte	.LBE84
 8177 0030 04040000 		.4byte	.LBB85
 8178 0034 14050000 		.4byte	.LBE85
 8179 0038 18050000 		.4byte	.LBB86
ARM GAS  C:\Users\armst\AppData\Local\Temp\ccNPhHLt.s 			page 163


 8180 003c 70050000 		.4byte	.LBE86
 8181 0040 00000000 		.4byte	0
 8182 0044 00000000 		.4byte	0
 8183 0048 4E010000 		.4byte	.LBB46
 8184 004c DA010000 		.4byte	.LBE46
 8185 0050 DC010000 		.4byte	.LBB50
 8186 0054 62020000 		.4byte	.LBE50
 8187 0058 00000000 		.4byte	0
 8188 005c 00000000 		.4byte	0
 8189 0060 64020000 		.4byte	.LBB51
 8190 0064 9A020000 		.4byte	.LBE51
 8191 0068 9E020000 		.4byte	.LBB55
 8192 006c AA020000 		.4byte	.LBE55
 8193 0070 00000000 		.4byte	0
 8194 0074 00000000 		.4byte	0
 8195 0078 54030000 		.4byte	.LBB63
 8196 007c 00040000 		.4byte	.LBE63
 8197 0080 04040000 		.4byte	.LBB70
 8198 0084 18040000 		.4byte	.LBE70
 8199 0088 00000000 		.4byte	0
 8200 008c 00000000 		.4byte	0
 8201 0090 94030000 		.4byte	.LBB66
 8202 0094 A4030000 		.4byte	.LBE66
 8203 0098 A6030000 		.4byte	.LBB69
 8204 009c 00040000 		.4byte	.LBE69
 8205 00a0 00000000 		.4byte	0
 8206 00a4 00000000 		.4byte	0
 8207 00a8 94030000 		.4byte	.LBB67
 8208 00ac A4030000 		.4byte	.LBE67
 8209 00b0 A6030000 		.4byte	.LBB68
 8210 00b4 AA030000 		.4byte	.LBE68
 8211 00b8 00000000 		.4byte	0
 8212 00bc 00000000 		.4byte	0
 8213 00c0 1A040000 		.4byte	.LBB71
 8214 00c4 14050000 		.4byte	.LBE71
 8215 00c8 18050000 		.4byte	.LBB80
 8216 00cc 32050000 		.4byte	.LBE80
 8217 00d0 00000000 		.4byte	0
 8218 00d4 00000000 		.4byte	0
 8219 00d8 5C040000 		.4byte	.LBB74
 8220 00dc 6C040000 		.4byte	.LBE74
 8221 00e0 6E040000 		.4byte	.LBB79
 8222 00e4 14050000 		.4byte	.LBE79
 8223 00e8 00000000 		.4byte	0
 8224 00ec 00000000 		.4byte	0
 8225 00f0 5C040000 		.4byte	.LBB75
 8226 00f4 6C040000 		.4byte	.LBE75
 8227 00f8 6E040000 		.4byte	.LBB76
 8228 00fc 72040000 		.4byte	.LBE76
 8229 0100 00000000 		.4byte	0
 8230 0104 00000000 		.4byte	0
 8231 0108 D4040000 		.4byte	.LBB77
 8232 010c F0040000 		.4byte	.LBE77
 8233 0110 F4040000 		.4byte	.LBB78
 8234 0114 12050000 		.4byte	.LBE78
 8235 0118 00000000 		.4byte	0
 8236 011c 00000000 		.4byte	0
ARM GAS  C:\Users\armst\AppData\Local\Temp\ccNPhHLt.s 			page 164


 8237 0120 00000000 		.4byte	.LFB5
 8238 0124 30000000 		.4byte	.LFE5
 8239 0128 00000000 		.4byte	.LFB6
 8240 012c 1C000000 		.4byte	.LFE6
 8241 0130 00000000 		.4byte	.LFB7
 8242 0134 88000000 		.4byte	.LFE7
 8243 0138 00000000 		.4byte	.LFB8
 8244 013c C0050000 		.4byte	.LFE8
 8245 0140 00000000 		.4byte	.LFB9
 8246 0144 30000000 		.4byte	.LFE9
 8247 0148 00000000 		.4byte	.LFB10
 8248 014c E8000000 		.4byte	.LFE10
 8249 0150 00000000 		.4byte	.LFB11
 8250 0154 5C000000 		.4byte	.LFE11
 8251 0158 00000000 		.4byte	.LFB12
 8252 015c 98000000 		.4byte	.LFE12
 8253 0160 00000000 		.4byte	.LFB13
 8254 0164 8C000000 		.4byte	.LFE13
 8255 0168 00000000 		.4byte	.LFB14
 8256 016c 90000000 		.4byte	.LFE14
 8257 0170 00000000 		.4byte	.LFB15
 8258 0174 68000000 		.4byte	.LFE15
 8259 0178 00000000 		.4byte	.LFB16
 8260 017c 5C000000 		.4byte	.LFE16
 8261 0180 00000000 		.4byte	.LFB17
 8262 0184 9C000000 		.4byte	.LFE17
 8263 0188 00000000 		.4byte	.LFB18
 8264 018c 9C000000 		.4byte	.LFE18
 8265 0190 00000000 		.4byte	.LFB19
 8266 0194 74000000 		.4byte	.LFE19
 8267 0198 00000000 		.4byte	.LFB20
 8268 019c 5E000000 		.4byte	.LFE20
 8269 01a0 00000000 		.4byte	0
 8270 01a4 00000000 		.4byte	0
 8271              		.section	.debug_line,"",%progbits
 8272              	.Ldebug_line0:
 8273 0000 29060000 		.section	.debug_str,"MS",%progbits,1
 8273      02005902 
 8273      00000201 
 8273      FB0E0D00 
 8273      01010101 
 8274              	.LASF34:
 8275 0000 4D494E4D 		.ascii	"MINMEA_SENTENCE_GLL\000"
 8275      45415F53 
 8275      454E5445 
 8275      4E43455F 
 8275      474C4C00 
 8276              	.LASF40:
 8277 0014 4D494E4D 		.ascii	"MINMEA_SENTENCE_ZDA\000"
 8277      45415F53 
 8277      454E5445 
 8277      4E43455F 
 8277      5A444100 
 8278              	.LASF101:
 8279 0028 73617473 		.ascii	"sats\000"
 8279      00
 8280              	.LASF54:
ARM GAS  C:\Users\armst\AppData\Local\Temp\ccNPhHLt.s 			page 165


 8281 002d 6572725F 		.ascii	"err_latitude\000"
 8281      6C617469 
 8281      74756465 
 8281      00
 8282              	.LASF124:
 8283 003a 6D696E6D 		.ascii	"minmea_check\000"
 8283      65615F63 
 8283      6865636B 
 8283      00
 8284              	.LASF145:
 8285 0047 73417272 		.ascii	"sArr\000"
 8285      00
 8286              	.LASF104:
 8287 004c 6D696E6D 		.ascii	"minmea_sat_info\000"
 8287      65615F73 
 8287      61745F69 
 8287      6E666F00 
 8288              	.LASF131:
 8289 005c 666F726D 		.ascii	"format\000"
 8289      617400
 8290              	.LASF26:
 8291 0063 746D5F79 		.ascii	"tm_yday\000"
 8291      64617900 
 8292              	.LASF78:
 8293 006b 64677073 		.ascii	"dgps_age\000"
 8293      5F616765 
 8293      00
 8294              	.LASF30:
 8295 0074 4D494E4D 		.ascii	"MINMEA_INVALID\000"
 8295      45415F49 
 8295      4E56414C 
 8295      494400
 8296              	.LASF11:
 8297 0083 756E7369 		.ascii	"unsigned int\000"
 8297      676E6564 
 8297      20696E74 
 8297      00
 8298              	.LASF105:
 8299 0090 656C6576 		.ascii	"elevation\000"
 8299      6174696F 
 8299      6E00
 8300              	.LASF138:
 8301 009a 656E6470 		.ascii	"endptr\000"
 8301      747200
 8302              	.LASF66:
 8303 00a1 636F7572 		.ascii	"course\000"
 8303      736500
 8304              	.LASF163:
 8305 00a8 635F6B6E 		.ascii	"c_knots\000"
 8305      6F747300 
 8306              	.LASF22:
 8307 00b0 746D5F6D 		.ascii	"tm_mday\000"
 8307      64617900 
 8308              	.LASF65:
 8309 00b8 73706565 		.ascii	"speed\000"
 8309      6400
 8310              	.LASF10:
ARM GAS  C:\Users\armst\AppData\Local\Temp\ccNPhHLt.s 			page 166


 8311 00be 5F5F696E 		.ascii	"__int_least32_t\000"
 8311      745F6C65 
 8311      61737433 
 8311      325F7400 
 8312              	.LASF41:
 8313 00ce 6D696E6D 		.ascii	"minmea_float\000"
 8313      65615F66 
 8313      6C6F6174 
 8313      00
 8314              	.LASF90:
 8315 00db 6D6F6465 		.ascii	"mode\000"
 8315      00
 8316              	.LASF70:
 8317 00e0 6D696E6D 		.ascii	"minmea_sentence_gga\000"
 8317      65615F73 
 8317      656E7465 
 8317      6E63655F 
 8317      67676100 
 8318              	.LASF164:
 8319 00f4 635F6B70 		.ascii	"c_kph\000"
 8319      6800
 8320              	.LASF157:
 8321 00fa 6D696E6D 		.ascii	"minmea_parse_gll\000"
 8321      65615F70 
 8321      61727365 
 8321      5F676C6C 
 8321      00
 8322              	.LASF166:
 8323 010b 6D696E6D 		.ascii	"minmea_parse_zda\000"
 8323      65615F70 
 8323      61727365 
 8323      5F7A6461 
 8323      00
 8324              	.LASF170:
 8325 011c 474E5520 		.ascii	"GNU C11 5.4.1 20160609 (release) [ARM/embedded-5-br"
 8325      43313120 
 8325      352E342E 
 8325      31203230 
 8325      31363036 
 8326 014f 616E6368 		.ascii	"anch revision 237715] -mcpu=cortex-m4 -mfloat-abi=s"
 8326      20726576 
 8326      6973696F 
 8326      6E203233 
 8326      37373135 
 8327 0182 6F667466 		.ascii	"oftfp -mfpu=fpv4-sp-d16 -mthumb -g -Og -ffunction-s"
 8327      70202D6D 
 8327      6670753D 
 8327      66707634 
 8327      2D73702D 
 8328 01b5 65637469 		.ascii	"ections -ffat-lto-objects\000"
 8328      6F6E7320 
 8328      2D666661 
 8328      742D6C74 
 8328      6F2D6F62 
 8329              	.LASF137:
 8330 01cf 64696769 		.ascii	"digit\000"
 8330      7400
ARM GAS  C:\Users\armst\AppData\Local\Temp\ccNPhHLt.s 			page 167


 8331              	.LASF79:
 8332 01d5 6D696E6D 		.ascii	"minmea_sentence_id\000"
 8332      65615F73 
 8332      656E7465 
 8332      6E63655F 
 8332      696400
 8333              	.LASF72:
 8334 01e8 73617465 		.ascii	"satellites_tracked\000"
 8334      6C6C6974 
 8334      65735F74 
 8334      7261636B 
 8334      656400
 8335              	.LASF97:
 8336 01fb 6C6F6E67 		.ascii	"longitude_error_deviation\000"
 8336      69747564 
 8336      655F6572 
 8336      726F725F 
 8336      64657669 
 8337              	.LASF122:
 8338 0215 73656E74 		.ascii	"sentence\000"
 8338      656E6365 
 8338      00
 8339              	.LASF151:
 8340 021e 76616C69 		.ascii	"validity\000"
 8340      64697479 
 8340      00
 8341              	.LASF14:
 8342 0227 75696E74 		.ascii	"uint32_t\000"
 8342      33325F74 
 8342      00
 8343              	.LASF56:
 8344 0230 6572725F 		.ascii	"err_altitude\000"
 8344      616C7469 
 8344      74756465 
 8344      00
 8345              	.LASF23:
 8346 023d 746D5F6D 		.ascii	"tm_mon\000"
 8346      6F6E00
 8347              	.LASF52:
 8348 0244 6D696E6D 		.ascii	"minmea_sentence_gbs\000"
 8348      65615F73 
 8348      656E7465 
 8348      6E63655F 
 8348      67627300 
 8349              	.LASF29:
 8350 0258 666C6F61 		.ascii	"float\000"
 8350      7400
 8351              	.LASF98:
 8352 025e 616C7469 		.ascii	"altitude_error_deviation\000"
 8352      74756465 
 8352      5F657272 
 8352      6F725F64 
 8352      65766961 
 8353              	.LASF126:
 8354 0277 63686563 		.ascii	"checksum\000"
 8354      6B73756D 
 8354      00
ARM GAS  C:\Users\armst\AppData\Local\Temp\ccNPhHLt.s 			page 168


 8355              	.LASF134:
 8356 0280 6669656C 		.ascii	"field\000"
 8356      6400
 8357              	.LASF59:
 8358 0286 62696173 		.ascii	"bias\000"
 8358      00
 8359              	.LASF132:
 8360 028b 72657375 		.ascii	"result\000"
 8360      6C7400
 8361              	.LASF154:
 8362 0292 76617269 		.ascii	"variation_direction\000"
 8362      6174696F 
 8362      6E5F6469 
 8362      72656374 
 8362      696F6E00 
 8363              	.LASF102:
 8364 02a6 70646F70 		.ascii	"pdop\000"
 8364      00
 8365              	.LASF161:
 8366 02ab 635F7472 		.ascii	"c_true\000"
 8366      756500
 8367              	.LASF9:
 8368 02b2 6C6F6E67 		.ascii	"long long unsigned int\000"
 8368      206C6F6E 
 8368      6720756E 
 8368      7369676E 
 8368      65642069 
 8369              	.LASF113:
 8370 02c9 6D61676E 		.ascii	"magnetic_track_degrees\000"
 8370      65746963 
 8370      5F747261 
 8370      636B5F64 
 8370      65677265 
 8371              	.LASF172:
 8372 02e0 433A5C55 		.ascii	"C:\\Users\\armst\\Documents\\PSoC Creator\\Ocean Cl"
 8372      73657273 
 8372      5C61726D 
 8372      73745C44 
 8372      6F63756D 
 8373 030e 65616E75 		.ascii	"eanup ROV Controls Firmware\\betawble.cydsn\000"
 8373      7020524F 
 8373      5620436F 
 8373      6E74726F 
 8373      6C732046 
 8374              	.LASF53:
 8375 0339 74696D65 		.ascii	"time\000"
 8375      00
 8376              	.LASF128:
 8377 033e 6C6F7765 		.ascii	"lower\000"
 8377      7200
 8378              	.LASF42:
 8379 0344 76616C75 		.ascii	"value\000"
 8379      6500
 8380              	.LASF31:
 8381 034a 4D494E4D 		.ascii	"MINMEA_UNKNOWN\000"
 8381      45415F55 
 8381      4E4B4E4F 
ARM GAS  C:\Users\armst\AppData\Local\Temp\ccNPhHLt.s 			page 169


 8381      574E00
 8382              	.LASF120:
 8383 0359 5F5F676E 		.ascii	"__gnuc_va_list\000"
 8383      75635F76 
 8383      615F6C69 
 8383      737400
 8384              	.LASF73:
 8385 0368 68646F70 		.ascii	"hdop\000"
 8385      00
 8386              	.LASF136:
 8387 036d 7369676E 		.ascii	"sign\000"
 8387      00
 8388              	.LASF152:
 8389 0372 6C617469 		.ascii	"latitude_direction\000"
 8389      74756465 
 8389      5F646972 
 8389      65637469 
 8389      6F6E00
 8390              	.LASF114:
 8391 0385 73706565 		.ascii	"speed_knots\000"
 8391      645F6B6E 
 8391      6F747300 
 8392              	.LASF165:
 8393 0391 635F6661 		.ascii	"c_faa_mode\000"
 8393      615F6D6F 
 8393      646500
 8394              	.LASF69:
 8395 039c 5F426F6F 		.ascii	"_Bool\000"
 8395      6C00
 8396              	.LASF45:
 8397 03a2 6D6F6E74 		.ascii	"month\000"
 8397      6800
 8398              	.LASF95:
 8399 03a8 73656D69 		.ascii	"semi_major_orientation\000"
 8399      5F6D616A 
 8399      6F725F6F 
 8399      7269656E 
 8399      74617469 
 8400              	.LASF32:
 8401 03bf 4D494E4D 		.ascii	"MINMEA_SENTENCE_GBS\000"
 8401      45415F53 
 8401      454E5445 
 8401      4E43455F 
 8401      47425300 
 8402              	.LASF81:
 8403 03d3 4D494E4D 		.ascii	"MINMEA_FAA_MODE_AUTONOMOUS\000"
 8403      45415F46 
 8403      41415F4D 
 8403      4F44455F 
 8403      4155544F 
 8404              	.LASF63:
 8405 03ee 6C617469 		.ascii	"latitude\000"
 8405      74756465 
 8405      00
 8406              	.LASF82:
 8407 03f7 4D494E4D 		.ascii	"MINMEA_FAA_MODE_DIFFERENTIAL\000"
 8407      45415F46 
ARM GAS  C:\Users\armst\AppData\Local\Temp\ccNPhHLt.s 			page 170


 8407      41415F4D 
 8407      4F44455F 
 8407      44494646 
 8408              	.LASF64:
 8409 0414 6C6F6E67 		.ascii	"longitude\000"
 8409      69747564 
 8409      6500
 8410              	.LASF17:
 8411 041e 63686172 		.ascii	"char\000"
 8411      00
 8412              	.LASF68:
 8413 0423 76617269 		.ascii	"variation\000"
 8413      6174696F 
 8413      6E00
 8414              	.LASF38:
 8415 042d 4D494E4D 		.ascii	"MINMEA_SENTENCE_RMC\000"
 8415      45415F53 
 8415      454E5445 
 8415      4E43455F 
 8415      524D4300 
 8416              	.LASF96:
 8417 0441 6C617469 		.ascii	"latitude_error_deviation\000"
 8417      74756465 
 8417      5F657272 
 8417      6F725F64 
 8417      65766961 
 8418              	.LASF92:
 8419 045a 726D735F 		.ascii	"rms_deviation\000"
 8419      64657669 
 8419      6174696F 
 8419      6E00
 8420              	.LASF24:
 8421 0468 746D5F79 		.ascii	"tm_year\000"
 8421      65617200 
 8422              	.LASF80:
 8423 0470 6D696E6D 		.ascii	"minmea_faa_mode\000"
 8423      65615F66 
 8423      61615F6D 
 8423      6F646500 
 8424              	.LASF108:
 8425 0480 746F7461 		.ascii	"total_msgs\000"
 8425      6C5F6D73 
 8425      677300
 8426              	.LASF142:
 8427 048b 74696D65 		.ascii	"time_\000"
 8427      5F00
 8428              	.LASF147:
 8429 0491 74616C6B 		.ascii	"talker\000"
 8429      657200
 8430              	.LASF67:
 8431 0498 64617465 		.ascii	"date\000"
 8431      00
 8432              	.LASF35:
 8433 049d 4D494E4D 		.ascii	"MINMEA_SENTENCE_GSA\000"
 8433      45415F53 
 8433      454E5445 
 8433      4E43455F 
ARM GAS  C:\Users\armst\AppData\Local\Temp\ccNPhHLt.s 			page 171


 8433      47534100 
 8434              	.LASF13:
 8435 04b1 75696E74 		.ascii	"uint8_t\000"
 8435      385F7400 
 8436              	.LASF89:
 8437 04b9 73746174 		.ascii	"status\000"
 8437      757300
 8438              	.LASF55:
 8439 04c0 6572725F 		.ascii	"err_longitude\000"
 8439      6C6F6E67 
 8439      69747564 
 8439      6500
 8440              	.LASF36:
 8441 04ce 4D494E4D 		.ascii	"MINMEA_SENTENCE_GST\000"
 8441      45415F53 
 8441      454E5445 
 8441      4E43455F 
 8441      47535400 
 8442              	.LASF37:
 8443 04e2 4D494E4D 		.ascii	"MINMEA_SENTENCE_GSV\000"
 8443      45415F53 
 8443      454E5445 
 8443      4E43455F 
 8443      47535600 
 8444              	.LASF39:
 8445 04f6 4D494E4D 		.ascii	"MINMEA_SENTENCE_VTG\000"
 8445      45415F53 
 8445      454E5445 
 8445      4E43455F 
 8445      56544700 
 8446              	.LASF88:
 8447 050a 6D696E6D 		.ascii	"minmea_sentence_gll\000"
 8447      65615F73 
 8447      656E7465 
 8447      6E63655F 
 8447      676C6C00 
 8448              	.LASF117:
 8449 051e 6D696E6D 		.ascii	"minmea_sentence_zda\000"
 8449      65615F73 
 8449      656E7465 
 8449      6E63655F 
 8449      7A646100 
 8450              	.LASF94:
 8451 0532 73656D69 		.ascii	"semi_minor_deviation\000"
 8451      5F6D696E 
 8451      6F725F64 
 8451      65766961 
 8451      74696F6E 
 8452              	.LASF121:
 8453 0547 76615F6C 		.ascii	"va_list\000"
 8453      69737400 
 8454              	.LASF8:
 8455 054f 6C6F6E67 		.ascii	"long long int\000"
 8455      206C6F6E 
 8455      6720696E 
 8455      7400
 8456              	.LASF167:
ARM GAS  C:\Users\armst\AppData\Local\Temp\ccNPhHLt.s 			page 172


 8457 055d 6D696E6D 		.ascii	"minmea_getdatetime\000"
 8457      65615F67 
 8457      65746461 
 8457      74657469 
 8457      6D6500
 8458              	.LASF148:
 8459 0570 6D696E6D 		.ascii	"minmea_parse_gbs\000"
 8459      65615F70 
 8459      61727365 
 8459      5F676273 
 8459      00
 8460              	.LASF62:
 8461 0581 76616C69 		.ascii	"valid\000"
 8461      6400
 8462              	.LASF144:
 8463 0587 69417272 		.ascii	"iArr\000"
 8463      00
 8464              	.LASF129:
 8465 058c 65787065 		.ascii	"expected\000"
 8465      63746564 
 8465      00
 8466              	.LASF84:
 8467 0595 4D494E4D 		.ascii	"MINMEA_FAA_MODE_MANUAL\000"
 8467      45415F46 
 8467      41415F4D 
 8467      4F44455F 
 8467      4D414E55 
 8468              	.LASF173:
 8469 05ac 5F5F6170 		.ascii	"__ap\000"
 8469      00
 8470              	.LASF119:
 8471 05b1 6D696E75 		.ascii	"minute_offset\000"
 8471      74655F6F 
 8471      66667365 
 8471      7400
 8472              	.LASF43:
 8473 05bf 7363616C 		.ascii	"scale\000"
 8473      6500
 8474              	.LASF178:
 8475 05c5 6D656D73 		.ascii	"memset\000"
 8475      657400
 8476              	.LASF74:
 8477 05cc 616C7469 		.ascii	"altitude\000"
 8477      74756465 
 8477      00
 8478              	.LASF153:
 8479 05d5 6C6F6E67 		.ascii	"longitude_direction\000"
 8479      69747564 
 8479      655F6469 
 8479      72656374 
 8479      696F6E00 
 8480              	.LASF150:
 8481 05e9 6D696E6D 		.ascii	"minmea_parse_rmc\000"
 8481      65615F70 
 8481      61727365 
 8481      5F726D63 
 8481      00
ARM GAS  C:\Users\armst\AppData\Local\Temp\ccNPhHLt.s 			page 173


 8482              	.LASF50:
 8483 05fa 7365636F 		.ascii	"seconds\000"
 8483      6E647300 
 8484              	.LASF76:
 8485 0602 68656967 		.ascii	"height\000"
 8485      687400
 8486              	.LASF103:
 8487 0609 76646F70 		.ascii	"vdop\000"
 8487      00
 8488              	.LASF57:
 8489 060e 73766964 		.ascii	"svid\000"
 8489      00
 8490              	.LASF156:
 8491 0613 6D696E6D 		.ascii	"minmea_parse_gsa\000"
 8491      65615F70 
 8491      61727365 
 8491      5F677361 
 8491      00
 8492              	.LASF177:
 8493 0624 5F5F6374 		.ascii	"__ctype_ptr__\000"
 8493      7970655F 
 8493      7074725F 
 8493      5F00
 8494              	.LASF77:
 8495 0632 68656967 		.ascii	"height_units\000"
 8495      68745F75 
 8495      6E697473 
 8495      00
 8496              	.LASF110:
 8497 063f 746F7461 		.ascii	"total_sats\000"
 8497      6C5F7361 
 8497      747300
 8498              	.LASF158:
 8499 064a 6D696E6D 		.ascii	"minmea_parse_gst\000"
 8499      65615F70 
 8499      61727365 
 8499      5F677374 
 8499      00
 8500              	.LASF159:
 8501 065b 6D696E6D 		.ascii	"minmea_parse_gsv\000"
 8501      65615F70 
 8501      61727365 
 8501      5F677376 
 8501      00
 8502              	.LASF160:
 8503 066c 6D696E6D 		.ascii	"minmea_parse_vtg\000"
 8503      65615F70 
 8503      61727365 
 8503      5F767467 
 8503      00
 8504              	.LASF12:
 8505 067d 6C6F6E67 		.ascii	"long double\000"
 8505      20646F75 
 8505      626C6500 
 8506              	.LASF139:
 8507 0689 64417272 		.ascii	"dArr\000"
 8507      00
ARM GAS  C:\Users\armst\AppData\Local\Temp\ccNPhHLt.s 			page 174


 8508              	.LASF175:
 8509 068e 68657832 		.ascii	"hex2int\000"
 8509      696E7400 
 8510              	.LASF141:
 8511 0696 79417272 		.ascii	"yArr\000"
 8511      00
 8512              	.LASF143:
 8513 069b 68417272 		.ascii	"hArr\000"
 8513      00
 8514              	.LASF112:
 8515 06a0 74727565 		.ascii	"true_track_degrees\000"
 8515      5F747261 
 8515      636B5F64 
 8515      65677265 
 8515      657300
 8516              	.LASF93:
 8517 06b3 73656D69 		.ascii	"semi_major_deviation\000"
 8517      5F6D616A 
 8517      6F725F64 
 8517      65766961 
 8517      74696F6E 
 8518              	.LASF33:
 8519 06c8 4D494E4D 		.ascii	"MINMEA_SENTENCE_GGA\000"
 8519      45415F53 
 8519      454E5445 
 8519      4E43455F 
 8519      47474100 
 8520              	.LASF2:
 8521 06dc 73686F72 		.ascii	"short int\000"
 8521      7420696E 
 8521      7400
 8522              	.LASF4:
 8523 06e6 6C6F6E67 		.ascii	"long int\000"
 8523      20696E74 
 8523      00
 8524              	.LASF71:
 8525 06ef 6669785F 		.ascii	"fix_quality\000"
 8525      7175616C 
 8525      69747900 
 8526              	.LASF47:
 8527 06fb 6D696E6D 		.ascii	"minmea_time\000"
 8527      65615F74 
 8527      696D6500 
 8528              	.LASF146:
 8529 0707 6D696E6D 		.ascii	"minmea_talker_id\000"
 8529      65615F74 
 8529      616C6B65 
 8529      725F6964 
 8529      00
 8530              	.LASF75:
 8531 0718 616C7469 		.ascii	"altitude_units\000"
 8531      74756465 
 8531      5F756E69 
 8531      747300
 8532              	.LASF49:
 8533 0727 6D696E75 		.ascii	"minutes\000"
 8533      74657300 
ARM GAS  C:\Users\armst\AppData\Local\Temp\ccNPhHLt.s 			page 175


 8534              	.LASF125:
 8535 072f 73747269 		.ascii	"strict\000"
 8535      637400
 8536              	.LASF174:
 8537 0736 6D696E6D 		.ascii	"minmea_isfield\000"
 8537      65615F69 
 8537      73666965 
 8537      6C6400
 8538              	.LASF118:
 8539 0745 686F7572 		.ascii	"hour_offset\000"
 8539      5F6F6666 
 8539      73657400 
 8540              	.LASF48:
 8541 0751 686F7572 		.ascii	"hours\000"
 8541      7300
 8542              	.LASF5:
 8543 0757 5F5F7569 		.ascii	"__uint8_t\000"
 8543      6E74385F 
 8543      7400
 8544              	.LASF44:
 8545 0761 6D696E6D 		.ascii	"minmea_date\000"
 8545      65615F64 
 8545      61746500 
 8546              	.LASF87:
 8547 076d 4D494E4D 		.ascii	"MINMEA_FAA_MODE_PRECISE\000"
 8547      45415F46 
 8547      41415F4D 
 8547      4F44455F 
 8547      50524543 
 8548              	.LASF123:
 8549 0785 6D696E6D 		.ascii	"minmea_checksum\000"
 8549      65615F63 
 8549      6865636B 
 8549      73756D00 
 8550              	.LASF83:
 8551 0795 4D494E4D 		.ascii	"MINMEA_FAA_MODE_ESTIMATED\000"
 8551      45415F46 
 8551      41415F4D 
 8551      4F44455F 
 8551      45535449 
 8552              	.LASF18:
 8553 07af 5F5F7661 		.ascii	"__va_list\000"
 8553      5F6C6973 
 8553      7400
 8554              	.LASF58:
 8555 07b9 70726F62 		.ascii	"prob\000"
 8555      00
 8556              	.LASF16:
 8557 07be 73697A65 		.ascii	"sizetype\000"
 8557      74797065 
 8557      00
 8558              	.LASF116:
 8559 07c7 6661615F 		.ascii	"faa_mode\000"
 8559      6D6F6465 
 8559      00
 8560              	.LASF7:
 8561 07d0 6C6F6E67 		.ascii	"long unsigned int\000"
ARM GAS  C:\Users\armst\AppData\Local\Temp\ccNPhHLt.s 			page 176


 8561      20756E73 
 8561      69676E65 
 8561      6420696E 
 8561      7400
 8562              	.LASF60:
 8563 07e2 73746464 		.ascii	"stddev\000"
 8563      657600
 8564              	.LASF15:
 8565 07e9 696E745F 		.ascii	"int_least32_t\000"
 8565      6C656173 
 8565      7433325F 
 8565      7400
 8566              	.LASF46:
 8567 07f7 79656172 		.ascii	"year\000"
 8567      00
 8568              	.LASF20:
 8569 07fc 746D5F6D 		.ascii	"tm_min\000"
 8569      696E00
 8570              	.LASF155:
 8571 0803 6D696E6D 		.ascii	"minmea_parse_gga\000"
 8571      65615F70 
 8571      61727365 
 8571      5F676761 
 8571      00
 8572              	.LASF140:
 8573 0814 6D417272 		.ascii	"mArr\000"
 8573      00
 8574              	.LASF135:
 8575 0819 74797065 		.ascii	"type\000"
 8575      00
 8576              	.LASF1:
 8577 081e 756E7369 		.ascii	"unsigned char\000"
 8577      676E6564 
 8577      20636861 
 8577      7200
 8578              	.LASF6:
 8579 082c 5F5F7569 		.ascii	"__uint32_t\000"
 8579      6E743332 
 8579      5F7400
 8580              	.LASF127:
 8581 0837 75707065 		.ascii	"upper\000"
 8581      7200
 8582              	.LASF51:
 8583 083d 6D696372 		.ascii	"microseconds\000"
 8583      6F736563 
 8583      6F6E6473 
 8583      00
 8584              	.LASF109:
 8585 084a 6D73675F 		.ascii	"msg_nr\000"
 8585      6E7200
 8586              	.LASF168:
 8587 0851 73747274 		.ascii	"strtol\000"
 8587      6F6C00
 8588              	.LASF106:
 8589 0858 617A696D 		.ascii	"azimuth\000"
 8589      75746800 
 8590              	.LASF85:
ARM GAS  C:\Users\armst\AppData\Local\Temp\ccNPhHLt.s 			page 177


 8591 0860 4D494E4D 		.ascii	"MINMEA_FAA_MODE_SIMULATED\000"
 8591      45415F46 
 8591      41415F4D 
 8591      4F44455F 
 8591      53494D55 
 8592              	.LASF25:
 8593 087a 746D5F77 		.ascii	"tm_wday\000"
 8593      64617900 
 8594              	.LASF149:
 8595 0882 6672616D 		.ascii	"frame\000"
 8595      6500
 8596              	.LASF61:
 8597 0888 6D696E6D 		.ascii	"minmea_sentence_rmc\000"
 8597      65615F73 
 8597      656E7465 
 8597      6E63655F 
 8597      726D6300 
 8598              	.LASF21:
 8599 089c 746D5F68 		.ascii	"tm_hour\000"
 8599      6F757200 
 8600              	.LASF0:
 8601 08a4 7369676E 		.ascii	"signed char\000"
 8601      65642063 
 8601      68617200 
 8602              	.LASF3:
 8603 08b0 73686F72 		.ascii	"short unsigned int\000"
 8603      7420756E 
 8603      7369676E 
 8603      65642069 
 8603      6E7400
 8604              	.LASF19:
 8605 08c3 746D5F73 		.ascii	"tm_sec\000"
 8605      656300
 8606              	.LASF99:
 8607 08ca 6D696E6D 		.ascii	"minmea_sentence_gsa\000"
 8607      65615F73 
 8607      656E7465 
 8607      6E63655F 
 8607      67736100 
 8608              	.LASF27:
 8609 08de 746D5F69 		.ascii	"tm_isdst\000"
 8609      73647374 
 8609      00
 8610              	.LASF100:
 8611 08e7 6669785F 		.ascii	"fix_type\000"
 8611      74797065 
 8611      00
 8612              	.LASF162:
 8613 08f0 635F6D61 		.ascii	"c_magnetic\000"
 8613      676E6574 
 8613      696300
 8614              	.LASF176:
 8615 08fb 70617273 		.ascii	"parse_error\000"
 8615      655F6572 
 8615      726F7200 
 8616              	.LASF28:
 8617 0907 646F7562 		.ascii	"double\000"
ARM GAS  C:\Users\armst\AppData\Local\Temp\ccNPhHLt.s 			page 178


 8617      6C6500
 8618              	.LASF91:
 8619 090e 6D696E6D 		.ascii	"minmea_sentence_gst\000"
 8619      65615F73 
 8619      656E7465 
 8619      6E63655F 
 8619      67737400 
 8620              	.LASF107:
 8621 0922 6D696E6D 		.ascii	"minmea_sentence_gsv\000"
 8621      65615F73 
 8621      656E7465 
 8621      6E63655F 
 8621      67737600 
 8622              	.LASF111:
 8623 0936 6D696E6D 		.ascii	"minmea_sentence_vtg\000"
 8623      65615F73 
 8623      656E7465 
 8623      6E63655F 
 8623      76746700 
 8624              	.LASF130:
 8625 094a 6D696E6D 		.ascii	"minmea_scan\000"
 8625      65615F73 
 8625      63616E00 
 8626              	.LASF115:
 8627 0956 73706565 		.ascii	"speed_kph\000"
 8627      645F6B70 
 8627      6800
 8628              	.LASF169:
 8629 0960 73747263 		.ascii	"strcmp\000"
 8629      6D7000
 8630              	.LASF133:
 8631 0967 6F707469 		.ascii	"optional\000"
 8631      6F6E616C 
 8631      00
 8632              	.LASF171:
 8633 0970 6D696E6D 		.ascii	"minmea.c\000"
 8633      65612E63 
 8633      00
 8634              	.LASF86:
 8635 0979 4D494E4D 		.ascii	"MINMEA_FAA_MODE_NOT_VALID\000"
 8635      45415F46 
 8635      41415F4D 
 8635      4F44455F 
 8635      4E4F545F 
 8636              		.ident	"GCC: (GNU Tools for ARM Embedded Processors) 5.4.1 20160609 (release) [ARM/embedded-5-bran
